

Microchip Technology PIC18 LITE Macro Assembler V1.42 build -159332390 
                                                                                               Mon Aug 12 15:58:44 2019

Microchip Technology Omniscient Code Generator v1.42 (Free mode) build 201704130522
     1                           	processor	18F46K22
     2                           	fnconf	rparam,??,?,0
     3                           	opt	pw 120
     4                           	opt	lm
     5                           	psect	idataBANK0,global,class=CODE,delta=1,noexec
     6                           	psect	idataBANK1,global,class=CODE,delta=1,noexec
     7                           	psect	cinit,global,reloc=2,class=CODE,delta=1
     8                           	psect	bitbssBANK0,global,bit,class=BANK0,space=1,delta=1,lowdata,noexec
     9                           	psect	bssBANK0,global,class=BANK0,space=1,delta=1,lowdata,noexec
    10                           	psect	dataBANK0,global,class=BANK0,space=1,delta=1,lowdata,noexec
    11                           	psect	bssBANK1,global,class=BANK1,space=1,delta=1,lowdata,noexec
    12                           	psect	dataBANK1,global,class=BANK1,space=1,delta=1,lowdata,noexec
    13                           	psect	cstackBANK1,global,class=BANK1,space=1,delta=1,noexec
    14                           	psect	cstackBANK0,global,class=BANK0,space=1,delta=1,noexec
    15                           	psect	cstackCOMRAM,global,class=COMRAM,space=1,delta=1,noexec
    16                           	psect	text0,global,reloc=2,class=CODE,delta=1
    17                           	psect	text1,global,reloc=2,class=CODE,delta=1,group=1
    18                           	psect	text2,global,reloc=2,class=CODE,delta=1,group=1
    19                           	psect	text3,global,reloc=2,class=CODE,delta=1,group=1
    20                           	psect	text4,global,reloc=2,class=CODE,delta=1
    21                           	psect	text5,global,reloc=2,class=CODE,delta=1
    22                           	psect	text6,global,reloc=2,class=CODE,delta=1
    23                           	psect	text7,global,reloc=2,class=CODE,delta=1,group=1
    24                           	psect	text8,global,reloc=2,class=CODE,delta=1,group=1
    25                           	psect	text9,global,reloc=2,class=CODE,delta=1,group=1
    26                           	psect	text10,global,reloc=2,class=CODE,delta=1,group=1
    27                           	psect	text11,global,reloc=2,class=CODE,delta=1,group=1
    28                           	psect	text12,global,reloc=2,class=CODE,delta=1
    29                           	psect	text13,global,reloc=2,class=CODE,delta=1
    30                           	psect	text14,global,reloc=2,class=CODE,delta=1
    31                           	psect	text15,global,reloc=2,class=CODE,delta=1
    32                           	psect	text16,global,reloc=2,class=CODE,delta=1
    33                           	psect	text17,global,reloc=2,class=CODE,delta=1
    34                           	psect	text18,global,reloc=2,class=CODE,delta=1
    35                           	psect	text19,global,reloc=2,class=CODE,delta=1
    36                           	psect	intcodelo,global,reloc=2,class=CODE,delta=1
    37                           	psect	text21,global,reloc=2,class=CODE,delta=1
    38                           	psect	intcode,global,reloc=2,class=CODE,delta=1
    39                           	psect	intcode_body,global,reloc=2,class=CODE,delta=1
    40                           	psect	text23,global,reloc=2,class=CODE,delta=1
    41                           	psect	text24,global,reloc=2,class=CODE,delta=1
    42                           	psect	text25,global,reloc=2,class=CODE,delta=1
    43                           	psect	text26,global,reloc=2,class=CODE,delta=1
    44                           	psect	text27,global,reloc=2,class=CODE,delta=1
    45                           	psect	text28,global,reloc=2,class=CODE,delta=1
    46                           	psect	text29,global,reloc=2,class=CODE,delta=1
    47                           	psect	text30,global,reloc=2,class=CODE,delta=1,group=1
    48                           	psect	text31,global,reloc=2,class=CODE,delta=1
    49                           	psect	text32,global,reloc=2,class=CODE,delta=1
    50                           	psect	text33,global,reloc=2,class=CODE,delta=1
    51                           	psect	text34,global,reloc=2,class=CODE,delta=1
    52                           	psect	text35,global,reloc=2,class=CODE,delta=1
    53                           	psect	text36,global,reloc=2,class=CODE,delta=1
    54                           	psect	text37,global,reloc=2,class=CODE,delta=1
    55                           	psect	text38,global,reloc=2,class=CODE,delta=1
    56                           	psect	text39,global,reloc=2,class=CODE,delta=1
    57                           	psect	text40,global,reloc=2,class=CODE,delta=1
    58                           	psect	text41,global,reloc=2,class=CODE,delta=1
    59                           	psect	text42,global,reloc=2,class=CODE,delta=1
    60                           	psect	text43,global,reloc=2,class=CODE,delta=1
    61                           	psect	text44,global,reloc=2,class=CODE,delta=1
    62                           	psect	intsave_regs,global,class=BIGRAM,space=1,delta=1,noexec
    63                           	psect	rparam,global,class=COMRAM,space=1,delta=1,noexec
    64                           	psect	temp,global,ovrld,common,class=COMRAM,space=1,delta=1
    65  0000                     
    66                           ; Version 1.42
    67                           ; Generated 13/04/2017 GMT
    68                           ; 
    69                           ; Copyright © 2017, Microchip Technology Inc. and its subsidiaries ("Microchip")
    70                           ; All rights reserved.
    71                           ; 
    72                           ; This software is developed by Microchip Technology Inc. and its subsidiaries ("Microch
      +                          ip").
    73                           ; 
    74                           ; Redistribution and use in source and binary forms, with or without modification, are
    75                           ; permitted provided that the following conditions are met:
    76                           ; 
    77                           ;     1. Redistributions of source code must retain the above copyright notice, this lis
      +                          t of
    78                           ;        conditions and the following disclaimer.
    79                           ; 
    80                           ;     2. Redistributions in binary form must reproduce the above copyright notice, this 
      +                          list
    81                           ;        of conditions and the following disclaimer in the documentation and/or other
    82                           ;        materials provided with the distribution.
    83                           ; 
    84                           ;     3. Microchip's name may not be used to endorse or promote products derived from th
      +                          is
    85                           ;        software without specific prior written permission.
    86                           ; 
    87                           ; THIS SOFTWARE IS PROVIDED BY MICROCHIP "AS IS" AND ANY EXPRESS OR IMPLIED WARRANTIES,
    88                           ; INCLUDING, BUT NOT LIMITED TO, THE IMPLIED WARRANTIES OF MERCHANTABILITY AND FITNESS F
      +                          OR
    89                           ; PURPOSE ARE DISCLAIMED.  IN NO EVENT SHALL MICROCHIP BE LIABLE FOR ANY DIRECT, INDIREC
      +                          T,
    90                           ; INCIDENTAL, SPECIAL, EXEMPLARY, OR CONSEQUENTIAL DAMAGES (INCLUDING BUT NOT LIMITED TO
    91                           ; PROCUREMENT OF SUBSTITUTE GOODS OR SERVICES; LOSS OF USE, DATA OR PROFITS; OR BUSINESS
    92                           ; INTERRUPTION) HOWSOEVER CAUSED AND ON ANY THEORY OF LIABILITY, WHETHER IN CONTRACT, ST
      +                          RICT
    93                           ; LIABILITY, OR TORT (INCLUDING NEGLIGENCE OR OTHERWISE) ARISING IN ANY WAY OUT OF THE U
      +                          SE OF
    94                           ; THIS SOFTWARE, EVEN IF ADVISED OF THE POSSIBILITY OF SUCH DAMAGE.
    95                           ; 
    96                           ; 
    97                           ; Code-generator required, PIC18F46K22 Definitions
    98                           ; 
    99                           ; SFR Addresses
   100  0000                     
   101                           	psect	idataBANK0
   102  003496                     __pidataBANK0:
   103                           	opt stack 0
   104                           
   105                           ;initializer for _flag_peralta
   106  003496  01                 	db	1
   107                           
   108                           	psect	idataBANK1
   109  003394                     __pidataBANK1:
   110                           	opt stack 0
   111                           
   112                           ;initializer for _kp_inj
   113  003394  0000               	dw	0
   114  003396  3F80               	dw	16256
   115                           
   116                           ;initializer for _z
   117  003398  60AA               	dw	24746
   118  00339A  3F64               	dw	16228
   119                           
   120                           ;initializer for _K
   121  00339C  59DE               	dw	23006
   122  00339E  3E7B               	dw	15995
   123                           
   124                           ;initializer for _SP_rpm
   125  0033A0  0000               	dw	0
   126  0033A2  447A               	dw	17530
   127                           
   128                           ;initializer for _teto_avanco
   129  0033A4  0000               	dw	0
   130  0033A6  41A8               	dw	16808
   131  0000                     _TMR6	set	3916
   132  0000                     _T6CONbits	set	3914
   133  0000                     _TMR4	set	3923
   134  0000                     _T4CONbits	set	3921
   135  0000                     _TMR5H	set	3920
   136  0000                     _TMR5L	set	3919
   137  0000                     _T5CONbits	set	3918
   138  0000                     _ANSELE	set	3900
   139  0000                     _ANSELD	set	3899
   140  0000                     _ANSELC	set	3898
   141  0000                     _ANSELB	set	3897
   142  0000                     _ANSELA	set	3896
   143  0000                     _SSP2CON2bits	set	3947
   144  0000                     _SSP2ADD	set	3950
   145  0000                     _SSP2CON2	set	3947
   146  0000                     _TRISDbits	set	3989
   147  0000                     _TMR0L	set	4054
   148  0000                     _TMR0H	set	4055
   149  0000                     _T0CONbits	set	4053
   150  0000                     _TMR2	set	4028
   151  0000                     _T2CONbits	set	4026
   152  0000                     _TMR3L	set	4018
   153  0000                     _TMR3H	set	4019
   154  0000                     _T3CONbits	set	4017
   155  0000                     _TMR1L	set	4046
   156  0000                     _TMR1H	set	4047
   157  0000                     _T1CONbits	set	4045
   158  0000                     _SSP2STATbits	set	3949
   159  0000                     _SSP2STAT	set	3949
   160  0000                     _SSP2CON1	set	3948
   161  0000                     _SSP2BUF	set	3951
   162  0000                     _SSP1STATbits	set	4039
   163  0000                     _SSP1STAT	set	4039
   164  0000                     _SSP1CON1	set	4038
   165  0000                     _SSP1BUF	set	4041
   166  0000                     _INTCON2bits	set	4081
   167  0000                     _ADCON1bits	set	4033
   168  0000                     _ADCON2bits	set	4032
   169  0000                     _ADRESL	set	4035
   170  0000                     _ADRESH	set	4036
   171  0000                     _ADCON0bits	set	4034
   172  0000                     _RCONbits	set	4048
   173  0000                     _IPR5bits	set	3967
   174  0000                     _ADCON2	set	4032
   175  0000                     _ADCON1	set	4033
   176  0000                     _ADCON0	set	4034
   177  0000                     _TRISE	set	3990
   178  0000                     _TRISD	set	3989
   179  0000                     _TRISC	set	3988
   180  0000                     _TRISB	set	3987
   181  0000                     _TRISA	set	3986
   182  0000                     _PORTBbits	set	3969
   183  0000                     _PORTEbits	set	3972
   184  0000                     _LATAbits	set	3977
   185  0000                     _PIE2bits	set	4000
   186  0000                     _PIR2bits	set	4001
   187  0000                     _PR2	set	4027
   188  0000                     _LATCbits	set	3979
   189  0000                     _PIR1bits	set	3998
   190  0000                     _LATBbits	set	3978
   191  0000                     _PIE1bits	set	3997
   192  0000                     _LATEbits	set	3981
   193  0000                     _PIE5bits	set	3965
   194  0000                     _PIR5bits	set	3966
   195  0000                     _LATDbits	set	3980
   196  0000                     _INTCONbits	set	4082
   197  0000                     _TMR5IE	set	31721
   198  0000                     _TRISD4	set	31916
   199  0000                     _TRISD3	set	31915
   200  0000                     _TRISD1	set	31913
   201  0000                     _TRISD0	set	31912
   202  0000                     _SSP2IP	set	32047
   203  0000                     _TRISC5	set	31909
   204  0000                     _TRISC4	set	31908
   205  0000                     _TRISC3	set	31907
   206  0000                     _TRISA5	set	31893
   207  0000                     _SSP1IP	set	31995
   208  0000                     _TRISB2	set	31898
   209  0000                     _TRISB1	set	31897
   210  0000                     _TRISB0	set	31896
   211  0000                     _STKFUL	set	32743
   212  0000                     _TMR2IP	set	31993
   213  0000                     _TMR3IP	set	32017
   214  0000                     _TMR1IP	set	31992
   215  0000                     _TMR0IP	set	32650
   216                           
   217                           ; #config settings
   218  0000                     
   219                           	psect	cinit
   220  0031FC                     __pcinit:
   221                           	opt stack 0
   222  0031FC                     start_initialization:
   223                           	opt stack 0
   224  0031FC                     __initialization:
   225                           	opt stack 0
   226                           
   227                           ; Initialize objects allocated to BANK1 (20 bytes)
   228                           ; load TBLPTR registers with __pidataBANK1
   229  0031FC  0E94               	movlw	low __pidataBANK1
   230  0031FE  6EF6               	movwf	tblptrl,c
   231  003200  0E33               	movlw	high __pidataBANK1
   232  003202  6EF7               	movwf	tblptrh,c
   233  003204  0E00               	movlw	low (__pidataBANK1 shr (0+16))
   234  003206  6EF8               	movwf	tblptru,c
   235  003208  EE01  F083         	lfsr	0,__pdataBANK1
   236  00320C  EE10 F014          	lfsr	1,20
   237  003210                     copy_data0:
   238  003210  0009               	tblrd		*+
   239  003212  CFF5 FFEE          	movff	tablat,postinc0
   240  003216  50E5               	movf	postdec1,w,c
   241  003218  50E1               	movf	fsr1l,w,c
   242  00321A  E1FA               	bnz	copy_data0
   243                           
   244                           ; Initialize objects allocated to BANK0 (1 bytes)
   245                           ; load TBLPTR registers with __pidataBANK0
   246  00321C  0E96               	movlw	low __pidataBANK0
   247  00321E  6EF6               	movwf	tblptrl,c
   248  003220  0E34               	movlw	high __pidataBANK0
   249  003222  6EF7               	movwf	tblptrh,c
   250  003224  0E00               	movlw	low (__pidataBANK0 shr (0+16))
   251  003226  6EF8               	movwf	tblptru,c
   252  003228  0009               	tblrd		*+	;fetch initializer
   253  00322A  CFF5 F0E9          	movff	tablat,__pdataBANK0
   254                           
   255                           ; Clear objects allocated to BANK1 (110 bytes)
   256  00322E  EE01  F000         	lfsr	0,__pbssBANK1
   257  003232  0E6E               	movlw	110
   258  003234                     clear_0:
   259  003234  6AEE               	clrf	postinc0,c
   260  003236  06E8               	decf	wreg,f,c
   261  003238  E1FD               	bnz	clear_0
   262                           
   263                           ; Clear objects allocated to BITBANK0 (1 bytes)
   264  00323A  0100               	movlb	0
   265  00323C  6BE8               	clrf	(__pbitbssBANK0/(0+8))& (0+255),b
   266                           
   267                           ; Clear objects allocated to BANK0 (65 bytes)
   268  00323E  EE00  F0A7         	lfsr	0,__pbssBANK0
   269  003242  0E41               	movlw	65
   270  003244                     clear_1:
   271  003244  6AEE               	clrf	postinc0,c
   272  003246  06E8               	decf	wreg,f,c
   273  003248  E1FD               	bnz	clear_1
   274  00324A                     end_of_initialization:
   275                           	opt stack 0
   276  00324A                     __end_of__initialization:
   277                           	opt stack 0
   278  00324A  905F               	bcf	int$flags,0,c	;clear compiler interrupt flag (level 1)
   279  00324C  925F               	bcf	int$flags,1,c	;clear compiler interrupt flag (level 2)
   280  00324E  0E00               	movlw	low (__Lmediumconst shr (0+16))
   281  003250  6EF8               	movwf	tblptru,c
   282  003252  0100               	movlb	0
   283  003254  EF82  F007         	goto	_main	;jump to C main() function
   284                           tblptru	equ	0xFF8
   285                           tblptrh	equ	0xFF7
   286                           tblptrl	equ	0xFF6
   287                           tablat	equ	0xFF5
   288                           postinc0	equ	0xFEE
   289                           wreg	equ	0xFE8
   290                           postdec1	equ	0xFE5
   291                           fsr1l	equ	0xFE1
   292                           
   293                           	psect	bitbssBANK0
   294  000740                     __pbitbssBANK0:
   295                           	opt stack 0
   296  000740                     _Chave_controle_geral:
   297                           	opt stack 0
   298  000740                     	ds	1
   299  000741                     _Enable_control_ign:
   300                           	opt stack 0
   301  000741                     	ds	1
   302                           tblptru	equ	0xFF8
   303                           tblptrh	equ	0xFF7
   304                           tblptrl	equ	0xFF6
   305                           tablat	equ	0xFF5
   306                           postinc0	equ	0xFEE
   307                           wreg	equ	0xFE8
   308                           postdec1	equ	0xFE5
   309                           fsr1l	equ	0xFE1
   310                           
   311                           	psect	bssBANK0
   312  0000A7                     __pbssBANK0:
   313                           	opt stack 0
   314  0000A7                     _tempo_inj:
   315                           	opt stack 0
   316  0000A7                     	ds	4
   317  0000AB                     _ig_tmr_disparo_controle_temp:
   318                           	opt stack 0
   319  0000AB                     	ds	4
   320  0000AF                     _u:
   321                           	opt stack 0
   322  0000AF                     	ds	4
   323  0000B3                     _ij_tmr_disparo:
   324                           	opt stack 0
   325  0000B3                     	ds	4
   326  0000B7                     _Set_Vent:
   327                           	opt stack 0
   328  0000B7                     	ds	2
   329  0000B9                     _cutoff:
   330                           	opt stack 0
   331  0000B9                     	ds	2
   332  0000BB                     _sinal_fase:
   333                           	opt stack 0
   334  0000BB                     	ds	2
   335  0000BD                     _rotacao_ant:
   336                           	opt stack 0
   337  0000BD                     	ds	2
   338  0000BF                     _rotacao:
   339                           	opt stack 0
   340  0000BF                     	ds	2
   341  0000C1                     _tempo_bob:
   342                           	opt stack 0
   343  0000C1                     	ds	2
   344  0000C3                     _ij_dente_23_ant:
   345                           	opt stack 0
   346  0000C3                     	ds	2
   347  0000C5                     _ij_dente_23:
   348                           	opt stack 0
   349  0000C5                     	ds	2
   350  0000C7                     _ij_dente_14_ant:
   351                           	opt stack 0
   352  0000C7                     	ds	2
   353  0000C9                     _ij_dente_14:
   354                           	opt stack 0
   355  0000C9                     	ds	2
   356  0000CB                     _rotacao_peralta:
   357                           	opt stack 0
   358  0000CB                     	ds	2
   359  0000CD                     _dente_subida_inteiro:
   360                           	opt stack 0
   361  0000CD                     	ds	2
   362  0000CF                     _ig_dente_14_ant:
   363                           	opt stack 0
   364  0000CF                     	ds	2
   365  0000D1                     _ig_dente_14:
   366                           	opt stack 0
   367  0000D1                     	ds	2
   368  0000D3                     _ig_dente_23_ant:
   369                           	opt stack 0
   370  0000D3                     	ds	2
   371  0000D5                     _ig_dente_23:
   372                           	opt stack 0
   373  0000D5                     	ds	2
   374  0000D7                     _ig_tmr_disparo_controle:
   375                           	opt stack 0
   376  0000D7                     	ds	2
   377  0000D9                     _ig_tmr_disparo:
   378                           	opt stack 0
   379  0000D9                     	ds	2
   380  0000DB                     _volta23:
   381                           	opt stack 0
   382  0000DB                     	ds	2
   383  0000DD                     _volta14:
   384                           	opt stack 0
   385  0000DD                     	ds	2
   386  0000DF                     _ij23_pos:
   387                           	opt stack 0
   388  0000DF                     	ds	2
   389  0000E1                     _ij14_pos:
   390                           	opt stack 0
   391  0000E1                     	ds	2
   392  0000E3                     _ig_pos:
   393                           	opt stack 0
   394  0000E3                     	ds	2
   395  0000E5                     _dente:
   396                           	opt stack 0
   397  0000E5                     	ds	2
   398  0000E7                     _voltai2c:
   399                           	opt stack 0
   400  0000E7                     	ds	1
   401                           tblptru	equ	0xFF8
   402                           tblptrh	equ	0xFF7
   403                           tblptrl	equ	0xFF6
   404                           tablat	equ	0xFF5
   405                           postinc0	equ	0xFEE
   406                           wreg	equ	0xFE8
   407                           postdec1	equ	0xFE5
   408                           fsr1l	equ	0xFE1
   409                           
   410                           	psect	dataBANK0
   411  0000E9                     __pdataBANK0:
   412                           	opt stack 0
   413  0000E9                     _flag_peralta:
   414                           	opt stack 0
   415  0000E9                     	ds	1
   416                           tblptru	equ	0xFF8
   417                           tblptrh	equ	0xFF7
   418                           tblptrl	equ	0xFF6
   419                           tablat	equ	0xFF5
   420                           postinc0	equ	0xFEE
   421                           wreg	equ	0xFE8
   422                           postdec1	equ	0xFE5
   423                           fsr1l	equ	0xFE1
   424                           
   425                           	psect	bssBANK1
   426  000100                     __pbssBANK1:
   427                           	opt stack 0
   428  000100                     _valor:
   429                           	opt stack 0
   430  000100                     	ds	24
   431  000118                     _buffer_read:
   432                           	opt stack 0
   433  000118                     	ds	20
   434  00012C                     _dente_subida:
   435                           	opt stack 0
   436  00012C                     	ds	4
   437  000130                     _dente_controle:
   438                           	opt stack 0
   439  000130                     	ds	4
   440  000134                     _u_ant:
   441                           	opt stack 0
   442  000134                     	ds	4
   443  000138                     _Erro_RPM_ant:
   444                           	opt stack 0
   445  000138                     	ds	4
   446  00013C                     _Erro_RPM:
   447                           	opt stack 0
   448  00013C                     	ds	4
   449  000140                     _t_periodo_ref:
   450                           	opt stack 0
   451  000140                     	ds	4
   452  000144                     _t_periodo:
   453                           	opt stack 0
   454  000144                     	ds	4
   455  000148                     	ds	2
   456  00014A                     _flag_marcus:
   457                           	opt stack 0
   458  00014A                     	ds	2
   459  00014C                     _Flag_I2c:
   460                           	opt stack 0
   461  00014C                     	ds	2
   462  00014E                     _pedal_ad:
   463                           	opt stack 0
   464  00014E                     	ds	2
   465  000150                     _ij_dente_23_extra:
   466                           	opt stack 0
   467  000150                     	ds	2
   468  000152                     _ij_dente_14_extra:
   469                           	opt stack 0
   470  000152                     	ds	2
   471  000154                     _falha_ok:
   472                           	opt stack 0
   473  000154                     	ds	2
   474  000156                     _fase_ok:
   475                           	opt stack 0
   476  000156                     	ds	2
   477  000158                     _spi_ctr:
   478                           	opt stack 0
   479  000158                     	ds	2
   480  00015A                     _n_controle:
   481                           	opt stack 0
   482  00015A                     	ds	2
   483  00015C                     _estado_controle_ml:
   484                           	opt stack 0
   485  00015C                     	ds	2
   486  00015E                     _dm:
   487                           	opt stack 0
   488  00015E                     	ds	2
   489  000160                     _e:
   490                           	opt stack 0
   491  000160                     	ds	2
   492  000162                     _d:
   493                           	opt stack 0
   494  000162                     	ds	2
   495  000164                     _c:
   496                           	opt stack 0
   497  000164                     	ds	2
   498  000166                     _b:
   499                           	opt stack 0
   500  000166                     	ds	2
   501  000168                     _a:
   502                           	opt stack 0
   503  000168                     	ds	2
   504  00016A                     _periodo_peralta:
   505                           	opt stack 0
   506  00016A                     	ds	4
   507                           tblptru	equ	0xFF8
   508                           tblptrh	equ	0xFF7
   509                           tblptrl	equ	0xFF6
   510                           tablat	equ	0xFF5
   511                           postinc0	equ	0xFEE
   512                           wreg	equ	0xFE8
   513                           postdec1	equ	0xFE5
   514                           fsr1l	equ	0xFE1
   515                           
   516                           	psect	dataBANK1
   517  000183                     __pdataBANK1:
   518                           	opt stack 0
   519  000183                     _kp_inj:
   520                           	opt stack 0
   521  000183                     	ds	4
   522  000187                     _z:
   523                           	opt stack 0
   524  000187                     	ds	4
   525  00018B                     _K:
   526                           	opt stack 0
   527  00018B                     	ds	4
   528  00018F                     _SP_rpm:
   529                           	opt stack 0
   530  00018F                     	ds	4
   531  000193                     _teto_avanco:
   532                           	opt stack 0
   533  000193                     	ds	4
   534                           tblptru	equ	0xFF8
   535                           tblptrh	equ	0xFF7
   536                           tblptrl	equ	0xFF6
   537                           tablat	equ	0xFF5
   538                           postinc0	equ	0xFEE
   539                           wreg	equ	0xFE8
   540                           postdec1	equ	0xFE5
   541                           fsr1l	equ	0xFE1
   542                           
   543                           	psect	cstackBANK1
   544  00016E                     __pcstackBANK1:
   545                           	opt stack 0
   546  00016E                     ___flmul@sign:
   547                           	opt stack 0
   548                           
   549                           ; 1 bytes @ 0x0
   550  00016E                     	ds	1
   551  00016F                     ___flmul@aexp:
   552                           	opt stack 0
   553                           
   554                           ; 1 bytes @ 0x1
   555  00016F                     	ds	1
   556  000170                     ___flmul@grs:
   557                           	opt stack 0
   558                           
   559                           ; 4 bytes @ 0x2
   560  000170                     	ds	4
   561  000174                     ___flmul@bexp:
   562                           	opt stack 0
   563                           
   564                           ; 1 bytes @ 0x6
   565  000174                     	ds	1
   566  000175                     ___flmul@prod:
   567                           	opt stack 0
   568                           
   569                           ; 4 bytes @ 0x7
   570  000175                     	ds	4
   571  000179                     ___flmul@temp:
   572                           	opt stack 0
   573                           
   574                           ; 2 bytes @ 0xB
   575  000179                     	ds	2
   576  00017B                     _Control_ml_ign$3227:
   577                           	opt stack 0
   578                           
   579                           ; 4 bytes @ 0xD
   580  00017B                     	ds	4
   581  00017F                     _Control_ml_ign$3228:
   582                           	opt stack 0
   583                           
   584                           ; 4 bytes @ 0x11
   585  00017F                     	ds	4
   586                           tblptru	equ	0xFF8
   587                           tblptrh	equ	0xFF7
   588                           tblptrl	equ	0xFF6
   589                           tablat	equ	0xFF5
   590                           postinc0	equ	0xFEE
   591                           wreg	equ	0xFE8
   592                           postdec1	equ	0xFE5
   593                           fsr1l	equ	0xFE1
   594                           
   595                           	psect	cstackBANK0
   596  000060                     __pcstackBANK0:
   597                           	opt stack 0
   598  000060                     Set_Timer1@data_timer:
   599                           	opt stack 0
   600                           
   601                           ; 2 bytes @ 0x0
   602  000060                     	ds	2
   603  000062                     ??_isr:
   604                           
   605                           ; 1 bytes @ 0x2
   606  000062                     	ds	17
   607  000073                     ?___fldiv:
   608                           	opt stack 0
   609  000073                     ?___aldiv:
   610                           	opt stack 0
   611  000073                     ?___fltol:
   612                           	opt stack 0
   613  000073                     ?___xxtofl:
   614                           	opt stack 0
   615  000073                     Set_Timer5@data_timer:
   616                           	opt stack 0
   617  000073                     ___aldiv@dividend:
   618                           	opt stack 0
   619  000073                     ___flge@ff1:
   620                           	opt stack 0
   621  000073                     ___fltol@f1:
   622                           	opt stack 0
   623  000073                     ___fldiv@b:
   624                           	opt stack 0
   625  000073                     ___xxtofl@val:
   626                           	opt stack 0
   627                           
   628                           ; 4 bytes @ 0x13
   629  000073                     	ds	2
   630  000075                     
   631                           ; 1 bytes @ 0x15
   632  000075                     	ds	2
   633  000077                     ??___fltol:
   634  000077                     ??___xxtofl:
   635  000077                     ___aldiv@divisor:
   636                           	opt stack 0
   637  000077                     ___flge@ff2:
   638                           	opt stack 0
   639  000077                     ___fldiv@a:
   640                           	opt stack 0
   641                           
   642                           ; 4 bytes @ 0x17
   643  000077                     	ds	4
   644  00007B                     ??___fldiv:
   645  00007B                     ??___flge:
   646  00007B                     ___aldiv@counter:
   647                           	opt stack 0
   648  00007B                     ___fltol@sign1:
   649                           	opt stack 0
   650  00007B                     ___xxtofl@sign:
   651                           	opt stack 0
   652                           
   653                           ; 1 bytes @ 0x1B
   654  00007B                     	ds	1
   655  00007C                     ___aldiv@sign:
   656                           	opt stack 0
   657  00007C                     ___fltol@exp1:
   658                           	opt stack 0
   659  00007C                     ___xxtofl@exp:
   660                           	opt stack 0
   661                           
   662                           ; 1 bytes @ 0x1C
   663  00007C                     	ds	1
   664  00007D                     ___aldiv@quotient:
   665                           	opt stack 0
   666  00007D                     ___xxtofl@arg:
   667                           	opt stack 0
   668                           
   669                           ; 4 bytes @ 0x1D
   670  00007D                     	ds	2
   671  00007F                     ___fldiv@sign:
   672                           	opt stack 0
   673                           
   674                           ; 1 bytes @ 0x1F
   675  00007F                     	ds	1
   676  000080                     ___fldiv@rem:
   677                           	opt stack 0
   678                           
   679                           ; 4 bytes @ 0x20
   680  000080                     	ds	1
   681  000081                     ?___flneg:
   682                           	opt stack 0
   683  000081                     ___flneg@f1:
   684                           	opt stack 0
   685                           
   686                           ; 4 bytes @ 0x21
   687  000081                     	ds	3
   688  000084                     ___fldiv@new_exp:
   689                           	opt stack 0
   690                           
   691                           ; 2 bytes @ 0x24
   692  000084                     	ds	1
   693  000085                     ?___fladd:
   694                           	opt stack 0
   695  000085                     ___fladd@b:
   696                           	opt stack 0
   697                           
   698                           ; 4 bytes @ 0x25
   699  000085                     	ds	1
   700  000086                     ___fldiv@grs:
   701                           	opt stack 0
   702                           
   703                           ; 4 bytes @ 0x26
   704  000086                     	ds	3
   705  000089                     ___fladd@a:
   706                           	opt stack 0
   707                           
   708                           ; 4 bytes @ 0x29
   709  000089                     	ds	1
   710  00008A                     ___fldiv@bexp:
   711                           	opt stack 0
   712                           
   713                           ; 1 bytes @ 0x2A
   714  00008A                     	ds	1
   715  00008B                     ___fldiv@aexp:
   716                           	opt stack 0
   717                           
   718                           ; 1 bytes @ 0x2B
   719  00008B                     	ds	2
   720  00008D                     ??___fladd:
   721                           
   722                           ; 1 bytes @ 0x2D
   723  00008D                     	ds	8
   724  000095                     ___fladd@signs:
   725                           	opt stack 0
   726                           
   727                           ; 1 bytes @ 0x35
   728  000095                     	ds	1
   729  000096                     ___fladd@aexp:
   730                           	opt stack 0
   731                           
   732                           ; 1 bytes @ 0x36
   733  000096                     	ds	1
   734  000097                     ___fladd@bexp:
   735                           	opt stack 0
   736                           
   737                           ; 1 bytes @ 0x37
   738  000097                     	ds	1
   739  000098                     ___fladd@grs:
   740                           	opt stack 0
   741                           
   742                           ; 1 bytes @ 0x38
   743  000098                     	ds	1
   744  000099                     ?___flmul:
   745                           	opt stack 0
   746  000099                     ___flmul@b:
   747                           	opt stack 0
   748                           
   749                           ; 4 bytes @ 0x39
   750  000099                     	ds	4
   751  00009D                     ___flmul@a:
   752                           	opt stack 0
   753                           
   754                           ; 4 bytes @ 0x3D
   755  00009D                     	ds	4
   756  0000A1                     ??___flmul:
   757                           
   758                           ; 1 bytes @ 0x41
   759  0000A1                     	ds	4
   760  0000A5                     ??_main:
   761                           
   762                           ; 1 bytes @ 0x45
   763  0000A5                     	ds	2
   764                           tblptru	equ	0xFF8
   765                           tblptrh	equ	0xFF7
   766                           tblptrl	equ	0xFF6
   767                           tablat	equ	0xFF5
   768                           postinc0	equ	0xFEE
   769                           wreg	equ	0xFE8
   770                           postdec1	equ	0xFE5
   771                           fsr1l	equ	0xFE1
   772                           
   773                           	psect	cstackCOMRAM
   774  000001                     __pcstackCOMRAM:
   775                           	opt stack 0
   776  000001                     ??_I2C_Master_Wait:
   777  000001                     ?_Get_Timer1:
   778                           	opt stack 0
   779  000001                     ?_Make_16:
   780                           	opt stack 0
   781  000001                     ?___awdiv:
   782                           	opt stack 0
   783  000001                     ?i2___xxtofl:
   784                           	opt stack 0
   785  000001                     Make_16@data2:
   786                           	opt stack 0
   787  000001                     Set_Timer3@data_timer:
   788                           	opt stack 0
   789  000001                     Set_Timer2@data_timer:
   790                           	opt stack 0
   791  000001                     Set_Timer0@data_timer:
   792                           	opt stack 0
   793  000001                     ___awdiv@dividend:
   794                           	opt stack 0
   795  000001                     i2Set_Timer1@data_timer:
   796                           	opt stack 0
   797  000001                     i2Set_Timer5@data_timer:
   798                           	opt stack 0
   799  000001                     i2___xxtofl@val:
   800                           	opt stack 0
   801                           
   802                           ; 4 bytes @ 0x0
   803  000001                     	ds	1
   804  000002                     I2C_Transmite@dado_I2c:
   805                           	opt stack 0
   806                           
   807                           ; 1 bytes @ 0x1
   808  000002                     	ds	1
   809  000003                     ??_Get_Timer1:
   810  000003                     ??_Make_16:
   811  000003                     I2C_Leitura_Multiplos_Endereco@cont_b:
   812                           	opt stack 0
   813  000003                     ___awdiv@divisor:
   814                           	opt stack 0
   815                           
   816                           ; 2 bytes @ 0x2
   817  000003                     	ds	1
   818  000004                     I2C_Leitura_Multiplos_Endereco@endereco:
   819                           	opt stack 0
   820                           
   821                           ; 1 bytes @ 0x3
   822  000004                     	ds	1
   823  000005                     ??_I2C_Leitura_Multiplos_Endereco:
   824  000005                     ??i2___xxtofl:
   825  000005                     Make_16@data1:
   826                           	opt stack 0
   827  000005                     ___awdiv@counter:
   828                           	opt stack 0
   829  000005                     Get_Timer1@Data:
   830                           	opt stack 0
   831                           
   832                           ; 2 bytes @ 0x4
   833  000005                     	ds	1
   834  000006                     ___awdiv@sign:
   835                           	opt stack 0
   836                           
   837                           ; 1 bytes @ 0x5
   838  000006                     	ds	1
   839  000007                     ___awdiv@quotient:
   840                           	opt stack 0
   841                           
   842                           ; 2 bytes @ 0x6
   843  000007                     	ds	2
   844  000009                     i2___xxtofl@sign:
   845                           	opt stack 0
   846                           
   847                           ; 1 bytes @ 0x8
   848  000009                     	ds	1
   849  00000A                     i2___xxtofl@exp:
   850                           	opt stack 0
   851                           
   852                           ; 1 bytes @ 0x9
   853  00000A                     	ds	1
   854  00000B                     i2___xxtofl@arg:
   855                           	opt stack 0
   856                           
   857                           ; 4 bytes @ 0xA
   858  00000B                     	ds	1
   859  00000C                     I2C_Leitura_Multiplos_Endereco@end_i2c:
   860                           	opt stack 0
   861                           
   862                           ; 1 bytes @ 0xB
   863  00000C                     	ds	1
   864  00000D                     I2C_Leitura_Multiplos_Endereco@cont:
   865                           	opt stack 0
   866                           
   867                           ; 1 bytes @ 0xC
   868  00000D                     	ds	2
   869  00000F                     ?i2___flmul:
   870                           	opt stack 0
   871  00000F                     i2___flmul@b:
   872                           	opt stack 0
   873                           
   874                           ; 4 bytes @ 0xE
   875  00000F                     	ds	4
   876  000013                     i2___flmul@a:
   877                           	opt stack 0
   878                           
   879                           ; 4 bytes @ 0x12
   880  000013                     	ds	4
   881  000017                     ??i2___flmul:
   882                           
   883                           ; 1 bytes @ 0x16
   884  000017                     	ds	4
   885  00001B                     i2___flmul@sign:
   886                           	opt stack 0
   887                           
   888                           ; 1 bytes @ 0x1A
   889  00001B                     	ds	1
   890  00001C                     i2___flmul@aexp:
   891                           	opt stack 0
   892                           
   893                           ; 1 bytes @ 0x1B
   894  00001C                     	ds	1
   895  00001D                     i2___flmul@grs:
   896                           	opt stack 0
   897                           
   898                           ; 4 bytes @ 0x1C
   899  00001D                     	ds	4
   900  000021                     i2___flmul@bexp:
   901                           	opt stack 0
   902                           
   903                           ; 1 bytes @ 0x20
   904  000021                     	ds	1
   905  000022                     i2___flmul@prod:
   906                           	opt stack 0
   907                           
   908                           ; 4 bytes @ 0x21
   909  000022                     	ds	4
   910  000026                     i2___flmul@temp:
   911                           	opt stack 0
   912                           
   913                           ; 2 bytes @ 0x25
   914  000026                     	ds	2
   915  000028                     ?i2___fldiv:
   916                           	opt stack 0
   917  000028                     i2___fldiv@b:
   918                           	opt stack 0
   919                           
   920                           ; 4 bytes @ 0x27
   921  000028                     	ds	4
   922  00002C                     i2___fldiv@a:
   923                           	opt stack 0
   924                           
   925                           ; 4 bytes @ 0x2B
   926  00002C                     	ds	4
   927  000030                     ??i2___fldiv:
   928                           
   929                           ; 1 bytes @ 0x2F
   930  000030                     	ds	4
   931  000034                     i2___fldiv@sign:
   932                           	opt stack 0
   933                           
   934                           ; 1 bytes @ 0x33
   935  000034                     	ds	1
   936  000035                     i2___fldiv@rem:
   937                           	opt stack 0
   938                           
   939                           ; 4 bytes @ 0x34
   940  000035                     	ds	4
   941  000039                     i2___fldiv@new_exp:
   942                           	opt stack 0
   943                           
   944                           ; 2 bytes @ 0x38
   945  000039                     	ds	2
   946  00003B                     i2___fldiv@grs:
   947                           	opt stack 0
   948                           
   949                           ; 4 bytes @ 0x3A
   950  00003B                     	ds	4
   951  00003F                     i2___fldiv@bexp:
   952                           	opt stack 0
   953                           
   954                           ; 1 bytes @ 0x3E
   955  00003F                     	ds	1
   956  000040                     i2___fldiv@aexp:
   957                           	opt stack 0
   958                           
   959                           ; 1 bytes @ 0x3F
   960  000040                     	ds	1
   961  000041                     ?i2___fltol:
   962                           	opt stack 0
   963  000041                     i2___fltol@f1:
   964                           	opt stack 0
   965                           
   966                           ; 4 bytes @ 0x40
   967  000041                     	ds	4
   968  000045                     ??i2___fltol:
   969                           
   970                           ; 1 bytes @ 0x44
   971  000045                     	ds	4
   972  000049                     i2___fltol@sign1:
   973                           	opt stack 0
   974                           
   975                           ; 1 bytes @ 0x48
   976  000049                     	ds	1
   977  00004A                     i2___fltol@exp1:
   978                           	opt stack 0
   979                           
   980                           ; 1 bytes @ 0x49
   981  00004A                     	ds	1
   982  00004B                     ??_conta_dente:
   983                           
   984                           ; 1 bytes @ 0x4A
   985  00004B                     	ds	4
   986  00004F                     ??_isr2:
   987                           
   988                           ; 1 bytes @ 0x4E
   989  00004F                     	ds	16
   990                           tblptru	equ	0xFF8
   991                           tblptrh	equ	0xFF7
   992                           tblptrl	equ	0xFF6
   993                           tablat	equ	0xFF5
   994                           postinc0	equ	0xFEE
   995                           wreg	equ	0xFE8
   996                           postdec1	equ	0xFE5
   997                           fsr1l	equ	0xFE1
   998                           
   999 ;;
  1000 ;;Main: autosize = 0, tempsize = 2, incstack = 0, save=0
  1001 ;;
  1002 ;; *************** function _main *****************
  1003 ;; Defined at:
  1004 ;;		line 1055 in file "main.c"
  1005 ;; Parameters:    Size  Location     Type
  1006 ;;		None
  1007 ;; Auto vars:     Size  Location     Type
  1008 ;;		None
  1009 ;; Return value:  Size  Location     Type
  1010 ;;                  1    wreg      void 
  1011 ;; Registers used:
  1012 ;;		wreg, status,2, status,0, prodl, prodh, cstack
  1013 ;; Tracked objects:
  1014 ;;		On entry : 0/0
  1015 ;;		On exit  : 0/0
  1016 ;;		Unchanged: 0/0
  1017 ;; Data sizes:     COMRAM   BANK0   BANK1   BANK2   BANK3   BANK4   BANK5   BANK6   BANK7   BANK8   BANK9  BANK10  BANK1
      +1  BANK12  BANK13  BANK14  BANK15
  1018 ;;      Params:         0       0       0       0       0       0       0       0       0       0       0       0       
      +0       0       0       0       0
  1019 ;;      Locals:         0       0       0       0       0       0       0       0       0       0       0       0       
      +0       0       0       0       0
  1020 ;;      Temps:          0       2       0       0       0       0       0       0       0       0       0       0       
      +0       0       0       0       0
  1021 ;;      Totals:         0       2       0       0       0       0       0       0       0       0       0       0       
      +0       0       0       0       0
  1022 ;;Total ram usage:        2 bytes
  1023 ;; Hardware stack levels required when called:    9
  1024 ;; This function calls:
  1025 ;;		_Configure_HW
  1026 ;;		_Control_ml_ign
  1027 ;;		_I2C_Master_Init
  1028 ;;		_Set_Timer5
  1029 ;;		___aldiv
  1030 ;;		___fladd
  1031 ;;		___fldiv
  1032 ;;		___flge
  1033 ;;		___flmul
  1034 ;;		___flneg
  1035 ;;		___fltol
  1036 ;;		___xxtofl
  1037 ;; This function is called by:
  1038 ;;		Startup code after reset
  1039 ;; This function uses a non-reentrant model
  1040 ;;
  1041                           
  1042                           	psect	text0
  1043  000F04                     __ptext0:
  1044                           	opt stack 0
  1045  000F04                     _main:
  1046                           	opt stack 22
  1047                           
  1048                           ;main.c: 1057: Configure_HW();
  1049                           
  1050                           ;incstack = 0
  1051  000F04  EC2C  F019         	call	_Configure_HW	;wreg free
  1052                           
  1053                           ;main.c: 1062: PIE5bits.TMR5IE = 1;
  1054  000F08  827D               	bsf	3965,1,c	;volatile
  1055                           
  1056                           ;main.c: 1063: IPR5bits.TMR5IP = 1;
  1057  000F0A  827F               	bsf	3967,1,c	;volatile
  1058                           
  1059                           ;main.c: 1065: (PIE5bits.TMR5IE = 0);
  1060  000F0C  927D               	bcf	3965,1,c	;volatile
  1061                           
  1062                           ;main.c: 1068: t_periodo = 65530;
  1063                           
  1064                           ;main.c: 1066: reset:
  1065  000F0E  0EFA               	movlw	250
  1066  000F10  0101               	movlb	1	; () banked
  1067  000F12  6F44               	movwf	_t_periodo& (0+255),b
  1068  000F14  0EFF               	movlw	255
  1069  000F16  6F45               	movwf	(_t_periodo+1)& (0+255),b
  1070  000F18  0E00               	movlw	0
  1071  000F1A  6F46               	movwf	(_t_periodo+2)& (0+255),b
  1072  000F1C  0E00               	movlw	0
  1073  000F1E  6F47               	movwf	(_t_periodo+3)& (0+255),b
  1074                           
  1075                           ; BSR set to: 1
  1076                           ;main.c: 1069: t_periodo_ref = 65535;
  1077  000F20  0EFF               	movlw	255
  1078  000F22  0101               	movlb	1	; () banked
  1079  000F24  6F40               	movwf	_t_periodo_ref& (0+255),b
  1080  000F26  0EFF               	movlw	255
  1081  000F28  6F41               	movwf	(_t_periodo_ref+1)& (0+255),b
  1082  000F2A  0E00               	movlw	0
  1083  000F2C  6F42               	movwf	(_t_periodo_ref+2)& (0+255),b
  1084  000F2E  0E00               	movlw	0
  1085  000F30  6F43               	movwf	(_t_periodo_ref+3)& (0+255),b
  1086                           
  1087                           ; BSR set to: 1
  1088                           ;main.c: 1071: dente = 255;
  1089  000F32  0E00               	movlw	0
  1090  000F34  0100               	movlb	0	; () banked
  1091  000F36  6FE6               	movwf	(_dente+1)& (0+255),b
  1092  000F38  69E5               	setf	_dente& (0+255),b
  1093                           
  1094                           ; BSR set to: 0
  1095                           ;main.c: 1072: ig_pos = 0;
  1096  000F3A  0E00               	movlw	0
  1097  000F3C  0100               	movlb	0	; () banked
  1098  000F3E  6FE4               	movwf	(_ig_pos+1)& (0+255),b
  1099  000F40  0E00               	movlw	0
  1100  000F42  6FE3               	movwf	_ig_pos& (0+255),b
  1101                           
  1102                           ; BSR set to: 0
  1103                           ;main.c: 1073: ij23_pos = ij14_pos = 0;
  1104  000F44  0E00               	movlw	0
  1105  000F46  0100               	movlb	0	; () banked
  1106  000F48  6FE2               	movwf	(_ij14_pos+1)& (0+255),b
  1107  000F4A  0E00               	movlw	0
  1108  000F4C  6FE1               	movwf	_ij14_pos& (0+255),b
  1109  000F4E  C0E1  F0DF         	movff	_ij14_pos,_ij23_pos
  1110  000F52  C0E2  F0E0         	movff	_ij14_pos+1,_ij23_pos+1
  1111                           
  1112                           ; BSR set to: 0
  1113                           ;main.c: 1074: ig_tmr_disparo = 0;
  1114  000F56  0E00               	movlw	0
  1115  000F58  0100               	movlb	0	; () banked
  1116  000F5A  6FDA               	movwf	(_ig_tmr_disparo+1)& (0+255),b
  1117  000F5C  0E00               	movlw	0
  1118  000F5E  6FD9               	movwf	_ig_tmr_disparo& (0+255),b
  1119                           
  1120                           ; BSR set to: 0
  1121                           ;main.c: 1075: ij_tmr_disparo = 0;
  1122  000F60  0E00               	movlw	0
  1123  000F62  0100               	movlb	0	; () banked
  1124  000F64  6FB3               	movwf	_ij_tmr_disparo& (0+255),b
  1125  000F66  0E00               	movlw	0
  1126  000F68  6FB4               	movwf	(_ij_tmr_disparo+1)& (0+255),b
  1127  000F6A  0E00               	movlw	0
  1128  000F6C  6FB5               	movwf	(_ij_tmr_disparo+2)& (0+255),b
  1129  000F6E  0E00               	movlw	0
  1130  000F70  6FB6               	movwf	(_ij_tmr_disparo+3)& (0+255),b
  1131                           
  1132                           ; BSR set to: 0
  1133                           ;main.c: 1076: ig_dente_23 = 200;
  1134  000F72  0E00               	movlw	0
  1135  000F74  0100               	movlb	0	; () banked
  1136  000F76  6FD6               	movwf	(_ig_dente_23+1)& (0+255),b
  1137  000F78  0EC8               	movlw	200
  1138  000F7A  6FD5               	movwf	_ig_dente_23& (0+255),b
  1139                           
  1140                           ; BSR set to: 0
  1141                           ;main.c: 1077: ig_dente_14 = 200;
  1142  000F7C  0E00               	movlw	0
  1143  000F7E  0100               	movlb	0	; () banked
  1144  000F80  6FD2               	movwf	(_ig_dente_14+1)& (0+255),b
  1145  000F82  0EC8               	movlw	200
  1146  000F84  6FD1               	movwf	_ig_dente_14& (0+255),b
  1147                           
  1148                           ; BSR set to: 0
  1149                           ;main.c: 1078: ij_dente_14 = 200;
  1150  000F86  0E00               	movlw	0
  1151  000F88  0100               	movlb	0	; () banked
  1152  000F8A  6FCA               	movwf	(_ij_dente_14+1)& (0+255),b
  1153  000F8C  0EC8               	movlw	200
  1154  000F8E  6FC9               	movwf	_ij_dente_14& (0+255),b
  1155                           
  1156                           ; BSR set to: 0
  1157                           ;main.c: 1079: ij_dente_23 = 200;
  1158  000F90  0E00               	movlw	0
  1159  000F92  0100               	movlb	0	; () banked
  1160  000F94  6FC6               	movwf	(_ij_dente_23+1)& (0+255),b
  1161  000F96  0EC8               	movlw	200
  1162  000F98  6FC5               	movwf	_ij_dente_23& (0+255),b
  1163                           
  1164                           ; BSR set to: 0
  1165                           ;main.c: 1080: ig_dente_23_ant = 200;
  1166  000F9A  0E00               	movlw	0
  1167  000F9C  0100               	movlb	0	; () banked
  1168  000F9E  6FD4               	movwf	(_ig_dente_23_ant+1)& (0+255),b
  1169  000FA0  0EC8               	movlw	200
  1170  000FA2  6FD3               	movwf	_ig_dente_23_ant& (0+255),b
  1171                           
  1172                           ; BSR set to: 0
  1173                           ;main.c: 1081: ig_dente_14_ant = 200;
  1174  000FA4  0E00               	movlw	0
  1175  000FA6  0100               	movlb	0	; () banked
  1176  000FA8  6FD0               	movwf	(_ig_dente_14_ant+1)& (0+255),b
  1177  000FAA  0EC8               	movlw	200
  1178  000FAC  6FCF               	movwf	_ig_dente_14_ant& (0+255),b
  1179                           
  1180                           ; BSR set to: 0
  1181                           ;main.c: 1082: ij_dente_14_ant = 200;
  1182  000FAE  0E00               	movlw	0
  1183  000FB0  0100               	movlb	0	; () banked
  1184  000FB2  6FC8               	movwf	(_ij_dente_14_ant+1)& (0+255),b
  1185  000FB4  0EC8               	movlw	200
  1186  000FB6  6FC7               	movwf	_ij_dente_14_ant& (0+255),b
  1187                           
  1188                           ; BSR set to: 0
  1189                           ;main.c: 1083: ij_dente_23_ant = 200;
  1190  000FB8  0E00               	movlw	0
  1191  000FBA  0100               	movlb	0	; () banked
  1192  000FBC  6FC4               	movwf	(_ij_dente_23_ant+1)& (0+255),b
  1193  000FBE  0EC8               	movlw	200
  1194  000FC0  6FC3               	movwf	_ij_dente_23_ant& (0+255),b
  1195                           
  1196                           ; BSR set to: 0
  1197                           ;main.c: 1084: spi_ctr = 0;
  1198  000FC2  0E00               	movlw	0
  1199  000FC4  0101               	movlb	1	; () banked
  1200  000FC6  6F59               	movwf	(_spi_ctr+1)& (0+255),b
  1201  000FC8  0E00               	movlw	0
  1202  000FCA  6F58               	movwf	_spi_ctr& (0+255),b
  1203                           
  1204                           ; BSR set to: 1
  1205                           ;main.c: 1085: rotacao = 0;
  1206  000FCC  0E00               	movlw	0
  1207  000FCE  0100               	movlb	0	; () banked
  1208  000FD0  6FC0               	movwf	(_rotacao+1)& (0+255),b
  1209  000FD2  0E00               	movlw	0
  1210  000FD4  6FBF               	movwf	_rotacao& (0+255),b
  1211                           
  1212                           ; BSR set to: 0
  1213                           ;main.c: 1086: rotacao_ant = 0;
  1214  000FD6  0E00               	movlw	0
  1215  000FD8  0100               	movlb	0	; () banked
  1216  000FDA  6FBE               	movwf	(_rotacao_ant+1)& (0+255),b
  1217  000FDC  0E00               	movlw	0
  1218  000FDE  6FBD               	movwf	_rotacao_ant& (0+255),b
  1219                           
  1220                           ; BSR set to: 0
  1221                           ;main.c: 1088: volta14 = volta23 = 0;
  1222  000FE0  0E00               	movlw	0
  1223  000FE2  0100               	movlb	0	; () banked
  1224  000FE4  6FDC               	movwf	(_volta23+1)& (0+255),b
  1225  000FE6  0E00               	movlw	0
  1226  000FE8  6FDB               	movwf	_volta23& (0+255),b
  1227  000FEA  C0DB  F0DD         	movff	_volta23,_volta14
  1228  000FEE  C0DC  F0DE         	movff	_volta23+1,_volta14+1
  1229                           
  1230                           ; BSR set to: 0
  1231                           ;main.c: 1089: falha_ok = 0;
  1232  000FF2  0E00               	movlw	0
  1233  000FF4  0101               	movlb	1	; () banked
  1234  000FF6  6F55               	movwf	(_falha_ok+1)& (0+255),b
  1235  000FF8  0E00               	movlw	0
  1236  000FFA  6F54               	movwf	_falha_ok& (0+255),b
  1237                           
  1238                           ; BSR set to: 1
  1239                           ;main.c: 1090: fase_ok = 0;
  1240  000FFC  0E00               	movlw	0
  1241  000FFE  0101               	movlb	1	; () banked
  1242  001000  6F57               	movwf	(_fase_ok+1)& (0+255),b
  1243  001002  0E00               	movlw	0
  1244  001004  6F56               	movwf	_fase_ok& (0+255),b
  1245                           
  1246                           ; BSR set to: 1
  1247                           ;main.c: 1091: sinal_fase = 0;
  1248  001006  0E00               	movlw	0
  1249  001008  0100               	movlb	0	; () banked
  1250  00100A  6FBC               	movwf	(_sinal_fase+1)& (0+255),b
  1251  00100C  0E00               	movlw	0
  1252  00100E  6FBB               	movwf	_sinal_fase& (0+255),b
  1253                           
  1254                           ; BSR set to: 0
  1255                           ;main.c: 1092: cutoff = 0;
  1256  001010  0E00               	movlw	0
  1257  001012  0100               	movlb	0	; () banked
  1258  001014  6FBA               	movwf	(_cutoff+1)& (0+255),b
  1259  001016  0E00               	movlw	0
  1260  001018  6FB9               	movwf	_cutoff& (0+255),b
  1261                           
  1262                           ; BSR set to: 0
  1263                           ;main.c: 1094: LATEbits.LATE0 = 1;
  1264  00101A  808D               	bsf	3981,0,c	;volatile
  1265                           
  1266                           ; BSR set to: 0
  1267                           ;main.c: 1096: LATBbits.LATB3 = 0;
  1268  00101C  968A               	bcf	3978,3,c	;volatile
  1269                           
  1270                           ; BSR set to: 0
  1271                           ;main.c: 1097: LATBbits.LATB4 = 0;
  1272  00101E  988A               	bcf	3978,4,c	;volatile
  1273                           
  1274                           ; BSR set to: 0
  1275                           ;main.c: 1098: LATBbits.LATB2 = 0;
  1276  001020  948A               	bcf	3978,2,c	;volatile
  1277                           
  1278                           ; BSR set to: 0
  1279                           ;main.c: 1099: LATCbits.LATC2 = 0;
  1280  001022  948B               	bcf	3979,2,c	;volatile
  1281                           
  1282                           ; BSR set to: 0
  1283                           ;main.c: 1100: LATAbits.LATA4 = 0;
  1284  001024  9889               	bcf	3977,4,c	;volatile
  1285                           
  1286                           ; BSR set to: 0
  1287                           ;main.c: 1101: LATBbits.LATB4 = 0;
  1288  001026  988A               	bcf	3978,4,c	;volatile
  1289                           
  1290                           ; BSR set to: 0
  1291                           ;main.c: 1108: LATDbits.LATD6 = 0;
  1292  001028  9C8C               	bcf	3980,6,c	;volatile
  1293                           
  1294                           ; BSR set to: 0
  1295                           ;main.c: 1109: LATDbits.LATD7 = 0;
  1296  00102A  9E8C               	bcf	3980,7,c	;volatile
  1297                           
  1298                           ; BSR set to: 0
  1299                           ;main.c: 1111: LATCbits.LATC0 = 0;
  1300  00102C  908B               	bcf	3979,0,c	;volatile
  1301                           
  1302                           ; BSR set to: 0
  1303                           ;main.c: 1112: LATCbits.LATC1 = 0;
  1304  00102E  928B               	bcf	3979,1,c	;volatile
  1305                           
  1306                           ; BSR set to: 0
  1307                           ;main.c: 1114: RCONbits.IPEN = 1;
  1308  001030  8ED0               	bsf	4048,7,c	;volatile
  1309                           
  1310                           ; BSR set to: 0
  1311                           ;main.c: 1115: TMR0IP = 1;
  1312  001032  84F1               	bsf	intcon2,2,c	;volatile
  1313                           
  1314                           ; BSR set to: 0
  1315                           ;main.c: 1116: TMR1IP = 0;
  1316  001034  909F               	bcf	3999,0,c	;volatile
  1317                           
  1318                           ; BSR set to: 0
  1319                           ;main.c: 1117: TMR3IP = 1;
  1320  001036  82A2               	bsf	4002,1,c	;volatile
  1321                           
  1322                           ; BSR set to: 0
  1323                           ;main.c: 1118: TMR2IP = 1;
  1324  001038  829F               	bsf	3999,1,c	;volatile
  1325                           
  1326                           ; BSR set to: 0
  1327                           ;main.c: 1124: LATDbits.LATD2 = 0;
  1328  00103A  948C               	bcf	3980,2,c	;volatile
  1329                           
  1330                           ; BSR set to: 0
  1331                           ;main.c: 1125: LATDbits.LATD3 = 0;
  1332  00103C  968C               	bcf	3980,3,c	;volatile
  1333                           
  1334                           ; BSR set to: 0
  1335                           ;main.c: 1126: LATDbits.LATD4 = 0;
  1336  00103E  988C               	bcf	3980,4,c	;volatile
  1337                           
  1338                           ; BSR set to: 0
  1339                           ;main.c: 1127: LATDbits.LATD5 = 0;
  1340  001040  9A8C               	bcf	3980,5,c	;volatile
  1341                           
  1342                           ; BSR set to: 0
  1343                           ;main.c: 1128: Chave_controle_geral = 0;
  1344  001042  0100               	movlb	0	; () banked
  1345  001044  91E8               	bcf	(_Chave_controle_geral/(0+8))& (0+255),_Chave_controle_geral& (0+7),b
  1346                           
  1347                           ; BSR set to: 0
  1348                           ;main.c: 1129: (INTCONbits.GIE = 1);
  1349  001046  8EF2               	bsf	intcon,7,c	;volatile
  1350                           
  1351                           ; BSR set to: 0
  1352                           ;main.c: 1130: (INTCONbits.PEIE = 1);
  1353  001048  8CF2               	bsf	intcon,6,c	;volatile
  1354                           
  1355                           ; BSR set to: 0
  1356                           ;main.c: 1131: (INTCONbits.INT0IE = 1);
  1357  00104A  88F2               	bsf	intcon,4,c	;volatile
  1358                           
  1359                           ; BSR set to: 0
  1360                           ;main.c: 1132: (PIE5bits.TMR5IE = 0);
  1361  00104C  927D               	bcf	3965,1,c	;volatile
  1362                           
  1363                           ; BSR set to: 0
  1364                           ;main.c: 1147: dm = 0;
  1365  00104E  0E00               	movlw	0
  1366  001050  0101               	movlb	1	; () banked
  1367  001052  6F5F               	movwf	(_dm+1)& (0+255),b
  1368  001054  0E00               	movlw	0
  1369  001056  6F5E               	movwf	_dm& (0+255),b
  1370                           
  1371                           ; BSR set to: 1
  1372                           ;main.c: 1148: STKFUL = 0;
  1373  001058  9EFC               	bcf	stkptr,7,c	;volatile
  1374                           
  1375                           ; BSR set to: 1
  1376                           ;main.c: 1150: LATAbits.LATA2 = 1;
  1377  00105A  8489               	bsf	3977,2,c	;volatile
  1378                           
  1379                           ; BSR set to: 1
  1380                           ;main.c: 1151: LATAbits.LATA2 = 1;
  1381  00105C  8489               	bsf	3977,2,c	;volatile
  1382                           
  1383                           ;main.c: 1152: I2C_Master_Init();
  1384  00105E  ECA4  F019         	call	_I2C_Master_Init	;wreg free
  1385  001062                     l7169:
  1386                           
  1387                           ;main.c: 1154: {
  1388                           ;main.c: 1155: if (rotacao_peralta > 500)
  1389  001062  0100               	movlb	0	; () banked
  1390  001064  BFCC               	btfsc	(_rotacao_peralta+1)& (0+255),7,b
  1391  001066  D1B3               	goto	l395
  1392  001068  0EF5               	movlw	245
  1393  00106A  0100               	movlb	0	; () banked
  1394  00106C  5DCB               	subwf	_rotacao_peralta& (0+255),w,b
  1395  00106E  0E01               	movlw	1
  1396  001070  0100               	movlb	0	; () banked
  1397  001072  59CC               	subwfb	(_rotacao_peralta+1)& (0+255),w,b
  1398  001074  A0D8               	btfss	status,0,c
  1399  001076  D1AB               	goto	l395
  1400                           
  1401                           ; BSR set to: 0
  1402                           ;main.c: 1156: {
  1403                           ;main.c: 1157: ADCON0 = 0b00000001;
  1404  001078  0E01               	movlw	1
  1405  00107A  6EC2               	movwf	4034,c	;volatile
  1406                           
  1407                           ; BSR set to: 0
  1408                           ;main.c: 1158: ADCON0bits.GO = 1;
  1409  00107C  82C2               	bsf	4034,1,c	;volatile
  1410  00107E                     l396:
  1411  00107E  B2C2               	btfsc	4034,1,c	;volatile
  1412  001080  D7FE               	goto	l396
  1413                           
  1414                           ;main.c: 1161: };
  1415                           ;main.c: 1163: pedal_ad = ADRESH * 256 + ADRESL;
  1416  001082  50C4               	movf	4036,w,c	;volatile
  1417  001084  0100               	movlb	0	; () banked
  1418  001086  6FA6               	movwf	(??_main+1)& (0+255),b
  1419  001088  6BA5               	clrf	??_main& (0+255),b
  1420  00108A  50C3               	movf	4035,w,c	;volatile
  1421  00108C  0100               	movlb	0	; () banked
  1422  00108E  25A5               	addwf	??_main& (0+255),w,b
  1423  001090  0101               	movlb	1	; () banked
  1424  001092  6F4E               	movwf	_pedal_ad& (0+255),b
  1425  001094  0E00               	movlw	0
  1426  001096  0100               	movlb	0	; () banked
  1427  001098  21A6               	addwfc	(??_main+1)& (0+255),w,b
  1428  00109A  0101               	movlb	1	; () banked
  1429  00109C  6F4F               	movwf	(_pedal_ad+1)& (0+255),b
  1430                           
  1431                           ;main.c: 1165: if (pedal_ad > 155)
  1432  00109E  0101               	movlb	1	; () banked
  1433  0010A0  514F               	movf	(_pedal_ad+1)& (0+255),w,b
  1434  0010A2  E105               	bnz	u8340
  1435  0010A4  0E9C               	movlw	156
  1436  0010A6  0101               	movlb	1	; () banked
  1437  0010A8  5D4E               	subwf	_pedal_ad& (0+255),w,b
  1438  0010AA  A0D8               	btfss	status,0,c
  1439  0010AC  D009               	goto	l399
  1440  0010AE                     u8340:
  1441                           
  1442                           ; BSR set to: 1
  1443                           ;main.c: 1166: {
  1444                           ;main.c: 1168: cutoff = 0;
  1445  0010AE  0E00               	movlw	0
  1446  0010B0  0100               	movlb	0	; () banked
  1447  0010B2  6FBA               	movwf	(_cutoff+1)& (0+255),b
  1448  0010B4  0E00               	movlw	0
  1449  0010B6  6FB9               	movwf	_cutoff& (0+255),b
  1450                           
  1451                           ; BSR set to: 0
  1452                           ;main.c: 1170: Chave_controle_geral = 0;
  1453  0010B8  0100               	movlb	0	; () banked
  1454  0010BA  91E8               	bcf	(_Chave_controle_geral/(0+8))& (0+255),_Chave_controle_geral& (0+7),b
  1455                           
  1456                           ; BSR set to: 0
  1457                           ;main.c: 1171: (PIE5bits.TMR5IE = 0);
  1458  0010BC  927D               	bcf	3965,1,c	;volatile
  1459                           
  1460                           ;main.c: 1173: }
  1461  0010BE  D00F               	goto	l7189
  1462  0010C0                     l399:
  1463                           
  1464                           ; BSR set to: 1
  1465                           ;main.c: 1175: else
  1466                           ;main.c: 1176: {
  1467                           ;main.c: 1189: if (Chave_controle_geral == 0)
  1468  0010C0  0100               	movlb	0	; () banked
  1469  0010C2  B1E8               	btfsc	(_Chave_controle_geral/(0+8))& (0+255),_Chave_controle_geral& (0+7),b
  1470  0010C4  D00C               	goto	l7189
  1471                           
  1472                           ; BSR set to: 0
  1473                           ;main.c: 1190: {
  1474                           ;main.c: 1191: Chave_controle_geral = 1;
  1475  0010C6  0100               	movlb	0	; () banked
  1476  0010C8  81E8               	bsf	(_Chave_controle_geral/(0+8))& (0+255),_Chave_controle_geral& (0+7),b
  1477                           
  1478                           ;main.c: 1194: T5CONbits.TMR5ON = 1;
  1479  0010CA  010F               	movlb	15	; () banked
  1480  0010CC  814E               	bsf	78,0,b	;volatile
  1481                           
  1482                           ; BSR set to: 15
  1483                           ;main.c: 1195: Set_Timer5(15535);
  1484  0010CE  0E3C               	movlw	60
  1485  0010D0  0100               	movlb	0	; () banked
  1486  0010D2  6F74               	movwf	(Set_Timer5@data_timer+1)& (0+255),b
  1487  0010D4  0EAF               	movlw	175
  1488  0010D6  6F73               	movwf	Set_Timer5@data_timer& (0+255),b
  1489  0010D8  ECFB  F019         	call	_Set_Timer5	;wreg free
  1490                           
  1491                           ;main.c: 1196: (PIE5bits.TMR5IE = 1);
  1492  0010DC  827D               	bsf	3965,1,c	;volatile
  1493  0010DE                     l7189:
  1494                           
  1495                           ;main.c: 1197: }
  1496                           ;main.c: 1203: }
  1497                           ;main.c: 1205: if (Chave_controle_geral == 1)
  1498  0010DE  0100               	movlb	0	; () banked
  1499  0010E0  A1E8               	btfss	(_Chave_controle_geral/(0+8))& (0+255),_Chave_controle_geral& (0+7),b
  1500  0010E2  D7BF               	goto	l7169
  1501                           
  1502                           ; BSR set to: 0
  1503                           ;main.c: 1206: {
  1504                           ;main.c: 1208: if (Enable_control_ign == 1)
  1505  0010E4  0100               	movlb	0	; () banked
  1506  0010E6  A3E8               	btfss	(_Enable_control_ign/(0+8))& (0+255),_Enable_control_ign& (0+7),b
  1507  0010E8  D7BC               	goto	l7169
  1508                           
  1509                           ; BSR set to: 0
  1510                           ;main.c: 1209: {
  1511                           ;main.c: 1211: Enable_control_ign = 0;
  1512  0010EA  0100               	movlb	0	; () banked
  1513  0010EC  93E8               	bcf	(_Enable_control_ign/(0+8))& (0+255),_Enable_control_ign& (0+7),b
  1514                           
  1515                           ; BSR set to: 0
  1516                           ;main.c: 1212: Control_ml_ign();
  1517  0010EE  EC78  F013         	call	_Control_ml_ign	;wreg free
  1518                           
  1519                           ;main.c: 1214: dente_controle = u / 6;
  1520  0010F2  C0AF  F073         	movff	_u,___fldiv@b
  1521  0010F6  C0B0  F074         	movff	_u+1,___fldiv@b+1
  1522  0010FA  C0B1  F075         	movff	_u+2,___fldiv@b+2
  1523  0010FE  C0B2  F076         	movff	_u+3,___fldiv@b+3
  1524  001102  0E00               	movlw	0
  1525  001104  0100               	movlb	0	; () banked
  1526  001106  6F77               	movwf	___fldiv@a& (0+255),b
  1527  001108  0E00               	movlw	0
  1528  00110A  6F78               	movwf	(___fldiv@a+1)& (0+255),b
  1529  00110C  0EC0               	movlw	192
  1530  00110E  6F79               	movwf	(___fldiv@a+2)& (0+255),b
  1531  001110  0E40               	movlw	64
  1532  001112  6F7A               	movwf	(___fldiv@a+3)& (0+255),b
  1533  001114  EC96  F00E         	call	___fldiv	;wreg free
  1534  001118  C073  F130         	movff	?___fldiv,_dente_controle
  1535  00111C  C074  F131         	movff	?___fldiv+1,_dente_controle+1
  1536  001120  C075  F132         	movff	?___fldiv+2,_dente_controle+2
  1537  001124  C076  F133         	movff	?___fldiv+3,_dente_controle+3
  1538                           
  1539                           ;main.c: 1215: dente_controle = 14 - dente_controle;
  1540  001128  C130  F081         	movff	_dente_controle,___flneg@f1
  1541  00112C  C131  F082         	movff	_dente_controle+1,___flneg@f1+1
  1542  001130  C132  F083         	movff	_dente_controle+2,___flneg@f1+2
  1543  001134  C133  F084         	movff	_dente_controle+3,___flneg@f1+3
  1544  001138  EC53  F019         	call	___flneg	;wreg free
  1545  00113C  C081  F085         	movff	?___flneg,___fladd@b
  1546  001140  C082  F086         	movff	?___flneg+1,___fladd@b+1
  1547  001144  C083  F087         	movff	?___flneg+2,___fladd@b+2
  1548  001148  C084  F088         	movff	?___flneg+3,___fladd@b+3
  1549  00114C  0E00               	movlw	0
  1550  00114E  0100               	movlb	0	; () banked
  1551  001150  6F89               	movwf	___fladd@a& (0+255),b
  1552  001152  0E00               	movlw	0
  1553  001154  6F8A               	movwf	(___fladd@a+1)& (0+255),b
  1554  001156  0E60               	movlw	96
  1555  001158  6F8B               	movwf	(___fladd@a+2)& (0+255),b
  1556  00115A  0E41               	movlw	65
  1557  00115C  6F8C               	movwf	(___fladd@a+3)& (0+255),b
  1558  00115E  ECEF  F009         	call	___fladd	;wreg free
  1559  001162  C085  F130         	movff	?___fladd,_dente_controle
  1560  001166  C086  F131         	movff	?___fladd+1,_dente_controle+1
  1561  00116A  C087  F132         	movff	?___fladd+2,_dente_controle+2
  1562  00116E  C088  F133         	movff	?___fladd+3,_dente_controle+3
  1563                           
  1564                           ;main.c: 1216: n_controle = 10000 / periodo_peralta;
  1565  001172  0E10               	movlw	16
  1566  001174  0100               	movlb	0	; () banked
  1567  001176  6F73               	movwf	___aldiv@dividend& (0+255),b
  1568  001178  0E27               	movlw	39
  1569  00117A  6F74               	movwf	(___aldiv@dividend+1)& (0+255),b
  1570  00117C  0E00               	movlw	0
  1571  00117E  6F75               	movwf	(___aldiv@dividend+2)& (0+255),b
  1572  001180  0E00               	movlw	0
  1573  001182  6F76               	movwf	(___aldiv@dividend+3)& (0+255),b
  1574  001184  C16A  F077         	movff	_periodo_peralta,___aldiv@divisor
  1575  001188  C16B  F078         	movff	_periodo_peralta+1,___aldiv@divisor+1
  1576  00118C  C16C  F079         	movff	_periodo_peralta+2,___aldiv@divisor+2
  1577  001190  C16D  F07A         	movff	_periodo_peralta+3,___aldiv@divisor+3
  1578  001194  ECF9  F016         	call	___aldiv	;wreg free
  1579  001198  C073  F15A         	movff	?___aldiv,_n_controle
  1580  00119C  C074  F15B         	movff	?___aldiv+1,_n_controle+1
  1581                           
  1582                           ;main.c: 1217: dente_subida = dente_controle - n_controle;
  1583  0011A0  C15A  F073         	movff	_n_controle,___xxtofl@val
  1584  0011A4  C15B  F074         	movff	_n_controle+1,___xxtofl@val+1
  1585  0011A8  0100               	movlb	0	; () banked
  1586  0011AA  0E00               	movlw	0
  1587  0011AC  BF74               	btfsc	(___xxtofl@val+1)& (0+255),7,b
  1588  0011AE  0EFF               	movlw	-1
  1589  0011B0  6F75               	movwf	(___xxtofl@val+2)& (0+255),b
  1590  0011B2  6F76               	movwf	(___xxtofl@val+3)& (0+255),b
  1591  0011B4  0E01               	movlw	1
  1592  0011B6  ECA2  F014         	call	___xxtofl
  1593  0011BA  C073  F081         	movff	?___xxtofl,___flneg@f1
  1594  0011BE  C074  F082         	movff	?___xxtofl+1,___flneg@f1+1
  1595  0011C2  C075  F083         	movff	?___xxtofl+2,___flneg@f1+2
  1596  0011C6  C076  F084         	movff	?___xxtofl+3,___flneg@f1+3
  1597  0011CA  EC53  F019         	call	___flneg	;wreg free
  1598  0011CE  C081  F085         	movff	?___flneg,___fladd@b
  1599  0011D2  C082  F086         	movff	?___flneg+1,___fladd@b+1
  1600  0011D6  C083  F087         	movff	?___flneg+2,___fladd@b+2
  1601  0011DA  C084  F088         	movff	?___flneg+3,___fladd@b+3
  1602  0011DE  C130  F089         	movff	_dente_controle,___fladd@a
  1603  0011E2  C131  F08A         	movff	_dente_controle+1,___fladd@a+1
  1604  0011E6  C132  F08B         	movff	_dente_controle+2,___fladd@a+2
  1605  0011EA  C133  F08C         	movff	_dente_controle+3,___fladd@a+3
  1606  0011EE  ECEF  F009         	call	___fladd	;wreg free
  1607  0011F2  C085  F12C         	movff	?___fladd,_dente_subida
  1608  0011F6  C086  F12D         	movff	?___fladd+1,_dente_subida+1
  1609  0011FA  C087  F12E         	movff	?___fladd+2,_dente_subida+2
  1610  0011FE  C088  F12F         	movff	?___fladd+3,_dente_subida+3
  1611                           
  1612                           ;main.c: 1218: dente_subida_inteiro = (int) dente_subida;
  1613  001202  C12C  F073         	movff	_dente_subida,___fltol@f1
  1614  001206  C12D  F074         	movff	_dente_subida+1,___fltol@f1+1
  1615  00120A  C12E  F075         	movff	_dente_subida+2,___fltol@f1+2
  1616  00120E  C12F  F076         	movff	_dente_subida+3,___fltol@f1+3
  1617  001212  EC86  F017         	call	___fltol	;wreg free
  1618  001216  C073  F0CD         	movff	?___fltol,_dente_subida_inteiro
  1619  00121A  C074  F0CE         	movff	?___fltol+1,_dente_subida_inteiro+1
  1620                           
  1621                           ;main.c: 1219: ig_tmr_disparo_controle_temp = (dente_subida - (float) dente_subida_intei
      +                          ro) * periodo_peralta;
  1622  00121E  C12C  F089         	movff	_dente_subida,___fladd@a
  1623  001222  C12D  F08A         	movff	_dente_subida+1,___fladd@a+1
  1624  001226  C12E  F08B         	movff	_dente_subida+2,___fladd@a+2
  1625  00122A  C12F  F08C         	movff	_dente_subida+3,___fladd@a+3
  1626  00122E  C0CD  F073         	movff	_dente_subida_inteiro,___xxtofl@val
  1627  001232  C0CE  F074         	movff	_dente_subida_inteiro+1,___xxtofl@val+1
  1628  001236  0100               	movlb	0	; () banked
  1629  001238  0E00               	movlw	0
  1630  00123A  BF74               	btfsc	(___xxtofl@val+1)& (0+255),7,b
  1631  00123C  0EFF               	movlw	-1
  1632  00123E  6F75               	movwf	(___xxtofl@val+2)& (0+255),b
  1633  001240  6F76               	movwf	(___xxtofl@val+3)& (0+255),b
  1634  001242  0E01               	movlw	1
  1635  001244  ECA2  F014         	call	___xxtofl
  1636  001248  C073  F081         	movff	?___xxtofl,___flneg@f1
  1637  00124C  C074  F082         	movff	?___xxtofl+1,___flneg@f1+1
  1638  001250  C075  F083         	movff	?___xxtofl+2,___flneg@f1+2
  1639  001254  C076  F084         	movff	?___xxtofl+3,___flneg@f1+3
  1640  001258  EC53  F019         	call	___flneg	;wreg free
  1641  00125C  C081  F085         	movff	?___flneg,___fladd@b
  1642  001260  C082  F086         	movff	?___flneg+1,___fladd@b+1
  1643  001264  C083  F087         	movff	?___flneg+2,___fladd@b+2
  1644  001268  C084  F088         	movff	?___flneg+3,___fladd@b+3
  1645  00126C  ECEF  F009         	call	___fladd	;wreg free
  1646  001270  C085  F099         	movff	?___fladd,___flmul@b
  1647  001274  C086  F09A         	movff	?___fladd+1,___flmul@b+1
  1648  001278  C087  F09B         	movff	?___fladd+2,___flmul@b+2
  1649  00127C  C088  F09C         	movff	?___fladd+3,___flmul@b+3
  1650  001280  C16A  F073         	movff	_periodo_peralta,___xxtofl@val
  1651  001284  C16B  F074         	movff	_periodo_peralta+1,___xxtofl@val+1
  1652  001288  C16C  F075         	movff	_periodo_peralta+2,___xxtofl@val+2
  1653  00128C  C16D  F076         	movff	_periodo_peralta+3,___xxtofl@val+3
  1654  001290  0E01               	movlw	1
  1655  001292  ECA2  F014         	call	___xxtofl
  1656  001296  C073  F09D         	movff	?___xxtofl,___flmul@a
  1657  00129A  C074  F09E         	movff	?___xxtofl+1,___flmul@a+1
  1658  00129E  C075  F09F         	movff	?___xxtofl+2,___flmul@a+2
  1659  0012A2  C076  F0A0         	movff	?___xxtofl+3,___flmul@a+3
  1660  0012A6  EC43  F00C         	call	___flmul	;wreg free
  1661  0012AA  C099  F0AB         	movff	?___flmul,_ig_tmr_disparo_controle_temp
  1662  0012AE  C09A  F0AC         	movff	?___flmul+1,_ig_tmr_disparo_controle_temp+1
  1663  0012B2  C09B  F0AD         	movff	?___flmul+2,_ig_tmr_disparo_controle_temp+2
  1664  0012B6  C09C  F0AE         	movff	?___flmul+3,_ig_tmr_disparo_controle_temp+3
  1665                           
  1666                           ;main.c: 1220: ig_tmr_disparo_controle_temp = ig_tmr_disparo_controle << 1;
  1667  0012BA  C0D7  F0A5         	movff	_ig_tmr_disparo_controle,??_main
  1668  0012BE  C0D8  F0A6         	movff	_ig_tmr_disparo_controle+1,??_main+1
  1669  0012C2  90D8               	bcf	status,0,c
  1670  0012C4  0100               	movlb	0	; () banked
  1671  0012C6  37A5               	rlcf	??_main& (0+255),f,b
  1672  0012C8  37A6               	rlcf	(??_main+1)& (0+255),f,b
  1673  0012CA  C0A5  F073         	movff	??_main,___xxtofl@val
  1674  0012CE  C0A6  F074         	movff	??_main+1,___xxtofl@val+1
  1675  0012D2  0100               	movlb	0	; () banked
  1676  0012D4  0E00               	movlw	0
  1677  0012D6  BF74               	btfsc	(___xxtofl@val+1)& (0+255),7,b
  1678  0012D8  0EFF               	movlw	-1
  1679  0012DA  6F75               	movwf	(___xxtofl@val+2)& (0+255),b
  1680  0012DC  6F76               	movwf	(___xxtofl@val+3)& (0+255),b
  1681  0012DE  0E01               	movlw	1
  1682  0012E0  ECA2  F014         	call	___xxtofl
  1683  0012E4  C073  F0AB         	movff	?___xxtofl,_ig_tmr_disparo_controle_temp
  1684  0012E8  C074  F0AC         	movff	?___xxtofl+1,_ig_tmr_disparo_controle_temp+1
  1685  0012EC  C075  F0AD         	movff	?___xxtofl+2,_ig_tmr_disparo_controle_temp+2
  1686  0012F0  C076  F0AE         	movff	?___xxtofl+3,_ig_tmr_disparo_controle_temp+3
  1687                           
  1688                           ;main.c: 1222: if (ig_tmr_disparo_controle_temp < 10.0)
  1689  0012F4  C0AB  F073         	movff	_ig_tmr_disparo_controle_temp,___flge@ff1
  1690  0012F8  C0AC  F074         	movff	_ig_tmr_disparo_controle_temp+1,___flge@ff1+1
  1691  0012FC  C0AD  F075         	movff	_ig_tmr_disparo_controle_temp+2,___flge@ff1+2
  1692  001300  C0AE  F076         	movff	_ig_tmr_disparo_controle_temp+3,___flge@ff1+3
  1693  001304  0E00               	movlw	0
  1694  001306  0100               	movlb	0	; () banked
  1695  001308  6F77               	movwf	___flge@ff2& (0+255),b
  1696  00130A  0E00               	movlw	0
  1697  00130C  6F78               	movwf	(___flge@ff2+1)& (0+255),b
  1698  00130E  0E20               	movlw	32
  1699  001310  6F79               	movwf	(___flge@ff2+2)& (0+255),b
  1700  001312  0E41               	movlw	65
  1701  001314  6F7A               	movwf	(___flge@ff2+3)& (0+255),b
  1702  001316  EC89  F015         	call	___flge	;wreg free
  1703  00131A  0100               	movlb	0	; () banked
  1704  00131C  B0D8               	btfsc	status,0,c
  1705  00131E  D009               	goto	l7211
  1706                           
  1707                           ; BSR set to: 0
  1708                           ;main.c: 1223: {
  1709                           ;main.c: 1224: ig_tmr_disparo_controle_temp = 10.0;
  1710  001320  0E00               	movlw	0
  1711  001322  0100               	movlb	0	; () banked
  1712  001324  6FAB               	movwf	_ig_tmr_disparo_controle_temp& (0+255),b
  1713  001326  0E00               	movlw	0
  1714  001328  6FAC               	movwf	(_ig_tmr_disparo_controle_temp+1)& (0+255),b
  1715  00132A  0E20               	movlw	32
  1716  00132C  6FAD               	movwf	(_ig_tmr_disparo_controle_temp+2)& (0+255),b
  1717  00132E  0E41               	movlw	65
  1718  001330  6FAE               	movwf	(_ig_tmr_disparo_controle_temp+3)& (0+255),b
  1719  001332                     l7211:
  1720                           
  1721                           ; BSR set to: 0
  1722                           ;main.c: 1225: }
  1723                           ;main.c: 1226: ig_tmr_disparo_controle_temp = ig_tmr_disparo_controle_temp / 52;
  1724  001332  C0AB  F073         	movff	_ig_tmr_disparo_controle_temp,___fldiv@b
  1725  001336  C0AC  F074         	movff	_ig_tmr_disparo_controle_temp+1,___fldiv@b+1
  1726  00133A  C0AD  F075         	movff	_ig_tmr_disparo_controle_temp+2,___fldiv@b+2
  1727  00133E  C0AE  F076         	movff	_ig_tmr_disparo_controle_temp+3,___fldiv@b+3
  1728  001342  0E00               	movlw	0
  1729  001344  0100               	movlb	0	; () banked
  1730  001346  6F77               	movwf	___fldiv@a& (0+255),b
  1731  001348  0E00               	movlw	0
  1732  00134A  6F78               	movwf	(___fldiv@a+1)& (0+255),b
  1733  00134C  0E50               	movlw	80
  1734  00134E  6F79               	movwf	(___fldiv@a+2)& (0+255),b
  1735  001350  0E42               	movlw	66
  1736  001352  6F7A               	movwf	(___fldiv@a+3)& (0+255),b
  1737  001354  EC96  F00E         	call	___fldiv	;wreg free
  1738  001358  C073  F0AB         	movff	?___fldiv,_ig_tmr_disparo_controle_temp
  1739  00135C  C074  F0AC         	movff	?___fldiv+1,_ig_tmr_disparo_controle_temp+1
  1740  001360  C075  F0AD         	movff	?___fldiv+2,_ig_tmr_disparo_controle_temp+2
  1741  001364  C076  F0AE         	movff	?___fldiv+3,_ig_tmr_disparo_controle_temp+3
  1742                           
  1743                           ;main.c: 1228: if (ig_tmr_disparo_controle_temp < 1)
  1744  001368  C0AB  F073         	movff	_ig_tmr_disparo_controle_temp,___flge@ff1
  1745  00136C  C0AC  F074         	movff	_ig_tmr_disparo_controle_temp+1,___flge@ff1+1
  1746  001370  C0AD  F075         	movff	_ig_tmr_disparo_controle_temp+2,___flge@ff1+2
  1747  001374  C0AE  F076         	movff	_ig_tmr_disparo_controle_temp+3,___flge@ff1+3
  1748  001378  0E00               	movlw	0
  1749  00137A  0100               	movlb	0	; () banked
  1750  00137C  6F77               	movwf	___flge@ff2& (0+255),b
  1751  00137E  0E00               	movlw	0
  1752  001380  6F78               	movwf	(___flge@ff2+1)& (0+255),b
  1753  001382  0E80               	movlw	128
  1754  001384  6F79               	movwf	(___flge@ff2+2)& (0+255),b
  1755  001386  0E3F               	movlw	63
  1756  001388  6F7A               	movwf	(___flge@ff2+3)& (0+255),b
  1757  00138A  EC89  F015         	call	___flge	;wreg free
  1758  00138E  0100               	movlb	0	; () banked
  1759  001390  B0D8               	btfsc	status,0,c
  1760  001392  D009               	goto	l7217
  1761                           
  1762                           ; BSR set to: 0
  1763                           ;main.c: 1229: {
  1764                           ;main.c: 1231: ig_tmr_disparo_controle_temp = 1.0;
  1765  001394  0E00               	movlw	0
  1766  001396  0100               	movlb	0	; () banked
  1767  001398  6FAB               	movwf	_ig_tmr_disparo_controle_temp& (0+255),b
  1768  00139A  0E00               	movlw	0
  1769  00139C  6FAC               	movwf	(_ig_tmr_disparo_controle_temp+1)& (0+255),b
  1770  00139E  0E80               	movlw	128
  1771  0013A0  6FAD               	movwf	(_ig_tmr_disparo_controle_temp+2)& (0+255),b
  1772  0013A2  0E3F               	movlw	63
  1773  0013A4  6FAE               	movwf	(_ig_tmr_disparo_controle_temp+3)& (0+255),b
  1774  0013A6                     l7217:
  1775                           
  1776                           ; BSR set to: 0
  1777                           ;main.c: 1232: }
  1778                           ;main.c: 1234: ig_tmr_disparo_controle = (int) ig_tmr_disparo_controle_temp << 1;
  1779  0013A6  C0AB  F073         	movff	_ig_tmr_disparo_controle_temp,___fltol@f1
  1780  0013AA  C0AC  F074         	movff	_ig_tmr_disparo_controle_temp+1,___fltol@f1+1
  1781  0013AE  C0AD  F075         	movff	_ig_tmr_disparo_controle_temp+2,___fltol@f1+2
  1782  0013B2  C0AE  F076         	movff	_ig_tmr_disparo_controle_temp+3,___fltol@f1+3
  1783  0013B6  EC86  F017         	call	___fltol	;wreg free
  1784  0013BA  90D8               	bcf	status,0,c
  1785  0013BC  0100               	movlb	0	; () banked
  1786  0013BE  3573               	rlcf	?___fltol& (0+255),w,b
  1787  0013C0  0100               	movlb	0	; () banked
  1788  0013C2  6FD7               	movwf	_ig_tmr_disparo_controle& (0+255),b
  1789  0013C4  0100               	movlb	0	; () banked
  1790  0013C6  3574               	rlcf	(?___fltol+1)& (0+255),w,b
  1791  0013C8  0100               	movlb	0	; () banked
  1792  0013CA  6FD8               	movwf	(_ig_tmr_disparo_controle+1)& (0+255),b
  1793                           
  1794                           ; BSR set to: 0
  1795                           ;main.c: 1236: }
  1796                           ;main.c: 1237: }
  1797                           ;main.c: 1239: }
  1798                           
  1799                           ; BSR set to: 0
  1800  0013CC  D64A               	goto	l7169
  1801  0013CE                     l395:
  1802                           
  1803                           ; BSR set to: 0
  1804                           ;main.c: 1240: else
  1805                           ;main.c: 1241: {
  1806                           ;main.c: 1242: Chave_controle_geral = 0;
  1807  0013CE  0100               	movlb	0	; () banked
  1808  0013D0  91E8               	bcf	(_Chave_controle_geral/(0+8))& (0+255),_Chave_controle_geral& (0+7),b
  1809                           
  1810                           ; BSR set to: 0
  1811                           ;main.c: 1243: cutoff = 0;
  1812  0013D2  0E00               	movlw	0
  1813  0013D4  0100               	movlb	0	; () banked
  1814  0013D6  6FBA               	movwf	(_cutoff+1)& (0+255),b
  1815  0013D8  0E00               	movlw	0
  1816  0013DA  6FB9               	movwf	_cutoff& (0+255),b
  1817                           
  1818                           ; BSR set to: 0
  1819                           
  1820                           ; BSR set to: 0
  1821  0013DC  D642               	goto	l7169
  1822  0013DE                     __end_of_main:
  1823                           	opt stack 0
  1824                           stkptr	equ	0xFFC
  1825                           tblptru	equ	0xFF8
  1826                           tblptrh	equ	0xFF7
  1827                           tblptrl	equ	0xFF6
  1828                           tablat	equ	0xFF5
  1829                           intcon	equ	0xFF2
  1830                           intcon2	equ	0xFF1
  1831                           postinc0	equ	0xFEE
  1832                           wreg	equ	0xFE8
  1833                           postdec1	equ	0xFE5
  1834                           fsr1l	equ	0xFE1
  1835                           status	equ	0xFD8
  1836                           
  1837 ;; *************** function ___fltol *****************
  1838 ;; Defined at:
  1839 ;;		line 43 in file "C:\Program Files (x86)\Microchip\xc8\v1.42\sources\common\fltol.c"
  1840 ;; Parameters:    Size  Location     Type
  1841 ;;  f1              4   19[BANK0 ] void 
  1842 ;; Auto vars:     Size  Location     Type
  1843 ;;  exp1            1   28[BANK0 ] unsigned char 
  1844 ;;  sign1           1   27[BANK0 ] unsigned char 
  1845 ;; Return value:  Size  Location     Type
  1846 ;;                  4   19[BANK0 ] long 
  1847 ;; Registers used:
  1848 ;;		wreg, status,2, status,0
  1849 ;; Tracked objects:
  1850 ;;		On entry : 0/0
  1851 ;;		On exit  : 0/0
  1852 ;;		Unchanged: 0/0
  1853 ;; Data sizes:     COMRAM   BANK0   BANK1   BANK2   BANK3   BANK4   BANK5   BANK6   BANK7   BANK8   BANK9  BANK10  BANK1
      +1  BANK12  BANK13  BANK14  BANK15
  1854 ;;      Params:         0       4       0       0       0       0       0       0       0       0       0       0       
      +0       0       0       0       0
  1855 ;;      Locals:         0       2       0       0       0       0       0       0       0       0       0       0       
      +0       0       0       0       0
  1856 ;;      Temps:          0       4       0       0       0       0       0       0       0       0       0       0       
      +0       0       0       0       0
  1857 ;;      Totals:         0      10       0       0       0       0       0       0       0       0       0       0       
      +0       0       0       0       0
  1858 ;;Total ram usage:       10 bytes
  1859 ;; Hardware stack levels used:    1
  1860 ;; Hardware stack levels required when called:    7
  1861 ;; This function calls:
  1862 ;;		Nothing
  1863 ;; This function is called by:
  1864 ;;		_main
  1865 ;; This function uses a non-reentrant model
  1866 ;;
  1867                           
  1868                           	psect	text1
  1869  002F0C                     __ptext1:
  1870                           	opt stack 0
  1871  002F0C                     ___fltol:
  1872                           	opt stack 23
  1873                           
  1874                           ; BSR set to: 0
  1875                           ;incstack = 0
  1876  002F0C  0100               	movlb	0	; () banked
  1877  002F0E  3575               	rlcf	(___fltol@f1+2)& (0+255),w,b
  1878  002F10  3576               	rlcf	(___fltol@f1+3)& (0+255),w,b
  1879  002F12  0100               	movlb	0	; () banked
  1880  002F14  6F7C               	movwf	___fltol@exp1& (0+255),b
  1881  002F16  0100               	movlb	0	; () banked
  1882  002F18  517C               	movf	___fltol@exp1& (0+255),w,b
  1883  002F1A  A4D8               	btfss	status,2,c
  1884  002F1C  D00A               	goto	l5209
  1885                           
  1886                           ; BSR set to: 0
  1887  002F1E  0E00               	movlw	0
  1888  002F20  0100               	movlb	0	; () banked
  1889  002F22  6F73               	movwf	?___fltol& (0+255),b
  1890  002F24  0E00               	movlw	0
  1891  002F26  6F74               	movwf	(?___fltol+1)& (0+255),b
  1892  002F28  0E00               	movlw	0
  1893  002F2A  6F75               	movwf	(?___fltol+2)& (0+255),b
  1894  002F2C  0E00               	movlw	0
  1895  002F2E  6F76               	movwf	(?___fltol+3)& (0+255),b
  1896                           
  1897                           ; BSR set to: 0
  1898  002F30  0012               	return	
  1899  002F32                     l5209:
  1900                           
  1901                           ; BSR set to: 0
  1902  002F32  C073  F077         	movff	___fltol@f1,??___fltol
  1903  002F36  C074  F078         	movff	___fltol@f1+1,??___fltol+1
  1904  002F3A  C075  F079         	movff	___fltol@f1+2,??___fltol+2
  1905  002F3E  C076  F07A         	movff	___fltol@f1+3,??___fltol+3
  1906  002F42  0E20               	movlw	32
  1907  002F44  D006               	goto	u5620
  1908  002F46                     u5625:
  1909  002F46  0100               	movlb	0	; () banked
  1910  002F48  90D8               	bcf	status,0,c
  1911  002F4A  337A               	rrcf	(??___fltol+3)& (0+255),f,b
  1912  002F4C  3379               	rrcf	(??___fltol+2)& (0+255),f,b
  1913  002F4E  3378               	rrcf	(??___fltol+1)& (0+255),f,b
  1914  002F50  3377               	rrcf	??___fltol& (0+255),f,b
  1915  002F52                     u5620:
  1916  002F52  2EE8               	decfsz	wreg,f,c
  1917  002F54  D7F8               	goto	u5625
  1918  002F56  0100               	movlb	0	; () banked
  1919  002F58  5177               	movf	??___fltol& (0+255),w,b
  1920  002F5A  0100               	movlb	0	; () banked
  1921  002F5C  6F7B               	movwf	___fltol@sign1& (0+255),b
  1922                           
  1923                           ; BSR set to: 0
  1924  002F5E  0100               	movlb	0	; () banked
  1925  002F60  8F75               	bsf	(___fltol@f1+2)& (0+255),7,b
  1926                           
  1927                           ; BSR set to: 0
  1928  002F62  0EFF               	movlw	255
  1929  002F64  0100               	movlb	0	; () banked
  1930  002F66  1773               	andwf	___fltol@f1& (0+255),f,b
  1931  002F68  0EFF               	movlw	255
  1932  002F6A  1774               	andwf	(___fltol@f1+1)& (0+255),f,b
  1933  002F6C  0EFF               	movlw	255
  1934  002F6E  1775               	andwf	(___fltol@f1+2)& (0+255),f,b
  1935  002F70  0E00               	movlw	0
  1936  002F72  1776               	andwf	(___fltol@f1+3)& (0+255),f,b
  1937                           
  1938                           ; BSR set to: 0
  1939  002F74  0E96               	movlw	150
  1940  002F76  0100               	movlb	0	; () banked
  1941  002F78  5F7C               	subwf	___fltol@exp1& (0+255),f,b
  1942                           
  1943                           ; BSR set to: 0
  1944  002F7A  0100               	movlb	0	; () banked
  1945  002F7C  AF7C               	btfss	___fltol@exp1& (0+255),7,b
  1946  002F7E  D01A               	goto	l5229
  1947                           
  1948                           ; BSR set to: 0
  1949  002F80  0100               	movlb	0	; () banked
  1950  002F82  517C               	movf	___fltol@exp1& (0+255),w,b
  1951  002F84  0A80               	xorlw	128
  1952  002F86  0F97               	addlw	151
  1953  002F88  B0D8               	btfsc	status,0,c
  1954  002F8A  D00A               	goto	l5225
  1955                           
  1956                           ; BSR set to: 0
  1957  002F8C  0E00               	movlw	0
  1958  002F8E  0100               	movlb	0	; () banked
  1959  002F90  6F73               	movwf	?___fltol& (0+255),b
  1960  002F92  0E00               	movlw	0
  1961  002F94  6F74               	movwf	(?___fltol+1)& (0+255),b
  1962  002F96  0E00               	movlw	0
  1963  002F98  6F75               	movwf	(?___fltol+2)& (0+255),b
  1964  002F9A  0E00               	movlw	0
  1965  002F9C  6F76               	movwf	(?___fltol+3)& (0+255),b
  1966                           
  1967                           ; BSR set to: 0
  1968  002F9E  0012               	return	
  1969  002FA0                     l5225:
  1970                           
  1971                           ; BSR set to: 0
  1972  002FA0  0100               	movlb	0	; () banked
  1973  002FA2  90D8               	bcf	status,0,c
  1974  002FA4  3376               	rrcf	(___fltol@f1+3)& (0+255),f,b
  1975  002FA6  3375               	rrcf	(___fltol@f1+2)& (0+255),f,b
  1976  002FA8  3374               	rrcf	(___fltol@f1+1)& (0+255),f,b
  1977  002FAA  3373               	rrcf	___fltol@f1& (0+255),f,b
  1978                           
  1979                           ; BSR set to: 0
  1980  002FAC  0100               	movlb	0	; () banked
  1981  002FAE  3F7C               	incfsz	___fltol@exp1& (0+255),f,b
  1982  002FB0  D7F7               	goto	l5225
  1983                           
  1984                           ; BSR set to: 0
  1985  002FB2  D01B               	goto	l5239
  1986  002FB4                     l5229:
  1987                           
  1988                           ; BSR set to: 0
  1989  002FB4  0E1F               	movlw	31
  1990  002FB6  0100               	movlb	0	; () banked
  1991  002FB8  657C               	cpfsgt	___fltol@exp1& (0+255),b
  1992  002FBA  D012               	goto	l5237
  1993                           
  1994                           ; BSR set to: 0
  1995  002FBC  0E00               	movlw	0
  1996  002FBE  0100               	movlb	0	; () banked
  1997  002FC0  6F73               	movwf	?___fltol& (0+255),b
  1998  002FC2  0E00               	movlw	0
  1999  002FC4  6F74               	movwf	(?___fltol+1)& (0+255),b
  2000  002FC6  0E00               	movlw	0
  2001  002FC8  6F75               	movwf	(?___fltol+2)& (0+255),b
  2002  002FCA  0E00               	movlw	0
  2003  002FCC  6F76               	movwf	(?___fltol+3)& (0+255),b
  2004                           
  2005                           ; BSR set to: 0
  2006  002FCE  0012               	return	
  2007  002FD0                     l5235:
  2008                           
  2009                           ; BSR set to: 0
  2010  002FD0  0100               	movlb	0	; () banked
  2011  002FD2  90D8               	bcf	status,0,c
  2012  002FD4  3773               	rlcf	___fltol@f1& (0+255),f,b
  2013  002FD6  3774               	rlcf	(___fltol@f1+1)& (0+255),f,b
  2014  002FD8  3775               	rlcf	(___fltol@f1+2)& (0+255),f,b
  2015  002FDA  3776               	rlcf	(___fltol@f1+3)& (0+255),f,b
  2016  002FDC  0100               	movlb	0	; () banked
  2017  002FDE  077C               	decf	___fltol@exp1& (0+255),f,b
  2018  002FE0                     l5237:
  2019                           
  2020                           ; BSR set to: 0
  2021  002FE0  0100               	movlb	0	; () banked
  2022  002FE2  517C               	movf	___fltol@exp1& (0+255),w,b
  2023  002FE4  0100               	movlb	0	; () banked
  2024  002FE6  A4D8               	btfss	status,2,c
  2025  002FE8  D7F3               	goto	l5235
  2026  002FEA                     l5239:
  2027                           
  2028                           ; BSR set to: 0
  2029  002FEA  0100               	movlb	0	; () banked
  2030  002FEC  517B               	movf	___fltol@sign1& (0+255),w,b
  2031  002FEE  0100               	movlb	0	; () banked
  2032  002FF0  B4D8               	btfsc	status,2,c
  2033  002FF2  D009               	goto	l5243
  2034                           
  2035                           ; BSR set to: 0
  2036  002FF4  0100               	movlb	0	; () banked
  2037  002FF6  1F76               	comf	(___fltol@f1+3)& (0+255),f,b
  2038  002FF8  1F75               	comf	(___fltol@f1+2)& (0+255),f,b
  2039  002FFA  1F74               	comf	(___fltol@f1+1)& (0+255),f,b
  2040  002FFC  6D73               	negf	___fltol@f1& (0+255),b
  2041  002FFE  0E00               	movlw	0
  2042  003000  2374               	addwfc	(___fltol@f1+1)& (0+255),f,b
  2043  003002  2375               	addwfc	(___fltol@f1+2)& (0+255),f,b
  2044  003004  2376               	addwfc	(___fltol@f1+3)& (0+255),f,b
  2045  003006                     l5243:
  2046                           
  2047                           ; BSR set to: 0
  2048  003006  C073  F073         	movff	___fltol@f1,?___fltol
  2049  00300A  C074  F074         	movff	___fltol@f1+1,?___fltol+1
  2050  00300E  C075  F075         	movff	___fltol@f1+2,?___fltol+2
  2051  003012  C076  F076         	movff	___fltol@f1+3,?___fltol+3
  2052  003016  0012               	return	
  2053  003018                     __end_of___fltol:
  2054                           	opt stack 0
  2055                           stkptr	equ	0xFFC
  2056                           tblptru	equ	0xFF8
  2057                           tblptrh	equ	0xFF7
  2058                           tblptrl	equ	0xFF6
  2059                           tablat	equ	0xFF5
  2060                           intcon	equ	0xFF2
  2061                           intcon2	equ	0xFF1
  2062                           postinc0	equ	0xFEE
  2063                           wreg	equ	0xFE8
  2064                           postdec1	equ	0xFE5
  2065                           fsr1l	equ	0xFE1
  2066                           status	equ	0xFD8
  2067                           
  2068 ;; *************** function ___fldiv *****************
  2069 ;; Defined at:
  2070 ;;		line 11 in file "C:\Program Files (x86)\Microchip\xc8\v1.42\sources\common\sprcdiv.c"
  2071 ;; Parameters:    Size  Location     Type
  2072 ;;  b               4   19[BANK0 ] long 
  2073 ;;  a               4   23[BANK0 ] long 
  2074 ;; Auto vars:     Size  Location     Type
  2075 ;;  grs             4   38[BANK0 ] unsigned long 
  2076 ;;  rem             4   32[BANK0 ] unsigned long 
  2077 ;;  new_exp         2   36[BANK0 ] int 
  2078 ;;  aexp            1   43[BANK0 ] unsigned char 
  2079 ;;  bexp            1   42[BANK0 ] unsigned char 
  2080 ;;  sign            1   31[BANK0 ] unsigned char 
  2081 ;; Return value:  Size  Location     Type
  2082 ;;                  4   19[BANK0 ] unsigned char 
  2083 ;; Registers used:
  2084 ;;		wreg, status,2, status,0
  2085 ;; Tracked objects:
  2086 ;;		On entry : 0/0
  2087 ;;		On exit  : 0/0
  2088 ;;		Unchanged: 0/0
  2089 ;; Data sizes:     COMRAM   BANK0   BANK1   BANK2   BANK3   BANK4   BANK5   BANK6   BANK7   BANK8   BANK9  BANK10  BANK1
      +1  BANK12  BANK13  BANK14  BANK15
  2090 ;;      Params:         0       8       0       0       0       0       0       0       0       0       0       0       
      +0       0       0       0       0
  2091 ;;      Locals:         0      13       0       0       0       0       0       0       0       0       0       0       
      +0       0       0       0       0
  2092 ;;      Temps:          0       4       0       0       0       0       0       0       0       0       0       0       
      +0       0       0       0       0
  2093 ;;      Totals:         0      25       0       0       0       0       0       0       0       0       0       0       
      +0       0       0       0       0
  2094 ;;Total ram usage:       25 bytes
  2095 ;; Hardware stack levels used:    1
  2096 ;; Hardware stack levels required when called:    7
  2097 ;; This function calls:
  2098 ;;		Nothing
  2099 ;; This function is called by:
  2100 ;;		_main
  2101 ;; This function uses a non-reentrant model
  2102 ;;
  2103                           
  2104                           	psect	text2
  2105  001D2C                     __ptext2:
  2106                           	opt stack 0
  2107  001D2C                     ___fldiv:
  2108                           	opt stack 23
  2109                           
  2110                           ; BSR set to: 0
  2111                           ;incstack = 0
  2112  001D2C  0100               	movlb	0	; () banked
  2113  001D2E  5176               	movf	(___fldiv@b+3)& (0+255),w,b
  2114  001D30  0B80               	andlw	128
  2115  001D32  0100               	movlb	0	; () banked
  2116  001D34  6F7F               	movwf	___fldiv@sign& (0+255),b
  2117  001D36  0100               	movlb	0	; () banked
  2118  001D38  5176               	movf	(___fldiv@b+3)& (0+255),w,b
  2119  001D3A  2576               	addwf	(___fldiv@b+3)& (0+255),w,b
  2120  001D3C  0100               	movlb	0	; () banked
  2121  001D3E  6F8A               	movwf	___fldiv@bexp& (0+255),b
  2122                           
  2123                           ; BSR set to: 0
  2124  001D40  0100               	movlb	0	; () banked
  2125  001D42  AF75               	btfss	(___fldiv@b+2)& (0+255),7,b
  2126  001D44  D002               	goto	l5073
  2127                           
  2128                           ; BSR set to: 0
  2129  001D46  0100               	movlb	0	; () banked
  2130  001D48  818A               	bsf	___fldiv@bexp& (0+255),0,b
  2131  001D4A                     l5073:
  2132                           
  2133                           ; BSR set to: 0
  2134  001D4A  0100               	movlb	0	; () banked
  2135  001D4C  518A               	movf	___fldiv@bexp& (0+255),w,b
  2136  001D4E  0100               	movlb	0	; () banked
  2137  001D50  B4D8               	btfsc	status,2,c
  2138  001D52  D012               	goto	l5083
  2139                           
  2140                           ; BSR set to: 0
  2141  001D54  0100               	movlb	0	; () banked
  2142  001D56  298A               	incf	___fldiv@bexp& (0+255),w,b
  2143  001D58  A4D8               	btfss	status,2,c
  2144  001D5A  D009               	goto	l5079
  2145                           
  2146                           ; BSR set to: 0
  2147  001D5C  0E00               	movlw	0
  2148  001D5E  0100               	movlb	0	; () banked
  2149  001D60  6F73               	movwf	___fldiv@b& (0+255),b
  2150  001D62  0E00               	movlw	0
  2151  001D64  6F74               	movwf	(___fldiv@b+1)& (0+255),b
  2152  001D66  0E00               	movlw	0
  2153  001D68  6F75               	movwf	(___fldiv@b+2)& (0+255),b
  2154  001D6A  0E00               	movlw	0
  2155  001D6C  6F76               	movwf	(___fldiv@b+3)& (0+255),b
  2156  001D6E                     l5079:
  2157                           
  2158                           ; BSR set to: 0
  2159  001D6E  0100               	movlb	0	; () banked
  2160  001D70  8F75               	bsf	(___fldiv@b+2)& (0+255),7,b
  2161                           
  2162                           ; BSR set to: 0
  2163  001D72  0E00               	movlw	0
  2164  001D74  0100               	movlb	0	; () banked
  2165  001D76  D008               	goto	L1
  2166  001D78                     l5083:
  2167                           
  2168                           ; BSR set to: 0
  2169  001D78  0E00               	movlw	0
  2170  001D7A  0100               	movlb	0	; () banked
  2171  001D7C  6F73               	movwf	___fldiv@b& (0+255),b
  2172  001D7E  0E00               	movlw	0
  2173  001D80  6F74               	movwf	(___fldiv@b+1)& (0+255),b
  2174  001D82  0E00               	movlw	0
  2175  001D84  6F75               	movwf	(___fldiv@b+2)& (0+255),b
  2176  001D86  0E00               	movlw	0
  2177  001D88                     L1:
  2178  001D88  6F76               	movwf	(___fldiv@b+3)& (0+255),b
  2179                           
  2180                           ; BSR set to: 0
  2181                           
  2182                           ; BSR set to: 0
  2183  001D8A  0100               	movlb	0	; () banked
  2184  001D8C  517A               	movf	(___fldiv@a+3)& (0+255),w,b
  2185  001D8E  0B80               	andlw	128
  2186  001D90  0100               	movlb	0	; () banked
  2187  001D92  1B7F               	xorwf	___fldiv@sign& (0+255),f,b
  2188                           
  2189                           ; BSR set to: 0
  2190  001D94  0100               	movlb	0	; () banked
  2191  001D96  517A               	movf	(___fldiv@a+3)& (0+255),w,b
  2192  001D98  257A               	addwf	(___fldiv@a+3)& (0+255),w,b
  2193  001D9A  0100               	movlb	0	; () banked
  2194  001D9C  6F8B               	movwf	___fldiv@aexp& (0+255),b
  2195                           
  2196                           ; BSR set to: 0
  2197  001D9E  0100               	movlb	0	; () banked
  2198  001DA0  AF79               	btfss	(___fldiv@a+2)& (0+255),7,b
  2199  001DA2  D002               	goto	l5093
  2200                           
  2201                           ; BSR set to: 0
  2202  001DA4  0100               	movlb	0	; () banked
  2203  001DA6  818B               	bsf	___fldiv@aexp& (0+255),0,b
  2204  001DA8                     l5093:
  2205                           
  2206                           ; BSR set to: 0
  2207  001DA8  0100               	movlb	0	; () banked
  2208  001DAA  518B               	movf	___fldiv@aexp& (0+255),w,b
  2209  001DAC  0100               	movlb	0	; () banked
  2210  001DAE  B4D8               	btfsc	status,2,c
  2211  001DB0  D012               	goto	l5103
  2212                           
  2213                           ; BSR set to: 0
  2214  001DB2  0100               	movlb	0	; () banked
  2215  001DB4  298B               	incf	___fldiv@aexp& (0+255),w,b
  2216  001DB6  A4D8               	btfss	status,2,c
  2217  001DB8  D009               	goto	l5099
  2218                           
  2219                           ; BSR set to: 0
  2220  001DBA  0E00               	movlw	0
  2221  001DBC  0100               	movlb	0	; () banked
  2222  001DBE  6F77               	movwf	___fldiv@a& (0+255),b
  2223  001DC0  0E00               	movlw	0
  2224  001DC2  6F78               	movwf	(___fldiv@a+1)& (0+255),b
  2225  001DC4  0E00               	movlw	0
  2226  001DC6  6F79               	movwf	(___fldiv@a+2)& (0+255),b
  2227  001DC8  0E00               	movlw	0
  2228  001DCA  6F7A               	movwf	(___fldiv@a+3)& (0+255),b
  2229  001DCC                     l5099:
  2230                           
  2231                           ; BSR set to: 0
  2232  001DCC  0100               	movlb	0	; () banked
  2233  001DCE  8F79               	bsf	(___fldiv@a+2)& (0+255),7,b
  2234                           
  2235                           ; BSR set to: 0
  2236  001DD0  0E00               	movlw	0
  2237  001DD2  0100               	movlb	0	; () banked
  2238  001DD4  D008               	goto	L2
  2239  001DD6                     l5103:
  2240                           
  2241                           ; BSR set to: 0
  2242  001DD6  0E00               	movlw	0
  2243  001DD8  0100               	movlb	0	; () banked
  2244  001DDA  6F77               	movwf	___fldiv@a& (0+255),b
  2245  001DDC  0E00               	movlw	0
  2246  001DDE  6F78               	movwf	(___fldiv@a+1)& (0+255),b
  2247  001DE0  0E00               	movlw	0
  2248  001DE2  6F79               	movwf	(___fldiv@a+2)& (0+255),b
  2249  001DE4  0E00               	movlw	0
  2250  001DE6                     L2:
  2251  001DE6  6F7A               	movwf	(___fldiv@a+3)& (0+255),b
  2252                           
  2253                           ; BSR set to: 0
  2254                           
  2255                           ; BSR set to: 0
  2256  001DE8  0100               	movlb	0	; () banked
  2257  001DEA  5177               	movf	___fldiv@a& (0+255),w,b
  2258  001DEC  0100               	movlb	0	; () banked
  2259  001DEE  1178               	iorwf	(___fldiv@a+1)& (0+255),w,b
  2260  001DF0  0100               	movlb	0	; () banked
  2261  001DF2  1179               	iorwf	(___fldiv@a+2)& (0+255),w,b
  2262  001DF4  0100               	movlb	0	; () banked
  2263  001DF6  117A               	iorwf	(___fldiv@a+3)& (0+255),w,b
  2264  001DF8  A4D8               	btfss	status,2,c
  2265  001DFA  D017               	goto	l5115
  2266                           
  2267                           ; BSR set to: 0
  2268  001DFC  0E00               	movlw	0
  2269  001DFE  0100               	movlb	0	; () banked
  2270  001E00  6F73               	movwf	___fldiv@b& (0+255),b
  2271  001E02  0E00               	movlw	0
  2272  001E04  6F74               	movwf	(___fldiv@b+1)& (0+255),b
  2273  001E06  0E00               	movlw	0
  2274  001E08  6F75               	movwf	(___fldiv@b+2)& (0+255),b
  2275  001E0A  0E00               	movlw	0
  2276  001E0C  6F76               	movwf	(___fldiv@b+3)& (0+255),b
  2277                           
  2278                           ; BSR set to: 0
  2279  001E0E  0100               	movlb	0	; () banked
  2280  001E10  0E80               	movlw	128
  2281  001E12  1375               	iorwf	(___fldiv@b+2)& (0+255),f,b
  2282  001E14  0E7F               	movlw	127
  2283  001E16  1376               	iorwf	(___fldiv@b+3)& (0+255),f,b
  2284                           
  2285                           ; BSR set to: 0
  2286  001E18  C073  F073         	movff	___fldiv@b,?___fldiv
  2287  001E1C  C074  F074         	movff	___fldiv@b+1,?___fldiv+1
  2288  001E20  C075  F075         	movff	___fldiv@b+2,?___fldiv+2
  2289  001E24  C076  F076         	movff	___fldiv@b+3,?___fldiv+3
  2290                           
  2291                           ; BSR set to: 0
  2292  001E28  0012               	return	
  2293  001E2A                     l5115:
  2294                           
  2295                           ; BSR set to: 0
  2296  001E2A  0100               	movlb	0	; () banked
  2297  001E2C  518A               	movf	___fldiv@bexp& (0+255),w,b
  2298  001E2E  0100               	movlb	0	; () banked
  2299  001E30  A4D8               	btfss	status,2,c
  2300  001E32  D012               	goto	l5123
  2301                           
  2302                           ; BSR set to: 0
  2303  001E34  0E00               	movlw	0
  2304  001E36  0100               	movlb	0	; () banked
  2305  001E38  6F73               	movwf	___fldiv@b& (0+255),b
  2306  001E3A  0E00               	movlw	0
  2307  001E3C  6F74               	movwf	(___fldiv@b+1)& (0+255),b
  2308  001E3E  0E00               	movlw	0
  2309  001E40  6F75               	movwf	(___fldiv@b+2)& (0+255),b
  2310  001E42  0E00               	movlw	0
  2311  001E44  6F76               	movwf	(___fldiv@b+3)& (0+255),b
  2312                           
  2313                           ; BSR set to: 0
  2314  001E46  C073  F073         	movff	___fldiv@b,?___fldiv
  2315  001E4A  C074  F074         	movff	___fldiv@b+1,?___fldiv+1
  2316  001E4E  C075  F075         	movff	___fldiv@b+2,?___fldiv+2
  2317  001E52  C076  F076         	movff	___fldiv@b+3,?___fldiv+3
  2318                           
  2319                           ; BSR set to: 0
  2320  001E56  0012               	return	
  2321  001E58                     l5123:
  2322                           
  2323                           ; BSR set to: 0
  2324  001E58  0100               	movlb	0	; () banked
  2325  001E5A  518B               	movf	___fldiv@aexp& (0+255),w,b
  2326  001E5C  0100               	movlb	0	; () banked
  2327  001E5E  6F7B               	movwf	??___fldiv& (0+255),b
  2328  001E60  6B7C               	clrf	(??___fldiv+1)& (0+255),b
  2329  001E62  0100               	movlb	0	; () banked
  2330  001E64  1F7B               	comf	??___fldiv& (0+255),f,b
  2331  001E66  1F7C               	comf	(??___fldiv+1)& (0+255),f,b
  2332  001E68  4B7B               	infsnz	??___fldiv& (0+255),f,b
  2333  001E6A  2B7C               	incf	(??___fldiv+1)& (0+255),f,b
  2334  001E6C  0100               	movlb	0	; () banked
  2335  001E6E  518A               	movf	___fldiv@bexp& (0+255),w,b
  2336  001E70  0100               	movlb	0	; () banked
  2337  001E72  6F7D               	movwf	(??___fldiv+2)& (0+255),b
  2338  001E74  6B7E               	clrf	(??___fldiv+3)& (0+255),b
  2339  001E76  0100               	movlb	0	; () banked
  2340  001E78  517B               	movf	??___fldiv& (0+255),w,b
  2341  001E7A  0100               	movlb	0	; () banked
  2342  001E7C  277D               	addwf	(??___fldiv+2)& (0+255),f,b
  2343  001E7E  0100               	movlb	0	; () banked
  2344  001E80  517C               	movf	(??___fldiv+1)& (0+255),w,b
  2345  001E82  0100               	movlb	0	; () banked
  2346  001E84  237E               	addwfc	(??___fldiv+3)& (0+255),f,b
  2347  001E86  0E7F               	movlw	127
  2348  001E88  0100               	movlb	0	; () banked
  2349  001E8A  257D               	addwf	(??___fldiv+2)& (0+255),w,b
  2350  001E8C  0100               	movlb	0	; () banked
  2351  001E8E  6F84               	movwf	___fldiv@new_exp& (0+255),b
  2352  001E90  0E00               	movlw	0
  2353  001E92  0100               	movlb	0	; () banked
  2354  001E94  217E               	addwfc	(??___fldiv+3)& (0+255),w,b
  2355  001E96  0100               	movlb	0	; () banked
  2356  001E98  6F85               	movwf	(___fldiv@new_exp+1)& (0+255),b
  2357                           
  2358                           ; BSR set to: 0
  2359  001E9A  C073  F080         	movff	___fldiv@b,___fldiv@rem
  2360  001E9E  C074  F081         	movff	___fldiv@b+1,___fldiv@rem+1
  2361  001EA2  C075  F082         	movff	___fldiv@b+2,___fldiv@rem+2
  2362  001EA6  C076  F083         	movff	___fldiv@b+3,___fldiv@rem+3
  2363                           
  2364                           ; BSR set to: 0
  2365  001EAA  0E00               	movlw	0
  2366  001EAC  0100               	movlb	0	; () banked
  2367  001EAE  6F73               	movwf	___fldiv@b& (0+255),b
  2368  001EB0  0E00               	movlw	0
  2369  001EB2  6F74               	movwf	(___fldiv@b+1)& (0+255),b
  2370  001EB4  0E00               	movlw	0
  2371  001EB6  6F75               	movwf	(___fldiv@b+2)& (0+255),b
  2372  001EB8  0E00               	movlw	0
  2373  001EBA  6F76               	movwf	(___fldiv@b+3)& (0+255),b
  2374                           
  2375                           ; BSR set to: 0
  2376  001EBC  0E00               	movlw	0
  2377  001EBE  0100               	movlb	0	; () banked
  2378  001EC0  6F86               	movwf	___fldiv@grs& (0+255),b
  2379  001EC2  0E00               	movlw	0
  2380  001EC4  6F87               	movwf	(___fldiv@grs+1)& (0+255),b
  2381  001EC6  0E00               	movlw	0
  2382  001EC8  6F88               	movwf	(___fldiv@grs+2)& (0+255),b
  2383  001ECA  0E00               	movlw	0
  2384  001ECC  6F89               	movwf	(___fldiv@grs+3)& (0+255),b
  2385                           
  2386                           ; BSR set to: 0
  2387  001ECE  0E00               	movlw	0
  2388  001ED0  0100               	movlb	0	; () banked
  2389  001ED2  6F8B               	movwf	___fldiv@aexp& (0+255),b
  2390  001ED4  D042               	goto	l1283
  2391  001ED6                     l5133:
  2392                           
  2393                           ; BSR set to: 0
  2394  001ED6  0100               	movlb	0	; () banked
  2395  001ED8  518B               	movf	___fldiv@aexp& (0+255),w,b
  2396  001EDA  0100               	movlb	0	; () banked
  2397  001EDC  B4D8               	btfsc	status,2,c
  2398  001EDE  D017               	goto	l5141
  2399                           
  2400                           ; BSR set to: 0
  2401  001EE0  0100               	movlb	0	; () banked
  2402  001EE2  90D8               	bcf	status,0,c
  2403  001EE4  3780               	rlcf	___fldiv@rem& (0+255),f,b
  2404  001EE6  3781               	rlcf	(___fldiv@rem+1)& (0+255),f,b
  2405  001EE8  3782               	rlcf	(___fldiv@rem+2)& (0+255),f,b
  2406  001EEA  3783               	rlcf	(___fldiv@rem+3)& (0+255),f,b
  2407  001EEC  0100               	movlb	0	; () banked
  2408  001EEE  90D8               	bcf	status,0,c
  2409  001EF0  3773               	rlcf	___fldiv@b& (0+255),f,b
  2410  001EF2  3774               	rlcf	(___fldiv@b+1)& (0+255),f,b
  2411  001EF4  3775               	rlcf	(___fldiv@b+2)& (0+255),f,b
  2412  001EF6  3776               	rlcf	(___fldiv@b+3)& (0+255),f,b
  2413                           
  2414                           ; BSR set to: 0
  2415  001EF8  0100               	movlb	0	; () banked
  2416  001EFA  AF89               	btfss	(___fldiv@grs+3)& (0+255),7,b
  2417  001EFC  D002               	goto	l1286
  2418                           
  2419                           ; BSR set to: 0
  2420  001EFE  0100               	movlb	0	; () banked
  2421  001F00  8173               	bsf	___fldiv@b& (0+255),0,b
  2422  001F02                     l1286:
  2423                           
  2424                           ; BSR set to: 0
  2425  001F02  0100               	movlb	0	; () banked
  2426  001F04  90D8               	bcf	status,0,c
  2427  001F06  3786               	rlcf	___fldiv@grs& (0+255),f,b
  2428  001F08  3787               	rlcf	(___fldiv@grs+1)& (0+255),f,b
  2429  001F0A  3788               	rlcf	(___fldiv@grs+2)& (0+255),f,b
  2430  001F0C  3789               	rlcf	(___fldiv@grs+3)& (0+255),f,b
  2431  001F0E                     l5141:
  2432                           
  2433                           ; BSR set to: 0
  2434  001F0E  0100               	movlb	0	; () banked
  2435  001F10  5177               	movf	___fldiv@a& (0+255),w,b
  2436  001F12  0100               	movlb	0	; () banked
  2437  001F14  5D80               	subwf	___fldiv@rem& (0+255),w,b
  2438  001F16  0100               	movlb	0	; () banked
  2439  001F18  5178               	movf	(___fldiv@a+1)& (0+255),w,b
  2440  001F1A  0100               	movlb	0	; () banked
  2441  001F1C  5981               	subwfb	(___fldiv@rem+1)& (0+255),w,b
  2442  001F1E  0100               	movlb	0	; () banked
  2443  001F20  5179               	movf	(___fldiv@a+2)& (0+255),w,b
  2444  001F22  0100               	movlb	0	; () banked
  2445  001F24  5982               	subwfb	(___fldiv@rem+2)& (0+255),w,b
  2446  001F26  0100               	movlb	0	; () banked
  2447  001F28  517A               	movf	(___fldiv@a+3)& (0+255),w,b
  2448  001F2A  0100               	movlb	0	; () banked
  2449  001F2C  5983               	subwfb	(___fldiv@rem+3)& (0+255),w,b
  2450  001F2E  A0D8               	btfss	status,0,c
  2451  001F30  D012               	goto	l5147
  2452                           
  2453                           ; BSR set to: 0
  2454  001F32  0100               	movlb	0	; () banked
  2455  001F34  8D89               	bsf	(___fldiv@grs+3)& (0+255),6,b
  2456                           
  2457                           ; BSR set to: 0
  2458  001F36  0100               	movlb	0	; () banked
  2459  001F38  5177               	movf	___fldiv@a& (0+255),w,b
  2460  001F3A  0100               	movlb	0	; () banked
  2461  001F3C  5F80               	subwf	___fldiv@rem& (0+255),f,b
  2462  001F3E  0100               	movlb	0	; () banked
  2463  001F40  5178               	movf	(___fldiv@a+1)& (0+255),w,b
  2464  001F42  0100               	movlb	0	; () banked
  2465  001F44  5B81               	subwfb	(___fldiv@rem+1)& (0+255),f,b
  2466  001F46  0100               	movlb	0	; () banked
  2467  001F48  5179               	movf	(___fldiv@a+2)& (0+255),w,b
  2468  001F4A  0100               	movlb	0	; () banked
  2469  001F4C  5B82               	subwfb	(___fldiv@rem+2)& (0+255),f,b
  2470  001F4E  0100               	movlb	0	; () banked
  2471  001F50  517A               	movf	(___fldiv@a+3)& (0+255),w,b
  2472  001F52  0100               	movlb	0	; () banked
  2473  001F54  5B83               	subwfb	(___fldiv@rem+3)& (0+255),f,b
  2474  001F56                     l5147:
  2475                           
  2476                           ; BSR set to: 0
  2477  001F56  0100               	movlb	0	; () banked
  2478  001F58  2B8B               	incf	___fldiv@aexp& (0+255),f,b
  2479  001F5A                     l1283:
  2480                           
  2481                           ; BSR set to: 0
  2482  001F5A  0E19               	movlw	25
  2483  001F5C  0100               	movlb	0	; () banked
  2484  001F5E  658B               	cpfsgt	___fldiv@aexp& (0+255),b
  2485  001F60  D7BA               	goto	l5133
  2486                           
  2487                           ; BSR set to: 0
  2488                           
  2489                           ; BSR set to: 0
  2490  001F62  0100               	movlb	0	; () banked
  2491  001F64  5180               	movf	___fldiv@rem& (0+255),w,b
  2492  001F66  0100               	movlb	0	; () banked
  2493  001F68  1181               	iorwf	(___fldiv@rem+1)& (0+255),w,b
  2494  001F6A  0100               	movlb	0	; () banked
  2495  001F6C  1182               	iorwf	(___fldiv@rem+2)& (0+255),w,b
  2496  001F6E  0100               	movlb	0	; () banked
  2497  001F70  1183               	iorwf	(___fldiv@rem+3)& (0+255),w,b
  2498  001F72  B4D8               	btfsc	status,2,c
  2499  001F74  D018               	goto	l5159
  2500                           
  2501                           ; BSR set to: 0
  2502  001F76  0100               	movlb	0	; () banked
  2503  001F78  8186               	bsf	___fldiv@grs& (0+255),0,b
  2504                           
  2505                           ; BSR set to: 0
  2506  001F7A  D015               	goto	l5159
  2507  001F7C                     l5153:
  2508                           
  2509                           ; BSR set to: 0
  2510  001F7C  0100               	movlb	0	; () banked
  2511  001F7E  90D8               	bcf	status,0,c
  2512  001F80  3773               	rlcf	___fldiv@b& (0+255),f,b
  2513  001F82  3774               	rlcf	(___fldiv@b+1)& (0+255),f,b
  2514  001F84  3775               	rlcf	(___fldiv@b+2)& (0+255),f,b
  2515  001F86  3776               	rlcf	(___fldiv@b+3)& (0+255),f,b
  2516                           
  2517                           ; BSR set to: 0
  2518  001F88  0100               	movlb	0	; () banked
  2519  001F8A  AF89               	btfss	(___fldiv@grs+3)& (0+255),7,b
  2520  001F8C  D002               	goto	l1292
  2521                           
  2522                           ; BSR set to: 0
  2523  001F8E  0100               	movlb	0	; () banked
  2524  001F90  8173               	bsf	___fldiv@b& (0+255),0,b
  2525  001F92                     l1292:
  2526                           
  2527                           ; BSR set to: 0
  2528  001F92  0100               	movlb	0	; () banked
  2529  001F94  90D8               	bcf	status,0,c
  2530  001F96  3786               	rlcf	___fldiv@grs& (0+255),f,b
  2531  001F98  3787               	rlcf	(___fldiv@grs+1)& (0+255),f,b
  2532  001F9A  3788               	rlcf	(___fldiv@grs+2)& (0+255),f,b
  2533  001F9C  3789               	rlcf	(___fldiv@grs+3)& (0+255),f,b
  2534  001F9E  0100               	movlb	0	; () banked
  2535  001FA0  0784               	decf	___fldiv@new_exp& (0+255),f,b
  2536  001FA2  A0D8               	btfss	status,0,c
  2537  001FA4  0785               	decf	(___fldiv@new_exp+1)& (0+255),f,b
  2538  001FA6                     l5159:
  2539                           
  2540                           ; BSR set to: 0
  2541  001FA6  0100               	movlb	0	; () banked
  2542  001FA8  AF75               	btfss	(___fldiv@b+2)& (0+255),7,b
  2543  001FAA  D7E8               	goto	l5153
  2544                           
  2545                           ; BSR set to: 0
  2546                           
  2547                           ; BSR set to: 0
  2548  001FAC  0E00               	movlw	0
  2549  001FAE  0100               	movlb	0	; () banked
  2550  001FB0  6F8B               	movwf	___fldiv@aexp& (0+255),b
  2551                           
  2552                           ; BSR set to: 0
  2553  001FB2  0100               	movlb	0	; () banked
  2554  001FB4  AF89               	btfss	(___fldiv@grs+3)& (0+255),7,b
  2555  001FB6  D024               	goto	l1294
  2556                           
  2557                           ; BSR set to: 0
  2558  001FB8  0EFF               	movlw	255
  2559  001FBA  0100               	movlb	0	; () banked
  2560  001FBC  1586               	andwf	___fldiv@grs& (0+255),w,b
  2561  001FBE  0100               	movlb	0	; () banked
  2562  001FC0  6F7B               	movwf	??___fldiv& (0+255),b
  2563  001FC2  0EFF               	movlw	255
  2564  001FC4  0100               	movlb	0	; () banked
  2565  001FC6  1587               	andwf	(___fldiv@grs+1)& (0+255),w,b
  2566  001FC8  0100               	movlb	0	; () banked
  2567  001FCA  6F7C               	movwf	(??___fldiv+1)& (0+255),b
  2568  001FCC  0EFF               	movlw	255
  2569  001FCE  0100               	movlb	0	; () banked
  2570  001FD0  1588               	andwf	(___fldiv@grs+2)& (0+255),w,b
  2571  001FD2  0100               	movlb	0	; () banked
  2572  001FD4  6F7D               	movwf	(??___fldiv+2)& (0+255),b
  2573  001FD6  0E7F               	movlw	127
  2574  001FD8  0100               	movlb	0	; () banked
  2575  001FDA  1589               	andwf	(___fldiv@grs+3)& (0+255),w,b
  2576  001FDC  0100               	movlb	0	; () banked
  2577  001FDE  6F7E               	movwf	(??___fldiv+3)& (0+255),b
  2578  001FE0  0100               	movlb	0	; () banked
  2579  001FE2  517B               	movf	??___fldiv& (0+255),w,b
  2580  001FE4  0100               	movlb	0	; () banked
  2581  001FE6  117C               	iorwf	(??___fldiv+1)& (0+255),w,b
  2582  001FE8  0100               	movlb	0	; () banked
  2583  001FEA  117D               	iorwf	(??___fldiv+2)& (0+255),w,b
  2584  001FEC  0100               	movlb	0	; () banked
  2585  001FEE  117E               	iorwf	(??___fldiv+3)& (0+255),w,b
  2586  001FF0  A4D8               	btfss	status,2,c
  2587  001FF2  D003               	goto	l5169
  2588                           
  2589                           ; BSR set to: 0
  2590                           
  2591                           ; BSR set to: 0
  2592  001FF4  0100               	movlb	0	; () banked
  2593  001FF6  A173               	btfss	___fldiv@b& (0+255),0,b
  2594  001FF8  D003               	goto	l1294
  2595  001FFA                     l5169:
  2596                           
  2597                           ; BSR set to: 0
  2598  001FFA  0E01               	movlw	1
  2599  001FFC  0100               	movlb	0	; () banked
  2600  001FFE  6F8B               	movwf	___fldiv@aexp& (0+255),b
  2601  002000                     l1294:
  2602                           
  2603                           ; BSR set to: 0
  2604  002000  0100               	movlb	0	; () banked
  2605  002002  518B               	movf	___fldiv@aexp& (0+255),w,b
  2606  002004  0100               	movlb	0	; () banked
  2607  002006  B4D8               	btfsc	status,2,c
  2608  002008  D023               	goto	l5179
  2609                           
  2610                           ; BSR set to: 0
  2611  00200A  0E01               	movlw	1
  2612  00200C  0100               	movlb	0	; () banked
  2613  00200E  2773               	addwf	___fldiv@b& (0+255),f,b
  2614  002010  0E00               	movlw	0
  2615  002012  2374               	addwfc	(___fldiv@b+1)& (0+255),f,b
  2616  002014  2375               	addwfc	(___fldiv@b+2)& (0+255),f,b
  2617  002016  2376               	addwfc	(___fldiv@b+3)& (0+255),f,b
  2618                           
  2619                           ; BSR set to: 0
  2620  002018  0100               	movlb	0	; () banked
  2621  00201A  A176               	btfss	(___fldiv@b+3)& (0+255),0,b
  2622  00201C  D019               	goto	l5179
  2623                           
  2624                           ; BSR set to: 0
  2625  00201E  C073  F07B         	movff	___fldiv@b,??___fldiv
  2626  002022  C074  F07C         	movff	___fldiv@b+1,??___fldiv+1
  2627  002026  C075  F07D         	movff	___fldiv@b+2,??___fldiv+2
  2628  00202A  C076  F07E         	movff	___fldiv@b+3,??___fldiv+3
  2629  00202E  0100               	movlb	0	; () banked
  2630  002030  357E               	rlcf	(??___fldiv+3)& (0+255),w,b
  2631  002032  337E               	rrcf	(??___fldiv+3)& (0+255),f,b
  2632  002034  337D               	rrcf	(??___fldiv+2)& (0+255),f,b
  2633  002036  337C               	rrcf	(??___fldiv+1)& (0+255),f,b
  2634  002038  337B               	rrcf	??___fldiv& (0+255),f,b
  2635  00203A  C07B  F073         	movff	??___fldiv,___fldiv@b
  2636  00203E  C07C  F074         	movff	??___fldiv+1,___fldiv@b+1
  2637  002042  C07D  F075         	movff	??___fldiv+2,___fldiv@b+2
  2638  002046  C07E  F076         	movff	??___fldiv+3,___fldiv@b+3
  2639                           
  2640                           ; BSR set to: 0
  2641  00204A  0100               	movlb	0	; () banked
  2642  00204C  4B84               	infsnz	___fldiv@new_exp& (0+255),f,b
  2643  00204E  2B85               	incf	(___fldiv@new_exp+1)& (0+255),f,b
  2644  002050                     l5179:
  2645                           
  2646                           ; BSR set to: 0
  2647  002050  0100               	movlb	0	; () banked
  2648  002052  BF85               	btfsc	(___fldiv@new_exp+1)& (0+255),7,b
  2649  002054  D014               	goto	l5183
  2650  002056  0100               	movlb	0	; () banked
  2651  002058  5185               	movf	(___fldiv@new_exp+1)& (0+255),w,b
  2652  00205A  E104               	bnz	u5580
  2653  00205C  0100               	movlb	0	; () banked
  2654  00205E  2984               	incf	___fldiv@new_exp& (0+255),w,b
  2655  002060  A0D8               	btfss	status,0,c
  2656  002062  D00D               	goto	l5183
  2657  002064                     u5580:
  2658                           
  2659                           ; BSR set to: 0
  2660  002064  0E00               	movlw	0
  2661  002066  0100               	movlb	0	; () banked
  2662  002068  6F85               	movwf	(___fldiv@new_exp+1)& (0+255),b
  2663  00206A  6984               	setf	___fldiv@new_exp& (0+255),b
  2664  00206C  0E00               	movlw	0
  2665  00206E  0100               	movlb	0	; () banked
  2666  002070  6F73               	movwf	___fldiv@b& (0+255),b
  2667  002072  0E00               	movlw	0
  2668  002074  6F74               	movwf	(___fldiv@b+1)& (0+255),b
  2669  002076  0E00               	movlw	0
  2670  002078  6F75               	movwf	(___fldiv@b+2)& (0+255),b
  2671  00207A  0E00               	movlw	0
  2672  00207C  6F76               	movwf	(___fldiv@b+3)& (0+255),b
  2673  00207E                     l5183:
  2674                           
  2675                           ; BSR set to: 0
  2676  00207E  0100               	movlb	0	; () banked
  2677  002080  BF85               	btfsc	(___fldiv@new_exp+1)& (0+255),7,b
  2678  002082  D007               	goto	l5185
  2679  002084  0100               	movlb	0	; () banked
  2680  002086  5185               	movf	(___fldiv@new_exp+1)& (0+255),w,b
  2681  002088  E115               	bnz	l5187
  2682  00208A  0100               	movlb	0	; () banked
  2683  00208C  0584               	decf	___fldiv@new_exp& (0+255),w,b
  2684  00208E  B0D8               	btfsc	status,0,c
  2685  002090  D011               	goto	l5187
  2686  002092                     l5185:
  2687                           
  2688                           ; BSR set to: 0
  2689  002092  0E00               	movlw	0
  2690  002094  0100               	movlb	0	; () banked
  2691  002096  6F85               	movwf	(___fldiv@new_exp+1)& (0+255),b
  2692  002098  0E00               	movlw	0
  2693  00209A  6F84               	movwf	___fldiv@new_exp& (0+255),b
  2694  00209C  0E00               	movlw	0
  2695  00209E  0100               	movlb	0	; () banked
  2696  0020A0  6F73               	movwf	___fldiv@b& (0+255),b
  2697  0020A2  0E00               	movlw	0
  2698  0020A4  6F74               	movwf	(___fldiv@b+1)& (0+255),b
  2699  0020A6  0E00               	movlw	0
  2700  0020A8  6F75               	movwf	(___fldiv@b+2)& (0+255),b
  2701  0020AA  0E00               	movlw	0
  2702  0020AC  6F76               	movwf	(___fldiv@b+3)& (0+255),b
  2703  0020AE  0E00               	movlw	0
  2704  0020B0  0100               	movlb	0	; () banked
  2705  0020B2  6F7F               	movwf	___fldiv@sign& (0+255),b
  2706  0020B4                     l5187:
  2707                           
  2708                           ; BSR set to: 0
  2709  0020B4  C084  F08A         	movff	___fldiv@new_exp,___fldiv@bexp
  2710                           
  2711                           ; BSR set to: 0
  2712  0020B8  0100               	movlb	0	; () banked
  2713  0020BA  A18A               	btfss	___fldiv@bexp& (0+255),0,b
  2714  0020BC  D003               	goto	l5193
  2715                           
  2716                           ; BSR set to: 0
  2717  0020BE  0100               	movlb	0	; () banked
  2718  0020C0  8F75               	bsf	(___fldiv@b+2)& (0+255),7,b
  2719  0020C2  D002               	goto	l5195
  2720  0020C4                     l5193:
  2721                           
  2722                           ; BSR set to: 0
  2723  0020C4  0100               	movlb	0	; () banked
  2724  0020C6  9F75               	bcf	(___fldiv@b+2)& (0+255),7,b
  2725  0020C8                     l5195:
  2726                           
  2727                           ; BSR set to: 0
  2728  0020C8  0100               	movlb	0	; () banked
  2729  0020CA  90D8               	bcf	status,0,c
  2730  0020CC  318A               	rrcf	___fldiv@bexp& (0+255),w,b
  2731  0020CE  0100               	movlb	0	; () banked
  2732  0020D0  6F76               	movwf	(___fldiv@b+3)& (0+255),b
  2733                           
  2734                           ; BSR set to: 0
  2735  0020D2  0100               	movlb	0	; () banked
  2736  0020D4  517F               	movf	___fldiv@sign& (0+255),w,b
  2737  0020D6  0100               	movlb	0	; () banked
  2738  0020D8  1376               	iorwf	(___fldiv@b+3)& (0+255),f,b
  2739                           
  2740                           ; BSR set to: 0
  2741  0020DA  C073  F073         	movff	___fldiv@b,?___fldiv
  2742  0020DE  C074  F074         	movff	___fldiv@b+1,?___fldiv+1
  2743  0020E2  C075  F075         	movff	___fldiv@b+2,?___fldiv+2
  2744  0020E6  C076  F076         	movff	___fldiv@b+3,?___fldiv+3
  2745  0020EA  0012               	return	
  2746  0020EC                     __end_of___fldiv:
  2747                           	opt stack 0
  2748                           stkptr	equ	0xFFC
  2749                           tblptru	equ	0xFF8
  2750                           tblptrh	equ	0xFF7
  2751                           tblptrl	equ	0xFF6
  2752                           tablat	equ	0xFF5
  2753                           intcon	equ	0xFF2
  2754                           intcon2	equ	0xFF1
  2755                           postinc0	equ	0xFEE
  2756                           wreg	equ	0xFE8
  2757                           postdec1	equ	0xFE5
  2758                           fsr1l	equ	0xFE1
  2759                           status	equ	0xFD8
  2760                           
  2761 ;; *************** function ___aldiv *****************
  2762 ;; Defined at:
  2763 ;;		line 8 in file "C:\Program Files (x86)\Microchip\xc8\v1.42\sources\common\aldiv.c"
  2764 ;; Parameters:    Size  Location     Type
  2765 ;;  dividend        4   19[BANK0 ] long 
  2766 ;;  divisor         4   23[BANK0 ] long 
  2767 ;; Auto vars:     Size  Location     Type
  2768 ;;  quotient        4   29[BANK0 ] long 
  2769 ;;  sign            1   28[BANK0 ] unsigned char 
  2770 ;;  counter         1   27[BANK0 ] unsigned char 
  2771 ;; Return value:  Size  Location     Type
  2772 ;;                  4   19[BANK0 ] long 
  2773 ;; Registers used:
  2774 ;;		wreg, status,2, status,0
  2775 ;; Tracked objects:
  2776 ;;		On entry : 0/0
  2777 ;;		On exit  : 0/0
  2778 ;;		Unchanged: 0/0
  2779 ;; Data sizes:     COMRAM   BANK0   BANK1   BANK2   BANK3   BANK4   BANK5   BANK6   BANK7   BANK8   BANK9  BANK10  BANK1
      +1  BANK12  BANK13  BANK14  BANK15
  2780 ;;      Params:         0       8       0       0       0       0       0       0       0       0       0       0       
      +0       0       0       0       0
  2781 ;;      Locals:         0       6       0       0       0       0       0       0       0       0       0       0       
      +0       0       0       0       0
  2782 ;;      Temps:          0       0       0       0       0       0       0       0       0       0       0       0       
      +0       0       0       0       0
  2783 ;;      Totals:         0      14       0       0       0       0       0       0       0       0       0       0       
      +0       0       0       0       0
  2784 ;;Total ram usage:       14 bytes
  2785 ;; Hardware stack levels used:    1
  2786 ;; Hardware stack levels required when called:    7
  2787 ;; This function calls:
  2788 ;;		Nothing
  2789 ;; This function is called by:
  2790 ;;		_main
  2791 ;; This function uses a non-reentrant model
  2792 ;;
  2793                           
  2794                           	psect	text3
  2795  002DF2                     __ptext3:
  2796                           	opt stack 0
  2797  002DF2                     ___aldiv:
  2798                           	opt stack 23
  2799                           
  2800                           ; BSR set to: 0
  2801                           ;incstack = 0
  2802  002DF2  0E00               	movlw	0
  2803  002DF4  0100               	movlb	0	; () banked
  2804  002DF6  6F7C               	movwf	___aldiv@sign& (0+255),b
  2805                           
  2806                           ; BSR set to: 0
  2807  002DF8  0100               	movlb	0	; () banked
  2808  002DFA  AF7A               	btfss	(___aldiv@divisor+3)& (0+255),7,b
  2809  002DFC  D00C               	goto	l5031
  2810                           
  2811                           ; BSR set to: 0
  2812  002DFE  0100               	movlb	0	; () banked
  2813  002E00  1F7A               	comf	(___aldiv@divisor+3)& (0+255),f,b
  2814  002E02  1F79               	comf	(___aldiv@divisor+2)& (0+255),f,b
  2815  002E04  1F78               	comf	(___aldiv@divisor+1)& (0+255),f,b
  2816  002E06  6D77               	negf	___aldiv@divisor& (0+255),b
  2817  002E08  0E00               	movlw	0
  2818  002E0A  2378               	addwfc	(___aldiv@divisor+1)& (0+255),f,b
  2819  002E0C  2379               	addwfc	(___aldiv@divisor+2)& (0+255),f,b
  2820  002E0E  237A               	addwfc	(___aldiv@divisor+3)& (0+255),f,b
  2821                           
  2822                           ; BSR set to: 0
  2823  002E10  0E01               	movlw	1
  2824  002E12  0100               	movlb	0	; () banked
  2825  002E14  6F7C               	movwf	___aldiv@sign& (0+255),b
  2826  002E16                     l5031:
  2827                           
  2828                           ; BSR set to: 0
  2829  002E16  0100               	movlb	0	; () banked
  2830  002E18  AF76               	btfss	(___aldiv@dividend+3)& (0+255),7,b
  2831  002E1A  D00C               	goto	l5037
  2832                           
  2833                           ; BSR set to: 0
  2834  002E1C  0100               	movlb	0	; () banked
  2835  002E1E  1F76               	comf	(___aldiv@dividend+3)& (0+255),f,b
  2836  002E20  1F75               	comf	(___aldiv@dividend+2)& (0+255),f,b
  2837  002E22  1F74               	comf	(___aldiv@dividend+1)& (0+255),f,b
  2838  002E24  6D73               	negf	___aldiv@dividend& (0+255),b
  2839  002E26  0E00               	movlw	0
  2840  002E28  2374               	addwfc	(___aldiv@dividend+1)& (0+255),f,b
  2841  002E2A  2375               	addwfc	(___aldiv@dividend+2)& (0+255),f,b
  2842  002E2C  2376               	addwfc	(___aldiv@dividend+3)& (0+255),f,b
  2843                           
  2844                           ; BSR set to: 0
  2845  002E2E  0E01               	movlw	1
  2846  002E30  0100               	movlb	0	; () banked
  2847  002E32  1B7C               	xorwf	___aldiv@sign& (0+255),f,b
  2848  002E34                     l5037:
  2849                           
  2850                           ; BSR set to: 0
  2851  002E34  0E00               	movlw	0
  2852  002E36  0100               	movlb	0	; () banked
  2853  002E38  6F7D               	movwf	___aldiv@quotient& (0+255),b
  2854  002E3A  0E00               	movlw	0
  2855  002E3C  6F7E               	movwf	(___aldiv@quotient+1)& (0+255),b
  2856  002E3E  0E00               	movlw	0
  2857  002E40  6F7F               	movwf	(___aldiv@quotient+2)& (0+255),b
  2858  002E42  0E00               	movlw	0
  2859  002E44  6F80               	movwf	(___aldiv@quotient+3)& (0+255),b
  2860                           
  2861                           ; BSR set to: 0
  2862  002E46  0100               	movlb	0	; () banked
  2863  002E48  5177               	movf	___aldiv@divisor& (0+255),w,b
  2864  002E4A  0100               	movlb	0	; () banked
  2865  002E4C  1178               	iorwf	(___aldiv@divisor+1)& (0+255),w,b
  2866  002E4E  0100               	movlb	0	; () banked
  2867  002E50  1179               	iorwf	(___aldiv@divisor+2)& (0+255),w,b
  2868  002E52  0100               	movlb	0	; () banked
  2869  002E54  117A               	iorwf	(___aldiv@divisor+3)& (0+255),w,b
  2870  002E56  B4D8               	btfsc	status,2,c
  2871  002E58  D042               	goto	l5059
  2872                           
  2873                           ; BSR set to: 0
  2874  002E5A  0E01               	movlw	1
  2875  002E5C  0100               	movlb	0	; () banked
  2876  002E5E  6F7B               	movwf	___aldiv@counter& (0+255),b
  2877  002E60  D008               	goto	l5045
  2878  002E62                     l5043:
  2879                           
  2880                           ; BSR set to: 0
  2881  002E62  0100               	movlb	0	; () banked
  2882  002E64  90D8               	bcf	status,0,c
  2883  002E66  3777               	rlcf	___aldiv@divisor& (0+255),f,b
  2884  002E68  3778               	rlcf	(___aldiv@divisor+1)& (0+255),f,b
  2885  002E6A  3779               	rlcf	(___aldiv@divisor+2)& (0+255),f,b
  2886  002E6C  377A               	rlcf	(___aldiv@divisor+3)& (0+255),f,b
  2887  002E6E  0100               	movlb	0	; () banked
  2888  002E70  2B7B               	incf	___aldiv@counter& (0+255),f,b
  2889  002E72                     l5045:
  2890                           
  2891                           ; BSR set to: 0
  2892  002E72  0100               	movlb	0	; () banked
  2893  002E74  AF7A               	btfss	(___aldiv@divisor+3)& (0+255),7,b
  2894  002E76  D7F5               	goto	l5043
  2895  002E78                     l5047:
  2896                           
  2897                           ; BSR set to: 0
  2898  002E78  0100               	movlb	0	; () banked
  2899  002E7A  90D8               	bcf	status,0,c
  2900  002E7C  377D               	rlcf	___aldiv@quotient& (0+255),f,b
  2901  002E7E  377E               	rlcf	(___aldiv@quotient+1)& (0+255),f,b
  2902  002E80  377F               	rlcf	(___aldiv@quotient+2)& (0+255),f,b
  2903  002E82  3780               	rlcf	(___aldiv@quotient+3)& (0+255),f,b
  2904                           
  2905                           ; BSR set to: 0
  2906  002E84  0100               	movlb	0	; () banked
  2907  002E86  5177               	movf	___aldiv@divisor& (0+255),w,b
  2908  002E88  0100               	movlb	0	; () banked
  2909  002E8A  5D73               	subwf	___aldiv@dividend& (0+255),w,b
  2910  002E8C  0100               	movlb	0	; () banked
  2911  002E8E  5178               	movf	(___aldiv@divisor+1)& (0+255),w,b
  2912  002E90  0100               	movlb	0	; () banked
  2913  002E92  5974               	subwfb	(___aldiv@dividend+1)& (0+255),w,b
  2914  002E94  0100               	movlb	0	; () banked
  2915  002E96  5179               	movf	(___aldiv@divisor+2)& (0+255),w,b
  2916  002E98  0100               	movlb	0	; () banked
  2917  002E9A  5975               	subwfb	(___aldiv@dividend+2)& (0+255),w,b
  2918  002E9C  0100               	movlb	0	; () banked
  2919  002E9E  517A               	movf	(___aldiv@divisor+3)& (0+255),w,b
  2920  002EA0  0100               	movlb	0	; () banked
  2921  002EA2  5976               	subwfb	(___aldiv@dividend+3)& (0+255),w,b
  2922  002EA4  A0D8               	btfss	status,0,c
  2923  002EA6  D012               	goto	l5055
  2924                           
  2925                           ; BSR set to: 0
  2926  002EA8  0100               	movlb	0	; () banked
  2927  002EAA  5177               	movf	___aldiv@divisor& (0+255),w,b
  2928  002EAC  0100               	movlb	0	; () banked
  2929  002EAE  5F73               	subwf	___aldiv@dividend& (0+255),f,b
  2930  002EB0  0100               	movlb	0	; () banked
  2931  002EB2  5178               	movf	(___aldiv@divisor+1)& (0+255),w,b
  2932  002EB4  0100               	movlb	0	; () banked
  2933  002EB6  5B74               	subwfb	(___aldiv@dividend+1)& (0+255),f,b
  2934  002EB8  0100               	movlb	0	; () banked
  2935  002EBA  5179               	movf	(___aldiv@divisor+2)& (0+255),w,b
  2936  002EBC  0100               	movlb	0	; () banked
  2937  002EBE  5B75               	subwfb	(___aldiv@dividend+2)& (0+255),f,b
  2938  002EC0  0100               	movlb	0	; () banked
  2939  002EC2  517A               	movf	(___aldiv@divisor+3)& (0+255),w,b
  2940  002EC4  0100               	movlb	0	; () banked
  2941  002EC6  5B76               	subwfb	(___aldiv@dividend+3)& (0+255),f,b
  2942                           
  2943                           ; BSR set to: 0
  2944  002EC8  0100               	movlb	0	; () banked
  2945  002ECA  817D               	bsf	___aldiv@quotient& (0+255),0,b
  2946  002ECC                     l5055:
  2947                           
  2948                           ; BSR set to: 0
  2949  002ECC  0100               	movlb	0	; () banked
  2950  002ECE  90D8               	bcf	status,0,c
  2951  002ED0  337A               	rrcf	(___aldiv@divisor+3)& (0+255),f,b
  2952  002ED2  3379               	rrcf	(___aldiv@divisor+2)& (0+255),f,b
  2953  002ED4  3378               	rrcf	(___aldiv@divisor+1)& (0+255),f,b
  2954  002ED6  3377               	rrcf	___aldiv@divisor& (0+255),f,b
  2955                           
  2956                           ; BSR set to: 0
  2957  002ED8  0100               	movlb	0	; () banked
  2958  002EDA  2F7B               	decfsz	___aldiv@counter& (0+255),f,b
  2959  002EDC  D7CD               	goto	l5047
  2960  002EDE                     l5059:
  2961                           
  2962                           ; BSR set to: 0
  2963  002EDE  0100               	movlb	0	; () banked
  2964  002EE0  517C               	movf	___aldiv@sign& (0+255),w,b
  2965  002EE2  0100               	movlb	0	; () banked
  2966  002EE4  B4D8               	btfsc	status,2,c
  2967  002EE6  D009               	goto	l5063
  2968                           
  2969                           ; BSR set to: 0
  2970  002EE8  0100               	movlb	0	; () banked
  2971  002EEA  1F80               	comf	(___aldiv@quotient+3)& (0+255),f,b
  2972  002EEC  1F7F               	comf	(___aldiv@quotient+2)& (0+255),f,b
  2973  002EEE  1F7E               	comf	(___aldiv@quotient+1)& (0+255),f,b
  2974  002EF0  6D7D               	negf	___aldiv@quotient& (0+255),b
  2975  002EF2  0E00               	movlw	0
  2976  002EF4  237E               	addwfc	(___aldiv@quotient+1)& (0+255),f,b
  2977  002EF6  237F               	addwfc	(___aldiv@quotient+2)& (0+255),f,b
  2978  002EF8  2380               	addwfc	(___aldiv@quotient+3)& (0+255),f,b
  2979  002EFA                     l5063:
  2980                           
  2981                           ; BSR set to: 0
  2982  002EFA  C07D  F073         	movff	___aldiv@quotient,?___aldiv
  2983  002EFE  C07E  F074         	movff	___aldiv@quotient+1,?___aldiv+1
  2984  002F02  C07F  F075         	movff	___aldiv@quotient+2,?___aldiv+2
  2985  002F06  C080  F076         	movff	___aldiv@quotient+3,?___aldiv+3
  2986  002F0A  0012               	return	
  2987  002F0C                     __end_of___aldiv:
  2988                           	opt stack 0
  2989                           stkptr	equ	0xFFC
  2990                           tblptru	equ	0xFF8
  2991                           tblptrh	equ	0xFF7
  2992                           tblptrl	equ	0xFF6
  2993                           tablat	equ	0xFF5
  2994                           intcon	equ	0xFF2
  2995                           intcon2	equ	0xFF1
  2996                           postinc0	equ	0xFEE
  2997                           wreg	equ	0xFE8
  2998                           postdec1	equ	0xFE5
  2999                           fsr1l	equ	0xFE1
  3000                           status	equ	0xFD8
  3001                           
  3002 ;; *************** function _Set_Timer5 *****************
  3003 ;; Defined at:
  3004 ;;		line 112 in file "TIMERS_XC8.c"
  3005 ;; Parameters:    Size  Location     Type
  3006 ;;  data_timer      2   19[BANK0 ] unsigned int 
  3007 ;; Auto vars:     Size  Location     Type
  3008 ;;		None
  3009 ;; Return value:  Size  Location     Type
  3010 ;;                  1    wreg      void 
  3011 ;; Registers used:
  3012 ;;		wreg, status,2
  3013 ;; Tracked objects:
  3014 ;;		On entry : 0/0
  3015 ;;		On exit  : 0/0
  3016 ;;		Unchanged: 0/0
  3017 ;; Data sizes:     COMRAM   BANK0   BANK1   BANK2   BANK3   BANK4   BANK5   BANK6   BANK7   BANK8   BANK9  BANK10  BANK1
      +1  BANK12  BANK13  BANK14  BANK15
  3018 ;;      Params:         0       2       0       0       0       0       0       0       0       0       0       0       
      +0       0       0       0       0
  3019 ;;      Locals:         0       0       0       0       0       0       0       0       0       0       0       0       
      +0       0       0       0       0
  3020 ;;      Temps:          0       0       0       0       0       0       0       0       0       0       0       0       
      +0       0       0       0       0
  3021 ;;      Totals:         0       2       0       0       0       0       0       0       0       0       0       0       
      +0       0       0       0       0
  3022 ;;Total ram usage:        2 bytes
  3023 ;; Hardware stack levels used:    1
  3024 ;; Hardware stack levels required when called:    7
  3025 ;; This function calls:
  3026 ;;		Nothing
  3027 ;; This function is called by:
  3028 ;;		_main
  3029 ;; This function uses a non-reentrant model
  3030 ;;
  3031                           
  3032                           	psect	text4
  3033  0033F6                     __ptext4:
  3034                           	opt stack 0
  3035  0033F6                     _Set_Timer5:
  3036                           	opt stack 23
  3037                           
  3038                           ;TIMERS_XC8.c: 114: TMR5H = data_timer >> 8;
  3039                           
  3040                           ; BSR set to: 0
  3041                           ;incstack = 0
  3042  0033F6  0100               	movlb	0	; () banked
  3043  0033F8  5174               	movf	(Set_Timer5@data_timer+1)& (0+255),w,b
  3044  0033FA  010F               	movlb	15	; () banked
  3045  0033FC  6F50               	movwf	80,b	;volatile
  3046                           
  3047                           ; BSR set to: 15
  3048                           ;TIMERS_XC8.c: 115: TMR5L = data_timer & 0x00FF;
  3049  0033FE  C073  FF4F         	movff	Set_Timer5@data_timer,3919	;volatile
  3050                           
  3051                           ; BSR set to: 15
  3052  003402  0012               	return		;funcret
  3053  003404                     __end_of_Set_Timer5:
  3054                           	opt stack 0
  3055                           stkptr	equ	0xFFC
  3056                           tblptru	equ	0xFF8
  3057                           tblptrh	equ	0xFF7
  3058                           tblptrl	equ	0xFF6
  3059                           tablat	equ	0xFF5
  3060                           intcon	equ	0xFF2
  3061                           intcon2	equ	0xFF1
  3062                           postinc0	equ	0xFEE
  3063                           wreg	equ	0xFE8
  3064                           postdec1	equ	0xFE5
  3065                           fsr1l	equ	0xFE1
  3066                           status	equ	0xFD8
  3067                           
  3068 ;; *************** function _I2C_Master_Init *****************
  3069 ;; Defined at:
  3070 ;;		line 21 in file "ConfigI2c.c"
  3071 ;; Parameters:    Size  Location     Type
  3072 ;;		None
  3073 ;; Auto vars:     Size  Location     Type
  3074 ;;		None
  3075 ;; Return value:  Size  Location     Type
  3076 ;;                  1    wreg      void 
  3077 ;; Registers used:
  3078 ;;		wreg, status,2
  3079 ;; Tracked objects:
  3080 ;;		On entry : 0/0
  3081 ;;		On exit  : 0/0
  3082 ;;		Unchanged: 0/0
  3083 ;; Data sizes:     COMRAM   BANK0   BANK1   BANK2   BANK3   BANK4   BANK5   BANK6   BANK7   BANK8   BANK9  BANK10  BANK1
      +1  BANK12  BANK13  BANK14  BANK15
  3084 ;;      Params:         0       0       0       0       0       0       0       0       0       0       0       0       
      +0       0       0       0       0
  3085 ;;      Locals:         0       0       0       0       0       0       0       0       0       0       0       0       
      +0       0       0       0       0
  3086 ;;      Temps:          0       0       0       0       0       0       0       0       0       0       0       0       
      +0       0       0       0       0
  3087 ;;      Totals:         0       0       0       0       0       0       0       0       0       0       0       0       
      +0       0       0       0       0
  3088 ;;Total ram usage:        0 bytes
  3089 ;; Hardware stack levels used:    1
  3090 ;; Hardware stack levels required when called:    7
  3091 ;; This function calls:
  3092 ;;		Nothing
  3093 ;; This function is called by:
  3094 ;;		_main
  3095 ;; This function uses a non-reentrant model
  3096 ;;
  3097                           
  3098                           	psect	text5
  3099  003348                     __ptext5:
  3100                           	opt stack 0
  3101  003348                     _I2C_Master_Init:
  3102                           	opt stack 23
  3103                           
  3104                           ;ConfigI2c.c: 24: ANSELD = 0x00;
  3105                           
  3106                           ; BSR set to: 15
  3107                           ;incstack = 0
  3108  003348  0E00               	movlw	0
  3109  00334A  010F               	movlb	15	; () banked
  3110  00334C  6F3B               	movwf	59,b	;volatile
  3111                           
  3112                           ; BSR set to: 15
  3113                           ;ConfigI2c.c: 27: TRISDbits.RD0 = 1;
  3114  00334E  8095               	bsf	3989,0,c	;volatile
  3115                           
  3116                           ; BSR set to: 15
  3117                           ;ConfigI2c.c: 28: TRISDbits.RD1 = 1;
  3118  003350  8295               	bsf	3989,1,c	;volatile
  3119                           
  3120                           ;ConfigI2c.c: 30: SSP2CON1 = 0b00101000;
  3121  003352  0E28               	movlw	40
  3122  003354  6E6C               	movwf	3948,c	;volatile
  3123                           
  3124                           ;ConfigI2c.c: 31: SSP2CON2 = 0;
  3125  003356  0E00               	movlw	0
  3126  003358  6E6B               	movwf	3947,c	;volatile
  3127                           
  3128                           ;ConfigI2c.c: 32: SSP2ADD = ((40000000/(400000))-1);
  3129  00335A  0E63               	movlw	99
  3130  00335C  6E6E               	movwf	3950,c	;volatile
  3131                           
  3132                           ;ConfigI2c.c: 33: SSP2STAT = 0;
  3133  00335E  0E00               	movlw	0
  3134  003360  6E6D               	movwf	3949,c	;volatile
  3135                           
  3136                           ; BSR set to: 15
  3137  003362  0012               	return		;funcret
  3138  003364                     __end_of_I2C_Master_Init:
  3139                           	opt stack 0
  3140                           stkptr	equ	0xFFC
  3141                           tblptru	equ	0xFF8
  3142                           tblptrh	equ	0xFF7
  3143                           tblptrl	equ	0xFF6
  3144                           tablat	equ	0xFF5
  3145                           intcon	equ	0xFF2
  3146                           intcon2	equ	0xFF1
  3147                           postinc0	equ	0xFEE
  3148                           wreg	equ	0xFE8
  3149                           postdec1	equ	0xFE5
  3150                           fsr1l	equ	0xFE1
  3151                           status	equ	0xFD8
  3152                           
  3153 ;; *************** function _Control_ml_ign *****************
  3154 ;; Defined at:
  3155 ;;		line 1254 in file "main.c"
  3156 ;; Parameters:    Size  Location     Type
  3157 ;;		None
  3158 ;; Auto vars:     Size  Location     Type
  3159 ;;		None
  3160 ;; Return value:  Size  Location     Type
  3161 ;;                  1    wreg      void 
  3162 ;; Registers used:
  3163 ;;		wreg, status,2, status,0, prodl, prodh, cstack
  3164 ;; Tracked objects:
  3165 ;;		On entry : 0/0
  3166 ;;		On exit  : 0/0
  3167 ;;		Unchanged: 0/0
  3168 ;; Data sizes:     COMRAM   BANK0   BANK1   BANK2   BANK3   BANK4   BANK5   BANK6   BANK7   BANK8   BANK9  BANK10  BANK1
      +1  BANK12  BANK13  BANK14  BANK15
  3169 ;;      Params:         0       0       0       0       0       0       0       0       0       0       0       0       
      +0       0       0       0       0
  3170 ;;      Locals:         0       0       8       0       0       0       0       0       0       0       0       0       
      +0       0       0       0       0
  3171 ;;      Temps:          0       0       0       0       0       0       0       0       0       0       0       0       
      +0       0       0       0       0
  3172 ;;      Totals:         0       0       8       0       0       0       0       0       0       0       0       0       
      +0       0       0       0       0
  3173 ;;Total ram usage:        8 bytes
  3174 ;; Hardware stack levels used:    1
  3175 ;; Hardware stack levels required when called:    8
  3176 ;; This function calls:
  3177 ;;		___fladd
  3178 ;;		___flge
  3179 ;;		___flmul
  3180 ;;		___flneg
  3181 ;;		___xxtofl
  3182 ;; This function is called by:
  3183 ;;		_main
  3184 ;; This function uses a non-reentrant model
  3185 ;;
  3186                           
  3187                           	psect	text6
  3188  0026F0                     __ptext6:
  3189                           	opt stack 0
  3190  0026F0                     _Control_ml_ign:
  3191                           	opt stack 22
  3192                           
  3193                           ;main.c: 1256: Erro_RPM = SP_rpm - rotacao_peralta;
  3194                           
  3195                           ; BSR set to: 15
  3196                           ;incstack = 0
  3197  0026F0  C0CB  F073         	movff	_rotacao_peralta,___xxtofl@val
  3198  0026F4  C0CC  F074         	movff	_rotacao_peralta+1,___xxtofl@val+1
  3199  0026F8  0100               	movlb	0	; () banked
  3200  0026FA  0E00               	movlw	0
  3201  0026FC  BF74               	btfsc	(___xxtofl@val+1)& (0+255),7,b
  3202  0026FE  0EFF               	movlw	-1
  3203  002700  6F75               	movwf	(___xxtofl@val+2)& (0+255),b
  3204  002702  6F76               	movwf	(___xxtofl@val+3)& (0+255),b
  3205  002704  0E01               	movlw	1
  3206  002706  ECA2  F014         	call	___xxtofl
  3207  00270A  C073  F081         	movff	?___xxtofl,___flneg@f1
  3208  00270E  C074  F082         	movff	?___xxtofl+1,___flneg@f1+1
  3209  002712  C075  F083         	movff	?___xxtofl+2,___flneg@f1+2
  3210  002716  C076  F084         	movff	?___xxtofl+3,___flneg@f1+3
  3211  00271A  EC53  F019         	call	___flneg	;wreg free
  3212  00271E  C081  F085         	movff	?___flneg,___fladd@b
  3213  002722  C082  F086         	movff	?___flneg+1,___fladd@b+1
  3214  002726  C083  F087         	movff	?___flneg+2,___fladd@b+2
  3215  00272A  C084  F088         	movff	?___flneg+3,___fladd@b+3
  3216  00272E  C18F  F089         	movff	_SP_rpm,___fladd@a
  3217  002732  C190  F08A         	movff	_SP_rpm+1,___fladd@a+1
  3218  002736  C191  F08B         	movff	_SP_rpm+2,___fladd@a+2
  3219  00273A  C192  F08C         	movff	_SP_rpm+3,___fladd@a+3
  3220  00273E  ECEF  F009         	call	___fladd	;wreg free
  3221  002742  C085  F13C         	movff	?___fladd,_Erro_RPM
  3222  002746  C086  F13D         	movff	?___fladd+1,_Erro_RPM+1
  3223  00274A  C087  F13E         	movff	?___fladd+2,_Erro_RPM+2
  3224  00274E  C088  F13F         	movff	?___fladd+3,_Erro_RPM+3
  3225                           
  3226                           ;main.c: 1259: u = K * Erro_RPM - K * z * Erro_RPM_ant + u_ant;
  3227  002752  C187  F09D         	movff	_z,___flmul@a
  3228  002756  C188  F09E         	movff	_z+1,___flmul@a+1
  3229  00275A  C189  F09F         	movff	_z+2,___flmul@a+2
  3230  00275E  C18A  F0A0         	movff	_z+3,___flmul@a+3
  3231  002762  C18B  F099         	movff	_K,___flmul@b
  3232  002766  C18C  F09A         	movff	_K+1,___flmul@b+1
  3233  00276A  C18D  F09B         	movff	_K+2,___flmul@b+2
  3234  00276E  C18E  F09C         	movff	_K+3,___flmul@b+3
  3235  002772  EC43  F00C         	call	___flmul	;wreg free
  3236  002776  C099  F17B         	movff	?___flmul,_Control_ml_ign$3227
  3237  00277A  C09A  F17C         	movff	?___flmul+1,_Control_ml_ign$3227+1
  3238  00277E  C09B  F17D         	movff	?___flmul+2,_Control_ml_ign$3227+2
  3239  002782  C09C  F17E         	movff	?___flmul+3,_Control_ml_ign$3227+3
  3240                           
  3241                           ;main.c: 1259: u = K * Erro_RPM - K * z * Erro_RPM_ant + u_ant;
  3242  002786  C138  F09D         	movff	_Erro_RPM_ant,___flmul@a
  3243  00278A  C139  F09E         	movff	_Erro_RPM_ant+1,___flmul@a+1
  3244  00278E  C13A  F09F         	movff	_Erro_RPM_ant+2,___flmul@a+2
  3245  002792  C13B  F0A0         	movff	_Erro_RPM_ant+3,___flmul@a+3
  3246  002796  C17B  F099         	movff	_Control_ml_ign$3227,___flmul@b
  3247  00279A  C17C  F09A         	movff	_Control_ml_ign$3227+1,___flmul@b+1
  3248  00279E  C17D  F09B         	movff	_Control_ml_ign$3227+2,___flmul@b+2
  3249  0027A2  C17E  F09C         	movff	_Control_ml_ign$3227+3,___flmul@b+3
  3250  0027A6  EC43  F00C         	call	___flmul	;wreg free
  3251  0027AA  C099  F081         	movff	?___flmul,___flneg@f1
  3252  0027AE  C09A  F082         	movff	?___flmul+1,___flneg@f1+1
  3253  0027B2  C09B  F083         	movff	?___flmul+2,___flneg@f1+2
  3254  0027B6  C09C  F084         	movff	?___flmul+3,___flneg@f1+3
  3255  0027BA  EC53  F019         	call	___flneg	;wreg free
  3256  0027BE  C081  F089         	movff	?___flneg,___fladd@a
  3257  0027C2  C082  F08A         	movff	?___flneg+1,___fladd@a+1
  3258  0027C6  C083  F08B         	movff	?___flneg+2,___fladd@a+2
  3259  0027CA  C084  F08C         	movff	?___flneg+3,___fladd@a+3
  3260  0027CE  C13C  F09D         	movff	_Erro_RPM,___flmul@a
  3261  0027D2  C13D  F09E         	movff	_Erro_RPM+1,___flmul@a+1
  3262  0027D6  C13E  F09F         	movff	_Erro_RPM+2,___flmul@a+2
  3263  0027DA  C13F  F0A0         	movff	_Erro_RPM+3,___flmul@a+3
  3264  0027DE  C18B  F099         	movff	_K,___flmul@b
  3265  0027E2  C18C  F09A         	movff	_K+1,___flmul@b+1
  3266  0027E6  C18D  F09B         	movff	_K+2,___flmul@b+2
  3267  0027EA  C18E  F09C         	movff	_K+3,___flmul@b+3
  3268  0027EE  EC43  F00C         	call	___flmul	;wreg free
  3269  0027F2  C099  F085         	movff	?___flmul,___fladd@b
  3270  0027F6  C09A  F086         	movff	?___flmul+1,___fladd@b+1
  3271  0027FA  C09B  F087         	movff	?___flmul+2,___fladd@b+2
  3272  0027FE  C09C  F088         	movff	?___flmul+3,___fladd@b+3
  3273  002802  ECEF  F009         	call	___fladd	;wreg free
  3274  002806  C085  F17F         	movff	?___fladd,_Control_ml_ign$3228
  3275  00280A  C086  F180         	movff	?___fladd+1,_Control_ml_ign$3228+1
  3276  00280E  C087  F181         	movff	?___fladd+2,_Control_ml_ign$3228+2
  3277  002812  C088  F182         	movff	?___fladd+3,_Control_ml_ign$3228+3
  3278                           
  3279                           ;main.c: 1259: u = K * Erro_RPM - K * z * Erro_RPM_ant + u_ant;
  3280  002816  C17F  F085         	movff	_Control_ml_ign$3228,___fladd@b
  3281  00281A  C180  F086         	movff	_Control_ml_ign$3228+1,___fladd@b+1
  3282  00281E  C181  F087         	movff	_Control_ml_ign$3228+2,___fladd@b+2
  3283  002822  C182  F088         	movff	_Control_ml_ign$3228+3,___fladd@b+3
  3284  002826  C134  F089         	movff	_u_ant,___fladd@a
  3285  00282A  C135  F08A         	movff	_u_ant+1,___fladd@a+1
  3286  00282E  C136  F08B         	movff	_u_ant+2,___fladd@a+2
  3287  002832  C137  F08C         	movff	_u_ant+3,___fladd@a+3
  3288  002836  ECEF  F009         	call	___fladd	;wreg free
  3289  00283A  C085  F0AF         	movff	?___fladd,_u
  3290  00283E  C086  F0B0         	movff	?___fladd+1,_u+1
  3291  002842  C087  F0B1         	movff	?___fladd+2,_u+2
  3292  002846  C088  F0B2         	movff	?___fladd+3,_u+3
  3293                           
  3294                           ;main.c: 1261: if (Erro_RPM > 60)
  3295  00284A  0E00               	movlw	0
  3296  00284C  0100               	movlb	0	; () banked
  3297  00284E  6F73               	movwf	___flge@ff1& (0+255),b
  3298  002850  0E00               	movlw	0
  3299  002852  6F74               	movwf	(___flge@ff1+1)& (0+255),b
  3300  002854  0E70               	movlw	112
  3301  002856  6F75               	movwf	(___flge@ff1+2)& (0+255),b
  3302  002858  0E42               	movlw	66
  3303  00285A  6F76               	movwf	(___flge@ff1+3)& (0+255),b
  3304  00285C  C13C  F077         	movff	_Erro_RPM,___flge@ff2
  3305  002860  C13D  F078         	movff	_Erro_RPM+1,___flge@ff2+1
  3306  002864  C13E  F079         	movff	_Erro_RPM+2,___flge@ff2+2
  3307  002868  C13F  F07A         	movff	_Erro_RPM+3,___flge@ff2+3
  3308  00286C  EC89  F015         	call	___flge	;wreg free
  3309  002870  0100               	movlb	0	; () banked
  3310  002872  B0D8               	btfsc	status,0,c
  3311  002874  D012               	goto	l6783
  3312                           
  3313                           ; BSR set to: 0
  3314                           ;main.c: 1262: {
  3315                           ;main.c: 1263: K = 0.44546;
  3316  002876  0E55               	movlw	85
  3317  002878  0101               	movlb	1	; () banked
  3318  00287A  6F8B               	movwf	_K& (0+255),b
  3319  00287C  0E13               	movlw	19
  3320  00287E  6F8C               	movwf	(_K+1)& (0+255),b
  3321  002880  0EE4               	movlw	228
  3322  002882  6F8D               	movwf	(_K+2)& (0+255),b
  3323  002884  0E3E               	movlw	62
  3324  002886  6F8E               	movwf	(_K+3)& (0+255),b
  3325                           
  3326                           ;main.c: 1264: teto_avanco = 35;
  3327  002888  0E00               	movlw	0
  3328  00288A  0101               	movlb	1	; () banked
  3329  00288C  6F93               	movwf	_teto_avanco& (0+255),b
  3330  00288E  0E00               	movlw	0
  3331  002890  6F94               	movwf	(_teto_avanco+1)& (0+255),b
  3332  002892  0E0C               	movlw	12
  3333  002894  6F95               	movwf	(_teto_avanco+2)& (0+255),b
  3334  002896  0E42               	movlw	66
  3335  002898  D011               	goto	L3
  3336  00289A                     l6783:
  3337                           
  3338                           ;main.c: 1266: else
  3339                           ;main.c: 1267: {
  3340                           ;main.c: 1268: K = 0.24546;
  3341  00289A  0EDE               	movlw	222
  3342  00289C  0101               	movlb	1	; () banked
  3343  00289E  6F8B               	movwf	_K& (0+255),b
  3344  0028A0  0E59               	movlw	89
  3345  0028A2  6F8C               	movwf	(_K+1)& (0+255),b
  3346  0028A4  0E7B               	movlw	123
  3347  0028A6  6F8D               	movwf	(_K+2)& (0+255),b
  3348  0028A8  0E3E               	movlw	62
  3349  0028AA  6F8E               	movwf	(_K+3)& (0+255),b
  3350                           
  3351                           ;main.c: 1269: teto_avanco = 21;
  3352  0028AC  0E00               	movlw	0
  3353  0028AE  0101               	movlb	1	; () banked
  3354  0028B0  6F93               	movwf	_teto_avanco& (0+255),b
  3355  0028B2  0E00               	movlw	0
  3356  0028B4  6F94               	movwf	(_teto_avanco+1)& (0+255),b
  3357  0028B6  0EA8               	movlw	168
  3358  0028B8  6F95               	movwf	(_teto_avanco+2)& (0+255),b
  3359  0028BA  0E41               	movlw	65
  3360  0028BC                     L3:
  3361  0028BC  6F96               	movwf	(_teto_avanco+3)& (0+255),b
  3362                           
  3363                           ; BSR set to: 1
  3364                           ;main.c: 1271: }
  3365                           ;main.c: 1272: if (u > teto_avanco)
  3366                           
  3367                           ; BSR set to: 1
  3368  0028BE  C193  F073         	movff	_teto_avanco,___flge@ff1
  3369  0028C2  C194  F074         	movff	_teto_avanco+1,___flge@ff1+1
  3370  0028C6  C195  F075         	movff	_teto_avanco+2,___flge@ff1+2
  3371  0028CA  C196  F076         	movff	_teto_avanco+3,___flge@ff1+3
  3372  0028CE  C0AF  F077         	movff	_u,___flge@ff2
  3373  0028D2  C0B0  F078         	movff	_u+1,___flge@ff2+1
  3374  0028D6  C0B1  F079         	movff	_u+2,___flge@ff2+2
  3375  0028DA  C0B2  F07A         	movff	_u+3,___flge@ff2+3
  3376  0028DE  EC89  F015         	call	___flge	;wreg free
  3377  0028E2  0100               	movlb	0	; () banked
  3378  0028E4  B0D8               	btfsc	status,0,c
  3379  0028E6  D011               	goto	l6791
  3380                           
  3381                           ; BSR set to: 0
  3382                           ;main.c: 1273: {
  3383                           ;main.c: 1274: u = teto_avanco;
  3384  0028E8  C193  F0AF         	movff	_teto_avanco,_u
  3385  0028EC  C194  F0B0         	movff	_teto_avanco+1,_u+1
  3386  0028F0  C195  F0B1         	movff	_teto_avanco+2,_u+2
  3387  0028F4  C196  F0B2         	movff	_teto_avanco+3,_u+3
  3388                           
  3389                           ; BSR set to: 0
  3390                           ;main.c: 1275: Erro_RPM_ant = 0;
  3391  0028F8  0E00               	movlw	0
  3392  0028FA  0101               	movlb	1	; () banked
  3393  0028FC  6F38               	movwf	_Erro_RPM_ant& (0+255),b
  3394  0028FE  0E00               	movlw	0
  3395  002900  6F39               	movwf	(_Erro_RPM_ant+1)& (0+255),b
  3396  002902  0E00               	movlw	0
  3397  002904  6F3A               	movwf	(_Erro_RPM_ant+2)& (0+255),b
  3398  002906  0E00               	movlw	0
  3399  002908  6F3B               	movwf	(_Erro_RPM_ant+3)& (0+255),b
  3400  00290A                     l6791:
  3401                           
  3402                           ;main.c: 1276: }
  3403                           ;main.c: 1277: if (u < 0) u = 0;
  3404  00290A  0100               	movlb	0	; () banked
  3405  00290C  AFB2               	btfss	(_u+3)& (0+255),7,b
  3406  00290E  D009               	goto	l6795
  3407                           
  3408                           ; BSR set to: 0
  3409  002910  0E00               	movlw	0
  3410  002912  0100               	movlb	0	; () banked
  3411  002914  6FAF               	movwf	_u& (0+255),b
  3412  002916  0E00               	movlw	0
  3413  002918  6FB0               	movwf	(_u+1)& (0+255),b
  3414  00291A  0E00               	movlw	0
  3415  00291C  6FB1               	movwf	(_u+2)& (0+255),b
  3416  00291E  0E00               	movlw	0
  3417  002920  6FB2               	movwf	(_u+3)& (0+255),b
  3418  002922                     l6795:
  3419                           
  3420                           ; BSR set to: 0
  3421                           ;main.c: 1279: Erro_RPM_ant = Erro_RPM;
  3422  002922  C13C  F138         	movff	_Erro_RPM,_Erro_RPM_ant
  3423  002926  C13D  F139         	movff	_Erro_RPM+1,_Erro_RPM_ant+1
  3424  00292A  C13E  F13A         	movff	_Erro_RPM+2,_Erro_RPM_ant+2
  3425  00292E  C13F  F13B         	movff	_Erro_RPM+3,_Erro_RPM_ant+3
  3426                           
  3427                           ; BSR set to: 0
  3428                           ;main.c: 1280: u_ant = u;
  3429  002932  C0AF  F134         	movff	_u,_u_ant
  3430  002936  C0B0  F135         	movff	_u+1,_u_ant+1
  3431  00293A  C0B1  F136         	movff	_u+2,_u_ant+2
  3432  00293E  C0B2  F137         	movff	_u+3,_u_ant+3
  3433                           
  3434                           ; BSR set to: 0
  3435  002942  0012               	return		;funcret
  3436  002944                     __end_of_Control_ml_ign:
  3437                           	opt stack 0
  3438                           stkptr	equ	0xFFC
  3439                           tblptru	equ	0xFF8
  3440                           tblptrh	equ	0xFF7
  3441                           tblptrl	equ	0xFF6
  3442                           tablat	equ	0xFF5
  3443                           intcon	equ	0xFF2
  3444                           intcon2	equ	0xFF1
  3445                           postinc0	equ	0xFEE
  3446                           wreg	equ	0xFE8
  3447                           postdec1	equ	0xFE5
  3448                           fsr1l	equ	0xFE1
  3449                           status	equ	0xFD8
  3450                           
  3451 ;; *************** function ___xxtofl *****************
  3452 ;; Defined at:
  3453 ;;		line 10 in file "C:\Program Files (x86)\Microchip\xc8\v1.42\sources\common\xxtofl.c"
  3454 ;; Parameters:    Size  Location     Type
  3455 ;;  sign            1    wreg     unsigned char 
  3456 ;;  val             4   19[BANK0 ] long 
  3457 ;; Auto vars:     Size  Location     Type
  3458 ;;  sign            1   27[BANK0 ] unsigned char 
  3459 ;;  arg             4   29[BANK0 ] unsigned long 
  3460 ;;  exp             1   28[BANK0 ] unsigned char 
  3461 ;; Return value:  Size  Location     Type
  3462 ;;                  4   19[BANK0 ] unsigned char 
  3463 ;; Registers used:
  3464 ;;		wreg, status,2, status,0
  3465 ;; Tracked objects:
  3466 ;;		On entry : 0/0
  3467 ;;		On exit  : 0/0
  3468 ;;		Unchanged: 0/0
  3469 ;; Data sizes:     COMRAM   BANK0   BANK1   BANK2   BANK3   BANK4   BANK5   BANK6   BANK7   BANK8   BANK9  BANK10  BANK1
      +1  BANK12  BANK13  BANK14  BANK15
  3470 ;;      Params:         0       4       0       0       0       0       0       0       0       0       0       0       
      +0       0       0       0       0
  3471 ;;      Locals:         0       6       0       0       0       0       0       0       0       0       0       0       
      +0       0       0       0       0
  3472 ;;      Temps:          0       4       0       0       0       0       0       0       0       0       0       0       
      +0       0       0       0       0
  3473 ;;      Totals:         0      14       0       0       0       0       0       0       0       0       0       0       
      +0       0       0       0       0
  3474 ;;Total ram usage:       14 bytes
  3475 ;; Hardware stack levels used:    1
  3476 ;; Hardware stack levels required when called:    7
  3477 ;; This function calls:
  3478 ;;		Nothing
  3479 ;; This function is called by:
  3480 ;;		_main
  3481 ;;		_Control_ml_ign
  3482 ;; This function uses a non-reentrant model
  3483 ;;
  3484                           
  3485                           	psect	text7
  3486  002944                     __ptext7:
  3487                           	opt stack 0
  3488  002944                     ___xxtofl:
  3489                           	opt stack 23
  3490                           
  3491                           ; BSR set to: 0
  3492                           ;incstack = 0
  3493                           ;___xxtofl@sign stored from wreg
  3494  002944  0100               	movlb	0	; () banked
  3495  002946  6F7B               	movwf	___xxtofl@sign& (0+255),b
  3496  002948  0100               	movlb	0	; () banked
  3497  00294A  517B               	movf	___xxtofl@sign& (0+255),w,b
  3498  00294C  0100               	movlb	0	; () banked
  3499  00294E  B4D8               	btfsc	status,2,c
  3500  002950  D01E               	goto	l1335
  3501                           
  3502                           ; BSR set to: 0
  3503  002952  0100               	movlb	0	; () banked
  3504  002954  AF76               	btfss	(___xxtofl@val+3)& (0+255),7,b
  3505  002956  D01B               	goto	l1335
  3506                           
  3507                           ; BSR set to: 0
  3508  002958  C073  F077         	movff	___xxtofl@val,??___xxtofl
  3509  00295C  C074  F078         	movff	___xxtofl@val+1,??___xxtofl+1
  3510  002960  C075  F079         	movff	___xxtofl@val+2,??___xxtofl+2
  3511  002964  C076  F07A         	movff	___xxtofl@val+3,??___xxtofl+3
  3512  002968  0100               	movlb	0	; () banked
  3513  00296A  1F77               	comf	??___xxtofl& (0+255),f,b
  3514  00296C  1F78               	comf	(??___xxtofl+1)& (0+255),f,b
  3515  00296E  1F79               	comf	(??___xxtofl+2)& (0+255),f,b
  3516  002970  1F7A               	comf	(??___xxtofl+3)& (0+255),f,b
  3517  002972  2B77               	incf	??___xxtofl& (0+255),f,b
  3518  002974  0E00               	movlw	0
  3519  002976  2378               	addwfc	(??___xxtofl+1)& (0+255),f,b
  3520  002978  2379               	addwfc	(??___xxtofl+2)& (0+255),f,b
  3521  00297A  237A               	addwfc	(??___xxtofl+3)& (0+255),f,b
  3522  00297C  C077  F07D         	movff	??___xxtofl,___xxtofl@arg
  3523  002980  C078  F07E         	movff	??___xxtofl+1,___xxtofl@arg+1
  3524  002984  C079  F07F         	movff	??___xxtofl+2,___xxtofl@arg+2
  3525  002988  C07A  F080         	movff	??___xxtofl+3,___xxtofl@arg+3
  3526  00298C  D008               	goto	l6339
  3527  00298E                     l1335:
  3528                           
  3529                           ; BSR set to: 0
  3530  00298E  C073  F07D         	movff	___xxtofl@val,___xxtofl@arg
  3531  002992  C074  F07E         	movff	___xxtofl@val+1,___xxtofl@arg+1
  3532  002996  C075  F07F         	movff	___xxtofl@val+2,___xxtofl@arg+2
  3533  00299A  C076  F080         	movff	___xxtofl@val+3,___xxtofl@arg+3
  3534  00299E                     l6339:
  3535                           
  3536                           ; BSR set to: 0
  3537  00299E  0100               	movlb	0	; () banked
  3538  0029A0  5173               	movf	___xxtofl@val& (0+255),w,b
  3539  0029A2  0100               	movlb	0	; () banked
  3540  0029A4  1174               	iorwf	(___xxtofl@val+1)& (0+255),w,b
  3541  0029A6  0100               	movlb	0	; () banked
  3542  0029A8  1175               	iorwf	(___xxtofl@val+2)& (0+255),w,b
  3543  0029AA  0100               	movlb	0	; () banked
  3544  0029AC  1176               	iorwf	(___xxtofl@val+3)& (0+255),w,b
  3545  0029AE  A4D8               	btfss	status,2,c
  3546  0029B0  D00A               	goto	l6345
  3547                           
  3548                           ; BSR set to: 0
  3549  0029B2  0E00               	movlw	0
  3550  0029B4  0100               	movlb	0	; () banked
  3551  0029B6  6F73               	movwf	?___xxtofl& (0+255),b
  3552  0029B8  0E00               	movlw	0
  3553  0029BA  6F74               	movwf	(?___xxtofl+1)& (0+255),b
  3554  0029BC  0E00               	movlw	0
  3555  0029BE  6F75               	movwf	(?___xxtofl+2)& (0+255),b
  3556  0029C0  0E00               	movlw	0
  3557  0029C2  6F76               	movwf	(?___xxtofl+3)& (0+255),b
  3558                           
  3559                           ; BSR set to: 0
  3560  0029C4  0012               	return	
  3561  0029C6                     l6345:
  3562                           
  3563                           ; BSR set to: 0
  3564  0029C6  0E96               	movlw	150
  3565  0029C8  0100               	movlb	0	; () banked
  3566  0029CA  6F7C               	movwf	___xxtofl@exp& (0+255),b
  3567  0029CC  D008               	goto	l6349
  3568  0029CE                     l6347:
  3569                           
  3570                           ; BSR set to: 0
  3571  0029CE  0100               	movlb	0	; () banked
  3572  0029D0  2B7C               	incf	___xxtofl@exp& (0+255),f,b
  3573  0029D2  0100               	movlb	0	; () banked
  3574  0029D4  90D8               	bcf	status,0,c
  3575  0029D6  3380               	rrcf	(___xxtofl@arg+3)& (0+255),f,b
  3576  0029D8  337F               	rrcf	(___xxtofl@arg+2)& (0+255),f,b
  3577  0029DA  337E               	rrcf	(___xxtofl@arg+1)& (0+255),f,b
  3578  0029DC  337D               	rrcf	___xxtofl@arg& (0+255),f,b
  3579  0029DE                     l6349:
  3580                           
  3581                           ; BSR set to: 0
  3582  0029DE  0E00               	movlw	0
  3583  0029E0  0100               	movlb	0	; () banked
  3584  0029E2  157D               	andwf	___xxtofl@arg& (0+255),w,b
  3585  0029E4  0100               	movlb	0	; () banked
  3586  0029E6  6F77               	movwf	??___xxtofl& (0+255),b
  3587  0029E8  0E00               	movlw	0
  3588  0029EA  0100               	movlb	0	; () banked
  3589  0029EC  157E               	andwf	(___xxtofl@arg+1)& (0+255),w,b
  3590  0029EE  0100               	movlb	0	; () banked
  3591  0029F0  6F78               	movwf	(??___xxtofl+1)& (0+255),b
  3592  0029F2  0E00               	movlw	0
  3593  0029F4  0100               	movlb	0	; () banked
  3594  0029F6  157F               	andwf	(___xxtofl@arg+2)& (0+255),w,b
  3595  0029F8  0100               	movlb	0	; () banked
  3596  0029FA  6F79               	movwf	(??___xxtofl+2)& (0+255),b
  3597  0029FC  0EFE               	movlw	254
  3598  0029FE  0100               	movlb	0	; () banked
  3599  002A00  1580               	andwf	(___xxtofl@arg+3)& (0+255),w,b
  3600  002A02  0100               	movlb	0	; () banked
  3601  002A04  6F7A               	movwf	(??___xxtofl+3)& (0+255),b
  3602  002A06  0100               	movlb	0	; () banked
  3603  002A08  5177               	movf	??___xxtofl& (0+255),w,b
  3604  002A0A  0100               	movlb	0	; () banked
  3605  002A0C  1178               	iorwf	(??___xxtofl+1)& (0+255),w,b
  3606  002A0E  0100               	movlb	0	; () banked
  3607  002A10  1179               	iorwf	(??___xxtofl+2)& (0+255),w,b
  3608  002A12  0100               	movlb	0	; () banked
  3609  002A14  117A               	iorwf	(??___xxtofl+3)& (0+255),w,b
  3610  002A16  B4D8               	btfsc	status,2,c
  3611  002A18  D010               	goto	l1342
  3612  002A1A  D7D9               	goto	l6347
  3613  002A1C                     l6351:
  3614                           
  3615                           ; BSR set to: 0
  3616  002A1C  0100               	movlb	0	; () banked
  3617  002A1E  2B7C               	incf	___xxtofl@exp& (0+255),f,b
  3618                           
  3619                           ; BSR set to: 0
  3620  002A20  0E01               	movlw	1
  3621  002A22  0100               	movlb	0	; () banked
  3622  002A24  277D               	addwf	___xxtofl@arg& (0+255),f,b
  3623  002A26  0E00               	movlw	0
  3624  002A28  237E               	addwfc	(___xxtofl@arg+1)& (0+255),f,b
  3625  002A2A  237F               	addwfc	(___xxtofl@arg+2)& (0+255),f,b
  3626  002A2C  2380               	addwfc	(___xxtofl@arg+3)& (0+255),f,b
  3627                           
  3628                           ; BSR set to: 0
  3629  002A2E  0100               	movlb	0	; () banked
  3630  002A30  90D8               	bcf	status,0,c
  3631  002A32  3380               	rrcf	(___xxtofl@arg+3)& (0+255),f,b
  3632  002A34  337F               	rrcf	(___xxtofl@arg+2)& (0+255),f,b
  3633  002A36  337E               	rrcf	(___xxtofl@arg+1)& (0+255),f,b
  3634  002A38  337D               	rrcf	___xxtofl@arg& (0+255),f,b
  3635  002A3A                     l1342:
  3636                           
  3637                           ; BSR set to: 0
  3638  002A3A  0E00               	movlw	0
  3639  002A3C  0100               	movlb	0	; () banked
  3640  002A3E  157D               	andwf	___xxtofl@arg& (0+255),w,b
  3641  002A40  0100               	movlb	0	; () banked
  3642  002A42  6F77               	movwf	??___xxtofl& (0+255),b
  3643  002A44  0E00               	movlw	0
  3644  002A46  0100               	movlb	0	; () banked
  3645  002A48  157E               	andwf	(___xxtofl@arg+1)& (0+255),w,b
  3646  002A4A  0100               	movlb	0	; () banked
  3647  002A4C  6F78               	movwf	(??___xxtofl+1)& (0+255),b
  3648  002A4E  0E00               	movlw	0
  3649  002A50  0100               	movlb	0	; () banked
  3650  002A52  157F               	andwf	(___xxtofl@arg+2)& (0+255),w,b
  3651  002A54  0100               	movlb	0	; () banked
  3652  002A56  6F79               	movwf	(??___xxtofl+2)& (0+255),b
  3653  002A58  0EFF               	movlw	255
  3654  002A5A  0100               	movlb	0	; () banked
  3655  002A5C  1580               	andwf	(___xxtofl@arg+3)& (0+255),w,b
  3656  002A5E  0100               	movlb	0	; () banked
  3657  002A60  6F7A               	movwf	(??___xxtofl+3)& (0+255),b
  3658  002A62  0100               	movlb	0	; () banked
  3659  002A64  5177               	movf	??___xxtofl& (0+255),w,b
  3660  002A66  0100               	movlb	0	; () banked
  3661  002A68  1178               	iorwf	(??___xxtofl+1)& (0+255),w,b
  3662  002A6A  0100               	movlb	0	; () banked
  3663  002A6C  1179               	iorwf	(??___xxtofl+2)& (0+255),w,b
  3664  002A6E  0100               	movlb	0	; () banked
  3665  002A70  117A               	iorwf	(??___xxtofl+3)& (0+255),w,b
  3666  002A72  B4D8               	btfsc	status,2,c
  3667  002A74  D009               	goto	l6359
  3668  002A76  D7D2               	goto	l6351
  3669  002A78                     l6357:
  3670                           
  3671                           ; BSR set to: 0
  3672  002A78  0100               	movlb	0	; () banked
  3673  002A7A  077C               	decf	___xxtofl@exp& (0+255),f,b
  3674  002A7C  0100               	movlb	0	; () banked
  3675  002A7E  90D8               	bcf	status,0,c
  3676  002A80  377D               	rlcf	___xxtofl@arg& (0+255),f,b
  3677  002A82  377E               	rlcf	(___xxtofl@arg+1)& (0+255),f,b
  3678  002A84  377F               	rlcf	(___xxtofl@arg+2)& (0+255),f,b
  3679  002A86  3780               	rlcf	(___xxtofl@arg+3)& (0+255),f,b
  3680  002A88                     l6359:
  3681                           
  3682                           ; BSR set to: 0
  3683  002A88  0100               	movlb	0	; () banked
  3684  002A8A  BF7F               	btfsc	(___xxtofl@arg+2)& (0+255),7,b
  3685  002A8C  D004               	goto	l1349
  3686                           
  3687                           ; BSR set to: 0
  3688  002A8E  0E02               	movlw	2
  3689  002A90  0100               	movlb	0	; () banked
  3690  002A92  617C               	cpfslt	___xxtofl@exp& (0+255),b
  3691  002A94  D7F1               	goto	l6357
  3692  002A96                     l1349:
  3693                           
  3694                           ; BSR set to: 0
  3695  002A96  0100               	movlb	0	; () banked
  3696  002A98  B17C               	btfsc	___xxtofl@exp& (0+255),0,b
  3697  002A9A  D009               	goto	l1350
  3698                           
  3699                           ; BSR set to: 0
  3700  002A9C  0EFF               	movlw	255
  3701  002A9E  0100               	movlb	0	; () banked
  3702  002AA0  177D               	andwf	___xxtofl@arg& (0+255),f,b
  3703  002AA2  0EFF               	movlw	255
  3704  002AA4  177E               	andwf	(___xxtofl@arg+1)& (0+255),f,b
  3705  002AA6  0E7F               	movlw	127
  3706  002AA8  177F               	andwf	(___xxtofl@arg+2)& (0+255),f,b
  3707  002AAA  0EFF               	movlw	255
  3708  002AAC  1780               	andwf	(___xxtofl@arg+3)& (0+255),f,b
  3709  002AAE                     l1350:
  3710                           
  3711                           ; BSR set to: 0
  3712  002AAE  0100               	movlb	0	; () banked
  3713  002AB0  90D8               	bcf	status,0,c
  3714  002AB2  337C               	rrcf	___xxtofl@exp& (0+255),f,b
  3715  002AB4  C07C  F077         	movff	___xxtofl@exp,??___xxtofl
  3716  002AB8  0100               	movlb	0	; () banked
  3717  002ABA  6B78               	clrf	(??___xxtofl+1)& (0+255),b
  3718  002ABC  6B79               	clrf	(??___xxtofl+2)& (0+255),b
  3719  002ABE  6B7A               	clrf	(??___xxtofl+3)& (0+255),b
  3720  002AC0  C077  F07A         	movff	??___xxtofl,??___xxtofl+3
  3721  002AC4  0100               	movlb	0	; () banked
  3722  002AC6  6B79               	clrf	(??___xxtofl+2)& (0+255),b
  3723  002AC8  6B78               	clrf	(??___xxtofl+1)& (0+255),b
  3724  002ACA  6B77               	clrf	??___xxtofl& (0+255),b
  3725  002ACC  0100               	movlb	0	; () banked
  3726  002ACE  5177               	movf	??___xxtofl& (0+255),w,b
  3727  002AD0  0100               	movlb	0	; () banked
  3728  002AD2  137D               	iorwf	___xxtofl@arg& (0+255),f,b
  3729  002AD4  0100               	movlb	0	; () banked
  3730  002AD6  5178               	movf	(??___xxtofl+1)& (0+255),w,b
  3731  002AD8  0100               	movlb	0	; () banked
  3732  002ADA  137E               	iorwf	(___xxtofl@arg+1)& (0+255),f,b
  3733  002ADC  0100               	movlb	0	; () banked
  3734  002ADE  5179               	movf	(??___xxtofl+2)& (0+255),w,b
  3735  002AE0  0100               	movlb	0	; () banked
  3736  002AE2  137F               	iorwf	(___xxtofl@arg+2)& (0+255),f,b
  3737  002AE4  0100               	movlb	0	; () banked
  3738  002AE6  517A               	movf	(??___xxtofl+3)& (0+255),w,b
  3739  002AE8  0100               	movlb	0	; () banked
  3740  002AEA  1380               	iorwf	(___xxtofl@arg+3)& (0+255),f,b
  3741                           
  3742                           ; BSR set to: 0
  3743  002AEC  0100               	movlb	0	; () banked
  3744  002AEE  517B               	movf	___xxtofl@sign& (0+255),w,b
  3745  002AF0  0100               	movlb	0	; () banked
  3746  002AF2  B4D8               	btfsc	status,2,c
  3747  002AF4  D005               	goto	l6371
  3748                           
  3749                           ; BSR set to: 0
  3750  002AF6  0100               	movlb	0	; () banked
  3751  002AF8  AF76               	btfss	(___xxtofl@val+3)& (0+255),7,b
  3752  002AFA  D002               	goto	l6371
  3753                           
  3754                           ; BSR set to: 0
  3755  002AFC  0100               	movlb	0	; () banked
  3756  002AFE  8F80               	bsf	(___xxtofl@arg+3)& (0+255),7,b
  3757  002B00                     l6371:
  3758                           
  3759                           ; BSR set to: 0
  3760  002B00  C07D  F073         	movff	___xxtofl@arg,?___xxtofl
  3761  002B04  C07E  F074         	movff	___xxtofl@arg+1,?___xxtofl+1
  3762  002B08  C07F  F075         	movff	___xxtofl@arg+2,?___xxtofl+2
  3763  002B0C  C080  F076         	movff	___xxtofl@arg+3,?___xxtofl+3
  3764  002B10  0012               	return	
  3765  002B12                     __end_of___xxtofl:
  3766                           	opt stack 0
  3767                           stkptr	equ	0xFFC
  3768                           tblptru	equ	0xFF8
  3769                           tblptrh	equ	0xFF7
  3770                           tblptrl	equ	0xFF6
  3771                           tablat	equ	0xFF5
  3772                           intcon	equ	0xFF2
  3773                           intcon2	equ	0xFF1
  3774                           postinc0	equ	0xFEE
  3775                           wreg	equ	0xFE8
  3776                           postdec1	equ	0xFE5
  3777                           fsr1l	equ	0xFE1
  3778                           status	equ	0xFD8
  3779                           
  3780 ;; *************** function ___flneg *****************
  3781 ;; Defined at:
  3782 ;;		line 15 in file "C:\Program Files (x86)\Microchip\xc8\v1.42\sources\common\flneg.c"
  3783 ;; Parameters:    Size  Location     Type
  3784 ;;  f1              4   33[BANK0 ] unsigned char 
  3785 ;; Auto vars:     Size  Location     Type
  3786 ;;		None
  3787 ;; Return value:  Size  Location     Type
  3788 ;;                  4   33[BANK0 ] unsigned char 
  3789 ;; Registers used:
  3790 ;;		wreg, status,2, status,0
  3791 ;; Tracked objects:
  3792 ;;		On entry : 0/0
  3793 ;;		On exit  : 0/0
  3794 ;;		Unchanged: 0/0
  3795 ;; Data sizes:     COMRAM   BANK0   BANK1   BANK2   BANK3   BANK4   BANK5   BANK6   BANK7   BANK8   BANK9  BANK10  BANK1
      +1  BANK12  BANK13  BANK14  BANK15
  3796 ;;      Params:         0       4       0       0       0       0       0       0       0       0       0       0       
      +0       0       0       0       0
  3797 ;;      Locals:         0       0       0       0       0       0       0       0       0       0       0       0       
      +0       0       0       0       0
  3798 ;;      Temps:          0       0       0       0       0       0       0       0       0       0       0       0       
      +0       0       0       0       0
  3799 ;;      Totals:         0       4       0       0       0       0       0       0       0       0       0       0       
      +0       0       0       0       0
  3800 ;;Total ram usage:        4 bytes
  3801 ;; Hardware stack levels used:    1
  3802 ;; Hardware stack levels required when called:    7
  3803 ;; This function calls:
  3804 ;;		Nothing
  3805 ;; This function is called by:
  3806 ;;		_main
  3807 ;;		_Control_ml_ign
  3808 ;; This function uses a non-reentrant model
  3809 ;;
  3810                           
  3811                           	psect	text8
  3812  0032A6                     __ptext8:
  3813                           	opt stack 0
  3814  0032A6                     ___flneg:
  3815                           	opt stack 23
  3816                           
  3817                           ; BSR set to: 0
  3818                           ;incstack = 0
  3819  0032A6  0100               	movlb	0	; () banked
  3820  0032A8  5181               	movf	___flneg@f1& (0+255),w,b
  3821  0032AA  0100               	movlb	0	; () banked
  3822  0032AC  1182               	iorwf	(___flneg@f1+1)& (0+255),w,b
  3823  0032AE  0100               	movlb	0	; () banked
  3824  0032B0  1183               	iorwf	(___flneg@f1+2)& (0+255),w,b
  3825  0032B2  0100               	movlb	0	; () banked
  3826  0032B4  1184               	iorwf	(___flneg@f1+3)& (0+255),w,b
  3827  0032B6  B4D8               	btfsc	status,2,c
  3828  0032B8  D009               	goto	l6329
  3829                           
  3830                           ; BSR set to: 0
  3831  0032BA  0E00               	movlw	0
  3832  0032BC  0100               	movlb	0	; () banked
  3833  0032BE  1B81               	xorwf	___flneg@f1& (0+255),f,b
  3834  0032C0  0E00               	movlw	0
  3835  0032C2  1B82               	xorwf	(___flneg@f1+1)& (0+255),f,b
  3836  0032C4  0E00               	movlw	0
  3837  0032C6  1B83               	xorwf	(___flneg@f1+2)& (0+255),f,b
  3838  0032C8  0E80               	movlw	128
  3839  0032CA  1B84               	xorwf	(___flneg@f1+3)& (0+255),f,b
  3840  0032CC                     l6329:
  3841                           
  3842                           ; BSR set to: 0
  3843  0032CC  C081  F081         	movff	___flneg@f1,?___flneg
  3844  0032D0  C082  F082         	movff	___flneg@f1+1,?___flneg+1
  3845  0032D4  C083  F083         	movff	___flneg@f1+2,?___flneg+2
  3846  0032D8  C084  F084         	movff	___flneg@f1+3,?___flneg+3
  3847  0032DC  0012               	return	
  3848  0032DE                     __end_of___flneg:
  3849                           	opt stack 0
  3850                           stkptr	equ	0xFFC
  3851                           tblptru	equ	0xFF8
  3852                           tblptrh	equ	0xFF7
  3853                           tblptrl	equ	0xFF6
  3854                           tablat	equ	0xFF5
  3855                           intcon	equ	0xFF2
  3856                           intcon2	equ	0xFF1
  3857                           postinc0	equ	0xFEE
  3858                           wreg	equ	0xFE8
  3859                           postdec1	equ	0xFE5
  3860                           fsr1l	equ	0xFE1
  3861                           status	equ	0xFD8
  3862                           
  3863 ;; *************** function ___flmul *****************
  3864 ;; Defined at:
  3865 ;;		line 8 in file "C:\Program Files (x86)\Microchip\xc8\v1.42\sources\common\sprcmul.c"
  3866 ;; Parameters:    Size  Location     Type
  3867 ;;  b               4   57[BANK0 ] unsigned char 
  3868 ;;  a               4   61[BANK0 ] unsigned char 
  3869 ;; Auto vars:     Size  Location     Type
  3870 ;;  prod            4    7[BANK1 ] struct .
  3871 ;;  grs             4    2[BANK1 ] unsigned long 
  3872 ;;  temp            2   11[BANK1 ] struct .
  3873 ;;  bexp            1    6[BANK1 ] unsigned char 
  3874 ;;  aexp            1    1[BANK1 ] unsigned char 
  3875 ;;  sign            1    0[BANK1 ] unsigned char 
  3876 ;; Return value:  Size  Location     Type
  3877 ;;                  4   57[BANK0 ] unsigned char 
  3878 ;; Registers used:
  3879 ;;		wreg, status,2, status,0, prodl, prodh
  3880 ;; Tracked objects:
  3881 ;;		On entry : 0/0
  3882 ;;		On exit  : 0/0
  3883 ;;		Unchanged: 0/0
  3884 ;; Data sizes:     COMRAM   BANK0   BANK1   BANK2   BANK3   BANK4   BANK5   BANK6   BANK7   BANK8   BANK9  BANK10  BANK1
      +1  BANK12  BANK13  BANK14  BANK15
  3885 ;;      Params:         0       8       0       0       0       0       0       0       0       0       0       0       
      +0       0       0       0       0
  3886 ;;      Locals:         0       0      13       0       0       0       0       0       0       0       0       0       
      +0       0       0       0       0
  3887 ;;      Temps:          0       4       0       0       0       0       0       0       0       0       0       0       
      +0       0       0       0       0
  3888 ;;      Totals:         0      12      13       0       0       0       0       0       0       0       0       0       
      +0       0       0       0       0
  3889 ;;Total ram usage:       25 bytes
  3890 ;; Hardware stack levels used:    1
  3891 ;; Hardware stack levels required when called:    7
  3892 ;; This function calls:
  3893 ;;		Nothing
  3894 ;; This function is called by:
  3895 ;;		_main
  3896 ;;		_Control_ml_ign
  3897 ;; This function uses a non-reentrant model
  3898 ;;
  3899                           
  3900                           	psect	text9
  3901  001886                     __ptext9:
  3902                           	opt stack 0
  3903  001886                     ___flmul:
  3904                           	opt stack 23
  3905                           
  3906                           ; BSR set to: 0
  3907                           ;incstack = 0
  3908  001886  0100               	movlb	0	; () banked
  3909  001888  519C               	movf	(___flmul@b+3)& (0+255),w,b
  3910  00188A  0B80               	andlw	128
  3911  00188C  0101               	movlb	1	; () banked
  3912  00188E  6F6E               	movwf	___flmul@sign& (0+255),b
  3913  001890  0100               	movlb	0	; () banked
  3914  001892  519C               	movf	(___flmul@b+3)& (0+255),w,b
  3915  001894  259C               	addwf	(___flmul@b+3)& (0+255),w,b
  3916  001896  0101               	movlb	1	; () banked
  3917  001898  6F74               	movwf	___flmul@bexp& (0+255),b
  3918                           
  3919                           ; BSR set to: 1
  3920  00189A  0100               	movlb	0	; () banked
  3921  00189C  AF9B               	btfss	(___flmul@b+2)& (0+255),7,b
  3922  00189E  D002               	goto	l6179
  3923                           
  3924                           ; BSR set to: 0
  3925  0018A0  0101               	movlb	1	; () banked
  3926  0018A2  8174               	bsf	___flmul@bexp& (0+255),0,b
  3927  0018A4                     l6179:
  3928  0018A4  0101               	movlb	1	; () banked
  3929  0018A6  5174               	movf	___flmul@bexp& (0+255),w,b
  3930  0018A8  0101               	movlb	1	; () banked
  3931  0018AA  B4D8               	btfsc	status,2,c
  3932  0018AC  D010               	goto	l6187
  3933                           
  3934                           ; BSR set to: 1
  3935  0018AE  0101               	movlb	1	; () banked
  3936  0018B0  2974               	incf	___flmul@bexp& (0+255),w,b
  3937  0018B2  A4D8               	btfss	status,2,c
  3938  0018B4  D009               	goto	l6185
  3939                           
  3940                           ; BSR set to: 1
  3941  0018B6  0E00               	movlw	0
  3942  0018B8  0100               	movlb	0	; () banked
  3943  0018BA  6F99               	movwf	___flmul@b& (0+255),b
  3944  0018BC  0E00               	movlw	0
  3945  0018BE  6F9A               	movwf	(___flmul@b+1)& (0+255),b
  3946  0018C0  0E00               	movlw	0
  3947  0018C2  6F9B               	movwf	(___flmul@b+2)& (0+255),b
  3948  0018C4  0E00               	movlw	0
  3949  0018C6  6F9C               	movwf	(___flmul@b+3)& (0+255),b
  3950  0018C8                     l6185:
  3951  0018C8  0100               	movlb	0	; () banked
  3952  0018CA  8F9B               	bsf	(___flmul@b+2)& (0+255),7,b
  3953  0018CC  D009               	goto	l6189
  3954  0018CE                     l6187:
  3955  0018CE  0E00               	movlw	0
  3956  0018D0  0100               	movlb	0	; () banked
  3957  0018D2  6F99               	movwf	___flmul@b& (0+255),b
  3958  0018D4  0E00               	movlw	0
  3959  0018D6  6F9A               	movwf	(___flmul@b+1)& (0+255),b
  3960  0018D8  0E00               	movlw	0
  3961  0018DA  6F9B               	movwf	(___flmul@b+2)& (0+255),b
  3962  0018DC  0E00               	movlw	0
  3963  0018DE  6F9C               	movwf	(___flmul@b+3)& (0+255),b
  3964  0018E0                     l6189:
  3965                           
  3966                           ; BSR set to: 0
  3967  0018E0  0100               	movlb	0	; () banked
  3968  0018E2  51A0               	movf	(___flmul@a+3)& (0+255),w,b
  3969  0018E4  0B80               	andlw	128
  3970  0018E6  0101               	movlb	1	; () banked
  3971  0018E8  1B6E               	xorwf	___flmul@sign& (0+255),f,b
  3972                           
  3973                           ; BSR set to: 1
  3974  0018EA  0100               	movlb	0	; () banked
  3975  0018EC  51A0               	movf	(___flmul@a+3)& (0+255),w,b
  3976  0018EE  25A0               	addwf	(___flmul@a+3)& (0+255),w,b
  3977  0018F0  0101               	movlb	1	; () banked
  3978  0018F2  6F6F               	movwf	___flmul@aexp& (0+255),b
  3979                           
  3980                           ; BSR set to: 1
  3981  0018F4  0100               	movlb	0	; () banked
  3982  0018F6  AF9F               	btfss	(___flmul@a+2)& (0+255),7,b
  3983  0018F8  D002               	goto	l6197
  3984                           
  3985                           ; BSR set to: 0
  3986  0018FA  0101               	movlb	1	; () banked
  3987  0018FC  816F               	bsf	___flmul@aexp& (0+255),0,b
  3988  0018FE                     l6197:
  3989  0018FE  0101               	movlb	1	; () banked
  3990  001900  516F               	movf	___flmul@aexp& (0+255),w,b
  3991  001902  0101               	movlb	1	; () banked
  3992  001904  B4D8               	btfsc	status,2,c
  3993  001906  D010               	goto	l6205
  3994                           
  3995                           ; BSR set to: 1
  3996  001908  0101               	movlb	1	; () banked
  3997  00190A  296F               	incf	___flmul@aexp& (0+255),w,b
  3998  00190C  A4D8               	btfss	status,2,c
  3999  00190E  D009               	goto	l6203
  4000                           
  4001                           ; BSR set to: 1
  4002  001910  0E00               	movlw	0
  4003  001912  0100               	movlb	0	; () banked
  4004  001914  6F9D               	movwf	___flmul@a& (0+255),b
  4005  001916  0E00               	movlw	0
  4006  001918  6F9E               	movwf	(___flmul@a+1)& (0+255),b
  4007  00191A  0E00               	movlw	0
  4008  00191C  6F9F               	movwf	(___flmul@a+2)& (0+255),b
  4009  00191E  0E00               	movlw	0
  4010  001920  6FA0               	movwf	(___flmul@a+3)& (0+255),b
  4011  001922                     l6203:
  4012  001922  0100               	movlb	0	; () banked
  4013  001924  8F9F               	bsf	(___flmul@a+2)& (0+255),7,b
  4014  001926  D009               	goto	l1313
  4015  001928                     l6205:
  4016  001928  0E00               	movlw	0
  4017  00192A  0100               	movlb	0	; () banked
  4018  00192C  6F9D               	movwf	___flmul@a& (0+255),b
  4019  00192E  0E00               	movlw	0
  4020  001930  6F9E               	movwf	(___flmul@a+1)& (0+255),b
  4021  001932  0E00               	movlw	0
  4022  001934  6F9F               	movwf	(___flmul@a+2)& (0+255),b
  4023  001936  0E00               	movlw	0
  4024  001938  6FA0               	movwf	(___flmul@a+3)& (0+255),b
  4025  00193A                     l1313:
  4026                           
  4027                           ; BSR set to: 0
  4028  00193A  0101               	movlb	1	; () banked
  4029  00193C  516F               	movf	___flmul@aexp& (0+255),w,b
  4030  00193E  0101               	movlb	1	; () banked
  4031  001940  B4D8               	btfsc	status,2,c
  4032  001942  D005               	goto	l6209
  4033                           
  4034                           ; BSR set to: 1
  4035  001944  0101               	movlb	1	; () banked
  4036  001946  5174               	movf	___flmul@bexp& (0+255),w,b
  4037  001948  0101               	movlb	1	; () banked
  4038  00194A  A4D8               	btfss	status,2,c
  4039  00194C  D00A               	goto	l6213
  4040  00194E                     l6209:
  4041                           
  4042                           ; BSR set to: 1
  4043  00194E  0E00               	movlw	0
  4044  001950  0100               	movlb	0	; () banked
  4045  001952  6F99               	movwf	?___flmul& (0+255),b
  4046  001954  0E00               	movlw	0
  4047  001956  6F9A               	movwf	(?___flmul+1)& (0+255),b
  4048  001958  0E00               	movlw	0
  4049  00195A  6F9B               	movwf	(?___flmul+2)& (0+255),b
  4050  00195C  0E00               	movlw	0
  4051  00195E  6F9C               	movwf	(?___flmul+3)& (0+255),b
  4052                           
  4053                           ; BSR set to: 0
  4054  001960  0012               	return	
  4055  001962                     l6213:
  4056  001962  0100               	movlb	0	; () banked
  4057  001964  519F               	movf	(___flmul@a+2)& (0+255),w,b
  4058  001966  0100               	movlb	0	; () banked
  4059  001968  0399               	mulwf	___flmul@b& (0+255),b
  4060  00196A  CFF3 F179          	movff	prodl,___flmul@temp
  4061  00196E  CFF4 F17A          	movff	prodh,___flmul@temp+1
  4062                           
  4063                           ; BSR set to: 0
  4064  001972  0101               	movlb	1	; () banked
  4065  001974  5179               	movf	___flmul@temp& (0+255),w,b
  4066  001976  0101               	movlb	1	; () banked
  4067  001978  6F70               	movwf	___flmul@grs& (0+255),b
  4068  00197A  6B71               	clrf	(___flmul@grs+1)& (0+255),b
  4069  00197C  6B72               	clrf	(___flmul@grs+2)& (0+255),b
  4070  00197E  6B73               	clrf	(___flmul@grs+3)& (0+255),b
  4071                           
  4072                           ; BSR set to: 1
  4073  001980  0101               	movlb	1	; () banked
  4074  001982  517A               	movf	(___flmul@temp+1)& (0+255),w,b
  4075  001984  0101               	movlb	1	; () banked
  4076  001986  6F75               	movwf	___flmul@prod& (0+255),b
  4077  001988  6B76               	clrf	(___flmul@prod+1)& (0+255),b
  4078  00198A  6B77               	clrf	(___flmul@prod+2)& (0+255),b
  4079  00198C  6B78               	clrf	(___flmul@prod+3)& (0+255),b
  4080  00198E  0100               	movlb	0	; () banked
  4081  001990  519E               	movf	(___flmul@a+1)& (0+255),w,b
  4082  001992  0100               	movlb	0	; () banked
  4083  001994  039A               	mulwf	(___flmul@b+1)& (0+255),b
  4084  001996  CFF3 F179          	movff	prodl,___flmul@temp
  4085  00199A  CFF4 F17A          	movff	prodh,___flmul@temp+1
  4086                           
  4087                           ; BSR set to: 0
  4088  00199E  0101               	movlb	1	; () banked
  4089  0019A0  5179               	movf	___flmul@temp& (0+255),w,b
  4090  0019A2  0101               	movlb	1	; () banked
  4091  0019A4  2770               	addwf	___flmul@grs& (0+255),f,b
  4092  0019A6  0E00               	movlw	0
  4093  0019A8  2371               	addwfc	(___flmul@grs+1)& (0+255),f,b
  4094  0019AA  2372               	addwfc	(___flmul@grs+2)& (0+255),f,b
  4095  0019AC  2373               	addwfc	(___flmul@grs+3)& (0+255),f,b
  4096                           
  4097                           ; BSR set to: 1
  4098  0019AE  0101               	movlb	1	; () banked
  4099  0019B0  517A               	movf	(___flmul@temp+1)& (0+255),w,b
  4100  0019B2  0101               	movlb	1	; () banked
  4101  0019B4  2775               	addwf	___flmul@prod& (0+255),f,b
  4102  0019B6  0E00               	movlw	0
  4103  0019B8  2376               	addwfc	(___flmul@prod+1)& (0+255),f,b
  4104  0019BA  2377               	addwfc	(___flmul@prod+2)& (0+255),f,b
  4105  0019BC  2378               	addwfc	(___flmul@prod+3)& (0+255),f,b
  4106  0019BE  0100               	movlb	0	; () banked
  4107  0019C0  519D               	movf	___flmul@a& (0+255),w,b
  4108  0019C2  0100               	movlb	0	; () banked
  4109  0019C4  039B               	mulwf	(___flmul@b+2)& (0+255),b
  4110  0019C6  CFF3 F179          	movff	prodl,___flmul@temp
  4111  0019CA  CFF4 F17A          	movff	prodh,___flmul@temp+1
  4112                           
  4113                           ; BSR set to: 0
  4114  0019CE  0101               	movlb	1	; () banked
  4115  0019D0  5179               	movf	___flmul@temp& (0+255),w,b
  4116  0019D2  0101               	movlb	1	; () banked
  4117  0019D4  2770               	addwf	___flmul@grs& (0+255),f,b
  4118  0019D6  0E00               	movlw	0
  4119  0019D8  2371               	addwfc	(___flmul@grs+1)& (0+255),f,b
  4120  0019DA  2372               	addwfc	(___flmul@grs+2)& (0+255),f,b
  4121  0019DC  2373               	addwfc	(___flmul@grs+3)& (0+255),f,b
  4122                           
  4123                           ; BSR set to: 1
  4124  0019DE  0101               	movlb	1	; () banked
  4125  0019E0  517A               	movf	(___flmul@temp+1)& (0+255),w,b
  4126  0019E2  0101               	movlb	1	; () banked
  4127  0019E4  2775               	addwf	___flmul@prod& (0+255),f,b
  4128  0019E6  0E00               	movlw	0
  4129  0019E8  2376               	addwfc	(___flmul@prod+1)& (0+255),f,b
  4130  0019EA  2377               	addwfc	(___flmul@prod+2)& (0+255),f,b
  4131  0019EC  2378               	addwfc	(___flmul@prod+3)& (0+255),f,b
  4132                           
  4133                           ; BSR set to: 1
  4134  0019EE  C172  F173         	movff	___flmul@grs+2,___flmul@grs+3
  4135  0019F2  C171  F172         	movff	___flmul@grs+1,___flmul@grs+2
  4136  0019F6  C170  F171         	movff	___flmul@grs,___flmul@grs+1
  4137  0019FA  0101               	movlb	1	; () banked
  4138  0019FC  6B70               	clrf	___flmul@grs& (0+255),b
  4139                           
  4140                           ; BSR set to: 1
  4141  0019FE  0100               	movlb	0	; () banked
  4142  001A00  519D               	movf	___flmul@a& (0+255),w,b
  4143  001A02  0100               	movlb	0	; () banked
  4144  001A04  039A               	mulwf	(___flmul@b+1)& (0+255),b
  4145  001A06  CFF3 F179          	movff	prodl,___flmul@temp
  4146  001A0A  CFF4 F17A          	movff	prodh,___flmul@temp+1
  4147                           
  4148                           ; BSR set to: 0
  4149  001A0E  0101               	movlb	1	; () banked
  4150  001A10  5179               	movf	___flmul@temp& (0+255),w,b
  4151  001A12  0101               	movlb	1	; () banked
  4152  001A14  2770               	addwf	___flmul@grs& (0+255),f,b
  4153  001A16  0101               	movlb	1	; () banked
  4154  001A18  517A               	movf	(___flmul@temp+1)& (0+255),w,b
  4155  001A1A  0101               	movlb	1	; () banked
  4156  001A1C  2371               	addwfc	(___flmul@grs+1)& (0+255),f,b
  4157  001A1E  0E00               	movlw	0
  4158  001A20  0101               	movlb	1	; () banked
  4159  001A22  2372               	addwfc	(___flmul@grs+2)& (0+255),f,b
  4160  001A24  0E00               	movlw	0
  4161  001A26  0101               	movlb	1	; () banked
  4162  001A28  2373               	addwfc	(___flmul@grs+3)& (0+255),f,b
  4163                           
  4164                           ; BSR set to: 1
  4165  001A2A  0100               	movlb	0	; () banked
  4166  001A2C  519E               	movf	(___flmul@a+1)& (0+255),w,b
  4167  001A2E  0100               	movlb	0	; () banked
  4168  001A30  0399               	mulwf	___flmul@b& (0+255),b
  4169  001A32  CFF3 F179          	movff	prodl,___flmul@temp
  4170  001A36  CFF4 F17A          	movff	prodh,___flmul@temp+1
  4171                           
  4172                           ; BSR set to: 0
  4173  001A3A  0101               	movlb	1	; () banked
  4174  001A3C  5179               	movf	___flmul@temp& (0+255),w,b
  4175  001A3E  0101               	movlb	1	; () banked
  4176  001A40  2770               	addwf	___flmul@grs& (0+255),f,b
  4177  001A42  0101               	movlb	1	; () banked
  4178  001A44  517A               	movf	(___flmul@temp+1)& (0+255),w,b
  4179  001A46  0101               	movlb	1	; () banked
  4180  001A48  2371               	addwfc	(___flmul@grs+1)& (0+255),f,b
  4181  001A4A  0E00               	movlw	0
  4182  001A4C  0101               	movlb	1	; () banked
  4183  001A4E  2372               	addwfc	(___flmul@grs+2)& (0+255),f,b
  4184  001A50  0E00               	movlw	0
  4185  001A52  0101               	movlb	1	; () banked
  4186  001A54  2373               	addwfc	(___flmul@grs+3)& (0+255),f,b
  4187                           
  4188                           ; BSR set to: 1
  4189  001A56  C172  F173         	movff	___flmul@grs+2,___flmul@grs+3
  4190  001A5A  C171  F172         	movff	___flmul@grs+1,___flmul@grs+2
  4191  001A5E  C170  F171         	movff	___flmul@grs,___flmul@grs+1
  4192  001A62  0101               	movlb	1	; () banked
  4193  001A64  6B70               	clrf	___flmul@grs& (0+255),b
  4194  001A66  0100               	movlb	0	; () banked
  4195  001A68  519D               	movf	___flmul@a& (0+255),w,b
  4196  001A6A  0100               	movlb	0	; () banked
  4197  001A6C  0399               	mulwf	___flmul@b& (0+255),b
  4198  001A6E  CFF3 F179          	movff	prodl,___flmul@temp
  4199  001A72  CFF4 F17A          	movff	prodh,___flmul@temp+1
  4200                           
  4201                           ; BSR set to: 0
  4202  001A76  0101               	movlb	1	; () banked
  4203  001A78  5179               	movf	___flmul@temp& (0+255),w,b
  4204  001A7A  0101               	movlb	1	; () banked
  4205  001A7C  2770               	addwf	___flmul@grs& (0+255),f,b
  4206  001A7E  0101               	movlb	1	; () banked
  4207  001A80  517A               	movf	(___flmul@temp+1)& (0+255),w,b
  4208  001A82  0101               	movlb	1	; () banked
  4209  001A84  2371               	addwfc	(___flmul@grs+1)& (0+255),f,b
  4210  001A86  0E00               	movlw	0
  4211  001A88  0101               	movlb	1	; () banked
  4212  001A8A  2372               	addwfc	(___flmul@grs+2)& (0+255),f,b
  4213  001A8C  0E00               	movlw	0
  4214  001A8E  0101               	movlb	1	; () banked
  4215  001A90  2373               	addwfc	(___flmul@grs+3)& (0+255),f,b
  4216                           
  4217                           ; BSR set to: 1
  4218  001A92  0100               	movlb	0	; () banked
  4219  001A94  519F               	movf	(___flmul@a+2)& (0+255),w,b
  4220  001A96  0100               	movlb	0	; () banked
  4221  001A98  039A               	mulwf	(___flmul@b+1)& (0+255),b
  4222  001A9A  CFF3 F179          	movff	prodl,___flmul@temp
  4223  001A9E  CFF4 F17A          	movff	prodh,___flmul@temp+1
  4224  001AA2  0101               	movlb	1	; () banked
  4225  001AA4  5179               	movf	___flmul@temp& (0+255),w,b
  4226  001AA6  0101               	movlb	1	; () banked
  4227  001AA8  2775               	addwf	___flmul@prod& (0+255),f,b
  4228  001AAA  0101               	movlb	1	; () banked
  4229  001AAC  517A               	movf	(___flmul@temp+1)& (0+255),w,b
  4230  001AAE  0101               	movlb	1	; () banked
  4231  001AB0  2376               	addwfc	(___flmul@prod+1)& (0+255),f,b
  4232  001AB2  0E00               	movlw	0
  4233  001AB4  0101               	movlb	1	; () banked
  4234  001AB6  2377               	addwfc	(___flmul@prod+2)& (0+255),f,b
  4235  001AB8  0E00               	movlw	0
  4236  001ABA  0101               	movlb	1	; () banked
  4237  001ABC  2378               	addwfc	(___flmul@prod+3)& (0+255),f,b
  4238                           
  4239                           ; BSR set to: 1
  4240  001ABE  0100               	movlb	0	; () banked
  4241  001AC0  519E               	movf	(___flmul@a+1)& (0+255),w,b
  4242  001AC2  0100               	movlb	0	; () banked
  4243  001AC4  039B               	mulwf	(___flmul@b+2)& (0+255),b
  4244  001AC6  CFF3 F179          	movff	prodl,___flmul@temp
  4245  001ACA  CFF4 F17A          	movff	prodh,___flmul@temp+1
  4246                           
  4247                           ; BSR set to: 0
  4248  001ACE  0101               	movlb	1	; () banked
  4249  001AD0  5179               	movf	___flmul@temp& (0+255),w,b
  4250  001AD2  0101               	movlb	1	; () banked
  4251  001AD4  2775               	addwf	___flmul@prod& (0+255),f,b
  4252  001AD6  0101               	movlb	1	; () banked
  4253  001AD8  517A               	movf	(___flmul@temp+1)& (0+255),w,b
  4254  001ADA  0101               	movlb	1	; () banked
  4255  001ADC  2376               	addwfc	(___flmul@prod+1)& (0+255),f,b
  4256  001ADE  0E00               	movlw	0
  4257  001AE0  0101               	movlb	1	; () banked
  4258  001AE2  2377               	addwfc	(___flmul@prod+2)& (0+255),f,b
  4259  001AE4  0E00               	movlw	0
  4260  001AE6  0101               	movlb	1	; () banked
  4261  001AE8  2378               	addwfc	(___flmul@prod+3)& (0+255),f,b
  4262  001AEA  0100               	movlb	0	; () banked
  4263  001AEC  519F               	movf	(___flmul@a+2)& (0+255),w,b
  4264  001AEE  0100               	movlb	0	; () banked
  4265  001AF0  039B               	mulwf	(___flmul@b+2)& (0+255),b
  4266  001AF2  CFF3 F179          	movff	prodl,___flmul@temp
  4267  001AF6  CFF4 F17A          	movff	prodh,___flmul@temp+1
  4268                           
  4269                           ; BSR set to: 0
  4270  001AFA  0101               	movlb	1	; () banked
  4271  001AFC  5179               	movf	___flmul@temp& (0+255),w,b
  4272  001AFE  0100               	movlb	0	; () banked
  4273  001B00  6FA1               	movwf	??___flmul& (0+255),b
  4274  001B02  0101               	movlb	1	; () banked
  4275  001B04  517A               	movf	(___flmul@temp+1)& (0+255),w,b
  4276  001B06  0100               	movlb	0	; () banked
  4277  001B08  6FA2               	movwf	(??___flmul+1)& (0+255),b
  4278  001B0A  0100               	movlb	0	; () banked
  4279  001B0C  6BA3               	clrf	(??___flmul+2)& (0+255),b
  4280  001B0E  0100               	movlb	0	; () banked
  4281  001B10  6BA4               	clrf	(??___flmul+3)& (0+255),b
  4282  001B12  C0A3  F0A4         	movff	??___flmul+2,??___flmul+3
  4283  001B16  C0A2  F0A3         	movff	??___flmul+1,??___flmul+2
  4284  001B1A  C0A1  F0A2         	movff	??___flmul,??___flmul+1
  4285  001B1E  0100               	movlb	0	; () banked
  4286  001B20  6BA1               	clrf	??___flmul& (0+255),b
  4287  001B22  0100               	movlb	0	; () banked
  4288  001B24  51A1               	movf	??___flmul& (0+255),w,b
  4289  001B26  0101               	movlb	1	; () banked
  4290  001B28  2775               	addwf	___flmul@prod& (0+255),f,b
  4291  001B2A  0100               	movlb	0	; () banked
  4292  001B2C  51A2               	movf	(??___flmul+1)& (0+255),w,b
  4293  001B2E  0101               	movlb	1	; () banked
  4294  001B30  2376               	addwfc	(___flmul@prod+1)& (0+255),f,b
  4295  001B32  0100               	movlb	0	; () banked
  4296  001B34  51A3               	movf	(??___flmul+2)& (0+255),w,b
  4297  001B36  0101               	movlb	1	; () banked
  4298  001B38  2377               	addwfc	(___flmul@prod+2)& (0+255),f,b
  4299  001B3A  0100               	movlb	0	; () banked
  4300  001B3C  51A4               	movf	(??___flmul+3)& (0+255),w,b
  4301  001B3E  0101               	movlb	1	; () banked
  4302  001B40  2378               	addwfc	(___flmul@prod+3)& (0+255),f,b
  4303                           
  4304                           ; BSR set to: 1
  4305  001B42  C170  F0A1         	movff	___flmul@grs,??___flmul
  4306  001B46  C171  F0A2         	movff	___flmul@grs+1,??___flmul+1
  4307  001B4A  C172  F0A3         	movff	___flmul@grs+2,??___flmul+2
  4308  001B4E  C173  F0A4         	movff	___flmul@grs+3,??___flmul+3
  4309  001B52  0E19               	movlw	25
  4310  001B54  D006               	goto	u6800
  4311  001B56                     u6805:
  4312  001B56  0100               	movlb	0	; () banked
  4313  001B58  90D8               	bcf	status,0,c
  4314  001B5A  33A4               	rrcf	(??___flmul+3)& (0+255),f,b
  4315  001B5C  33A3               	rrcf	(??___flmul+2)& (0+255),f,b
  4316  001B5E  33A2               	rrcf	(??___flmul+1)& (0+255),f,b
  4317  001B60  33A1               	rrcf	??___flmul& (0+255),f,b
  4318  001B62                     u6800:
  4319  001B62  2EE8               	decfsz	wreg,f,c
  4320  001B64  D7F8               	goto	u6805
  4321  001B66  0100               	movlb	0	; () banked
  4322  001B68  51A1               	movf	??___flmul& (0+255),w,b
  4323  001B6A  0101               	movlb	1	; () banked
  4324  001B6C  2775               	addwf	___flmul@prod& (0+255),f,b
  4325  001B6E  0100               	movlb	0	; () banked
  4326  001B70  51A2               	movf	(??___flmul+1)& (0+255),w,b
  4327  001B72  0101               	movlb	1	; () banked
  4328  001B74  2376               	addwfc	(___flmul@prod+1)& (0+255),f,b
  4329  001B76  0100               	movlb	0	; () banked
  4330  001B78  51A3               	movf	(??___flmul+2)& (0+255),w,b
  4331  001B7A  0101               	movlb	1	; () banked
  4332  001B7C  2377               	addwfc	(___flmul@prod+2)& (0+255),f,b
  4333  001B7E  0100               	movlb	0	; () banked
  4334  001B80  51A4               	movf	(??___flmul+3)& (0+255),w,b
  4335  001B82  0101               	movlb	1	; () banked
  4336  001B84  2378               	addwfc	(___flmul@prod+3)& (0+255),f,b
  4337                           
  4338                           ; BSR set to: 1
  4339  001B86  C172  F173         	movff	___flmul@grs+2,___flmul@grs+3
  4340  001B8A  C171  F172         	movff	___flmul@grs+1,___flmul@grs+2
  4341  001B8E  C170  F171         	movff	___flmul@grs,___flmul@grs+1
  4342  001B92  0101               	movlb	1	; () banked
  4343  001B94  6B70               	clrf	___flmul@grs& (0+255),b
  4344                           
  4345                           ; BSR set to: 1
  4346  001B96  0101               	movlb	1	; () banked
  4347  001B98  516F               	movf	___flmul@aexp& (0+255),w,b
  4348  001B9A  C174  F0A1         	movff	___flmul@bexp,??___flmul
  4349  001B9E  0100               	movlb	0	; () banked
  4350  001BA0  6BA2               	clrf	(??___flmul+1)& (0+255),b
  4351  001BA2  0100               	movlb	0	; () banked
  4352  001BA4  27A1               	addwf	??___flmul& (0+255),f,b
  4353  001BA6  0E00               	movlw	0
  4354  001BA8  23A2               	addwfc	(??___flmul+1)& (0+255),f,b
  4355  001BAA  0E82               	movlw	130
  4356  001BAC  0100               	movlb	0	; () banked
  4357  001BAE  25A1               	addwf	??___flmul& (0+255),w,b
  4358  001BB0  0101               	movlb	1	; () banked
  4359  001BB2  6F79               	movwf	___flmul@temp& (0+255),b
  4360  001BB4  0EFF               	movlw	255
  4361  001BB6  0100               	movlb	0	; () banked
  4362  001BB8  21A2               	addwfc	(??___flmul+1)& (0+255),w,b
  4363  001BBA  0101               	movlb	1	; () banked
  4364  001BBC  6F7A               	movwf	(___flmul@temp+1)& (0+255),b
  4365  001BBE  D015               	goto	l6261
  4366  001BC0                     l6255:
  4367                           
  4368                           ; BSR set to: 1
  4369  001BC0  0101               	movlb	1	; () banked
  4370  001BC2  90D8               	bcf	status,0,c
  4371  001BC4  3775               	rlcf	___flmul@prod& (0+255),f,b
  4372  001BC6  3776               	rlcf	(___flmul@prod+1)& (0+255),f,b
  4373  001BC8  3777               	rlcf	(___flmul@prod+2)& (0+255),f,b
  4374  001BCA  3778               	rlcf	(___flmul@prod+3)& (0+255),f,b
  4375                           
  4376                           ; BSR set to: 1
  4377  001BCC  0101               	movlb	1	; () banked
  4378  001BCE  AF73               	btfss	(___flmul@grs+3)& (0+255),7,b
  4379  001BD0  D002               	goto	l1320
  4380                           
  4381                           ; BSR set to: 1
  4382  001BD2  0101               	movlb	1	; () banked
  4383  001BD4  8175               	bsf	___flmul@prod& (0+255),0,b
  4384  001BD6                     l1320:
  4385                           
  4386                           ; BSR set to: 1
  4387  001BD6  0101               	movlb	1	; () banked
  4388  001BD8  90D8               	bcf	status,0,c
  4389  001BDA  3770               	rlcf	___flmul@grs& (0+255),f,b
  4390  001BDC  3771               	rlcf	(___flmul@grs+1)& (0+255),f,b
  4391  001BDE  3772               	rlcf	(___flmul@grs+2)& (0+255),f,b
  4392  001BE0  3773               	rlcf	(___flmul@grs+3)& (0+255),f,b
  4393  001BE2  0101               	movlb	1	; () banked
  4394  001BE4  0779               	decf	___flmul@temp& (0+255),f,b
  4395  001BE6  A0D8               	btfss	status,0,c
  4396  001BE8  077A               	decf	(___flmul@temp+1)& (0+255),f,b
  4397  001BEA                     l6261:
  4398                           
  4399                           ; BSR set to: 1
  4400  001BEA  0101               	movlb	1	; () banked
  4401  001BEC  AF77               	btfss	(___flmul@prod+2)& (0+255),7,b
  4402  001BEE  D7E8               	goto	l6255
  4403                           
  4404                           ; BSR set to: 1
  4405                           
  4406                           ; BSR set to: 1
  4407  001BF0  0E00               	movlw	0
  4408  001BF2  0101               	movlb	1	; () banked
  4409  001BF4  6F6F               	movwf	___flmul@aexp& (0+255),b
  4410                           
  4411                           ; BSR set to: 1
  4412  001BF6  0101               	movlb	1	; () banked
  4413  001BF8  AF73               	btfss	(___flmul@grs+3)& (0+255),7,b
  4414  001BFA  D024               	goto	l1322
  4415                           
  4416                           ; BSR set to: 1
  4417  001BFC  0EFF               	movlw	255
  4418  001BFE  0101               	movlb	1	; () banked
  4419  001C00  1570               	andwf	___flmul@grs& (0+255),w,b
  4420  001C02  0100               	movlb	0	; () banked
  4421  001C04  6FA1               	movwf	??___flmul& (0+255),b
  4422  001C06  0EFF               	movlw	255
  4423  001C08  0101               	movlb	1	; () banked
  4424  001C0A  1571               	andwf	(___flmul@grs+1)& (0+255),w,b
  4425  001C0C  0100               	movlb	0	; () banked
  4426  001C0E  6FA2               	movwf	(??___flmul+1)& (0+255),b
  4427  001C10  0EFF               	movlw	255
  4428  001C12  0101               	movlb	1	; () banked
  4429  001C14  1572               	andwf	(___flmul@grs+2)& (0+255),w,b
  4430  001C16  0100               	movlb	0	; () banked
  4431  001C18  6FA3               	movwf	(??___flmul+2)& (0+255),b
  4432  001C1A  0E7F               	movlw	127
  4433  001C1C  0101               	movlb	1	; () banked
  4434  001C1E  1573               	andwf	(___flmul@grs+3)& (0+255),w,b
  4435  001C20  0100               	movlb	0	; () banked
  4436  001C22  6FA4               	movwf	(??___flmul+3)& (0+255),b
  4437  001C24  0100               	movlb	0	; () banked
  4438  001C26  51A1               	movf	??___flmul& (0+255),w,b
  4439  001C28  0100               	movlb	0	; () banked
  4440  001C2A  11A2               	iorwf	(??___flmul+1)& (0+255),w,b
  4441  001C2C  0100               	movlb	0	; () banked
  4442  001C2E  11A3               	iorwf	(??___flmul+2)& (0+255),w,b
  4443  001C30  0100               	movlb	0	; () banked
  4444  001C32  11A4               	iorwf	(??___flmul+3)& (0+255),w,b
  4445  001C34  A4D8               	btfss	status,2,c
  4446  001C36  D003               	goto	l6271
  4447                           
  4448                           ; BSR set to: 0
  4449                           
  4450                           ; BSR set to: 0
  4451  001C38  0101               	movlb	1	; () banked
  4452  001C3A  A175               	btfss	___flmul@prod& (0+255),0,b
  4453  001C3C  D003               	goto	l1322
  4454  001C3E                     l6271:
  4455                           
  4456                           ; BSR set to: 1
  4457  001C3E  0E01               	movlw	1
  4458  001C40  0101               	movlb	1	; () banked
  4459  001C42  6F6F               	movwf	___flmul@aexp& (0+255),b
  4460  001C44                     l1322:
  4461                           
  4462                           ; BSR set to: 1
  4463  001C44  0101               	movlb	1	; () banked
  4464  001C46  516F               	movf	___flmul@aexp& (0+255),w,b
  4465  001C48  0101               	movlb	1	; () banked
  4466  001C4A  B4D8               	btfsc	status,2,c
  4467  001C4C  D023               	goto	l6281
  4468                           
  4469                           ; BSR set to: 1
  4470  001C4E  0E01               	movlw	1
  4471  001C50  0101               	movlb	1	; () banked
  4472  001C52  2775               	addwf	___flmul@prod& (0+255),f,b
  4473  001C54  0E00               	movlw	0
  4474  001C56  2376               	addwfc	(___flmul@prod+1)& (0+255),f,b
  4475  001C58  2377               	addwfc	(___flmul@prod+2)& (0+255),f,b
  4476  001C5A  2378               	addwfc	(___flmul@prod+3)& (0+255),f,b
  4477                           
  4478                           ; BSR set to: 1
  4479  001C5C  0101               	movlb	1	; () banked
  4480  001C5E  A178               	btfss	(___flmul@prod+3)& (0+255),0,b
  4481  001C60  D019               	goto	l6281
  4482                           
  4483                           ; BSR set to: 1
  4484  001C62  C175  F0A1         	movff	___flmul@prod,??___flmul
  4485  001C66  C176  F0A2         	movff	___flmul@prod+1,??___flmul+1
  4486  001C6A  C177  F0A3         	movff	___flmul@prod+2,??___flmul+2
  4487  001C6E  C178  F0A4         	movff	___flmul@prod+3,??___flmul+3
  4488  001C72  0100               	movlb	0	; () banked
  4489  001C74  35A4               	rlcf	(??___flmul+3)& (0+255),w,b
  4490  001C76  33A4               	rrcf	(??___flmul+3)& (0+255),f,b
  4491  001C78  33A3               	rrcf	(??___flmul+2)& (0+255),f,b
  4492  001C7A  33A2               	rrcf	(??___flmul+1)& (0+255),f,b
  4493  001C7C  33A1               	rrcf	??___flmul& (0+255),f,b
  4494  001C7E  C0A1  F175         	movff	??___flmul,___flmul@prod
  4495  001C82  C0A2  F176         	movff	??___flmul+1,___flmul@prod+1
  4496  001C86  C0A3  F177         	movff	??___flmul+2,___flmul@prod+2
  4497  001C8A  C0A4  F178         	movff	??___flmul+3,___flmul@prod+3
  4498                           
  4499                           ; BSR set to: 0
  4500  001C8E  0101               	movlb	1	; () banked
  4501  001C90  4B79               	infsnz	___flmul@temp& (0+255),f,b
  4502  001C92  2B7A               	incf	(___flmul@temp+1)& (0+255),f,b
  4503  001C94                     l6281:
  4504                           
  4505                           ; BSR set to: 1
  4506  001C94  0101               	movlb	1	; () banked
  4507  001C96  BF7A               	btfsc	(___flmul@temp+1)& (0+255),7,b
  4508  001C98  D010               	goto	l6285
  4509  001C9A  0101               	movlb	1	; () banked
  4510  001C9C  517A               	movf	(___flmul@temp+1)& (0+255),w,b
  4511  001C9E  E104               	bnz	u6880
  4512  001CA0  0101               	movlb	1	; () banked
  4513  001CA2  2979               	incf	___flmul@temp& (0+255),w,b
  4514  001CA4  A0D8               	btfss	status,0,c
  4515  001CA6  D009               	goto	l6285
  4516  001CA8                     u6880:
  4517                           
  4518                           ; BSR set to: 1
  4519  001CA8  0E00               	movlw	0
  4520  001CAA  0101               	movlb	1	; () banked
  4521  001CAC  6F75               	movwf	___flmul@prod& (0+255),b
  4522  001CAE  0E00               	movlw	0
  4523  001CB0  6F76               	movwf	(___flmul@prod+1)& (0+255),b
  4524  001CB2  0E80               	movlw	128
  4525  001CB4  6F77               	movwf	(___flmul@prod+2)& (0+255),b
  4526  001CB6  0E7F               	movlw	127
  4527  001CB8  D02B               	goto	L4
  4528  001CBA                     l6285:
  4529                           
  4530                           ; BSR set to: 1
  4531  001CBA  0101               	movlb	1	; () banked
  4532  001CBC  BF7A               	btfsc	(___flmul@temp+1)& (0+255),7,b
  4533  001CBE  D007               	goto	l6287
  4534  001CC0  0101               	movlb	1	; () banked
  4535  001CC2  517A               	movf	(___flmul@temp+1)& (0+255),w,b
  4536  001CC4  E111               	bnz	l1330
  4537  001CC6  0101               	movlb	1	; () banked
  4538  001CC8  0579               	decf	___flmul@temp& (0+255),w,b
  4539  001CCA  B0D8               	btfsc	status,0,c
  4540  001CCC  D00D               	goto	l1330
  4541  001CCE                     l6287:
  4542                           
  4543                           ; BSR set to: 1
  4544  001CCE  0E00               	movlw	0
  4545  001CD0  0101               	movlb	1	; () banked
  4546  001CD2  6F75               	movwf	___flmul@prod& (0+255),b
  4547  001CD4  0E00               	movlw	0
  4548  001CD6  6F76               	movwf	(___flmul@prod+1)& (0+255),b
  4549  001CD8  0E00               	movlw	0
  4550  001CDA  6F77               	movwf	(___flmul@prod+2)& (0+255),b
  4551  001CDC  0E00               	movlw	0
  4552  001CDE  6F78               	movwf	(___flmul@prod+3)& (0+255),b
  4553  001CE0  0E00               	movlw	0
  4554  001CE2  0101               	movlb	1	; () banked
  4555  001CE4  6F6E               	movwf	___flmul@sign& (0+255),b
  4556  001CE6  D015               	goto	l6297
  4557  001CE8                     l1330:
  4558                           
  4559                           ; BSR set to: 1
  4560  001CE8  C179  F174         	movff	___flmul@temp,___flmul@bexp
  4561                           
  4562                           ; BSR set to: 1
  4563  001CEC  0EFF               	movlw	255
  4564  001CEE  0101               	movlb	1	; () banked
  4565  001CF0  1775               	andwf	___flmul@prod& (0+255),f,b
  4566  001CF2  0EFF               	movlw	255
  4567  001CF4  1776               	andwf	(___flmul@prod+1)& (0+255),f,b
  4568  001CF6  0E7F               	movlw	127
  4569  001CF8  1777               	andwf	(___flmul@prod+2)& (0+255),f,b
  4570  001CFA  0E00               	movlw	0
  4571  001CFC  1778               	andwf	(___flmul@prod+3)& (0+255),f,b
  4572                           
  4573                           ; BSR set to: 1
  4574  001CFE  0101               	movlb	1	; () banked
  4575  001D00  A174               	btfss	___flmul@bexp& (0+255),0,b
  4576  001D02  D002               	goto	l6295
  4577                           
  4578                           ; BSR set to: 1
  4579  001D04  0101               	movlb	1	; () banked
  4580  001D06  8F77               	bsf	(___flmul@prod+2)& (0+255),7,b
  4581  001D08                     l6295:
  4582                           
  4583                           ; BSR set to: 1
  4584  001D08  0101               	movlb	1	; () banked
  4585  001D0A  90D8               	bcf	status,0,c
  4586  001D0C  3174               	rrcf	___flmul@bexp& (0+255),w,b
  4587  001D0E  0101               	movlb	1	; () banked
  4588  001D10                     L4:
  4589  001D10  6F78               	movwf	(___flmul@prod+3)& (0+255),b
  4590  001D12                     l6297:
  4591                           
  4592                           ; BSR set to: 1
  4593  001D12  0101               	movlb	1	; () banked
  4594  001D14  516E               	movf	___flmul@sign& (0+255),w,b
  4595  001D16  0101               	movlb	1	; () banked
  4596  001D18  1378               	iorwf	(___flmul@prod+3)& (0+255),f,b
  4597                           
  4598                           ; BSR set to: 1
  4599  001D1A  C175  F099         	movff	___flmul@prod,?___flmul
  4600  001D1E  C176  F09A         	movff	___flmul@prod+1,?___flmul+1
  4601  001D22  C177  F09B         	movff	___flmul@prod+2,?___flmul+2
  4602  001D26  C178  F09C         	movff	___flmul@prod+3,?___flmul+3
  4603  001D2A  0012               	return	
  4604  001D2C                     __end_of___flmul:
  4605                           	opt stack 0
  4606                           stkptr	equ	0xFFC
  4607                           tblptru	equ	0xFF8
  4608                           tblptrh	equ	0xFF7
  4609                           tblptrl	equ	0xFF6
  4610                           tablat	equ	0xFF5
  4611                           prodh	equ	0xFF4
  4612                           prodl	equ	0xFF3
  4613                           intcon	equ	0xFF2
  4614                           intcon2	equ	0xFF1
  4615                           postinc0	equ	0xFEE
  4616                           wreg	equ	0xFE8
  4617                           postdec1	equ	0xFE5
  4618                           fsr1l	equ	0xFE1
  4619                           status	equ	0xFD8
  4620                           
  4621 ;; *************** function ___flge *****************
  4622 ;; Defined at:
  4623 ;;		line 4 in file "C:\Program Files (x86)\Microchip\xc8\v1.42\sources\common\flge.c"
  4624 ;; Parameters:    Size  Location     Type
  4625 ;;  ff1             4   19[BANK0 ] unsigned char 
  4626 ;;  ff2             4   23[BANK0 ] unsigned char 
  4627 ;; Auto vars:     Size  Location     Type
  4628 ;;		None
  4629 ;; Return value:  Size  Location     Type
  4630 ;;		None               void
  4631 ;; Registers used:
  4632 ;;		wreg, status,2, status,0
  4633 ;; Tracked objects:
  4634 ;;		On entry : 0/0
  4635 ;;		On exit  : 0/0
  4636 ;;		Unchanged: 0/0
  4637 ;; Data sizes:     COMRAM   BANK0   BANK1   BANK2   BANK3   BANK4   BANK5   BANK6   BANK7   BANK8   BANK9  BANK10  BANK1
      +1  BANK12  BANK13  BANK14  BANK15
  4638 ;;      Params:         0       8       0       0       0       0       0       0       0       0       0       0       
      +0       0       0       0       0
  4639 ;;      Locals:         0       0       0       0       0       0       0       0       0       0       0       0       
      +0       0       0       0       0
  4640 ;;      Temps:          0       4       0       0       0       0       0       0       0       0       0       0       
      +0       0       0       0       0
  4641 ;;      Totals:         0      12       0       0       0       0       0       0       0       0       0       0       
      +0       0       0       0       0
  4642 ;;Total ram usage:       12 bytes
  4643 ;; Hardware stack levels used:    1
  4644 ;; Hardware stack levels required when called:    7
  4645 ;; This function calls:
  4646 ;;		Nothing
  4647 ;; This function is called by:
  4648 ;;		_main
  4649 ;;		_Control_ml_ign
  4650 ;; This function uses a non-reentrant model
  4651 ;;
  4652                           
  4653                           	psect	text10
  4654  002B12                     __ptext10:
  4655                           	opt stack 0
  4656  002B12                     ___flge:
  4657                           	opt stack 23
  4658                           
  4659                           ;incstack = 0
  4660  002B12  0E00               	movlw	0
  4661  002B14  0100               	movlb	0	; () banked
  4662  002B16  1573               	andwf	___flge@ff1& (0+255),w,b
  4663  002B18  0100               	movlb	0	; () banked
  4664  002B1A  6F7B               	movwf	??___flge& (0+255),b
  4665  002B1C  0E00               	movlw	0
  4666  002B1E  0100               	movlb	0	; () banked
  4667  002B20  1574               	andwf	(___flge@ff1+1)& (0+255),w,b
  4668  002B22  0100               	movlb	0	; () banked
  4669  002B24  6F7C               	movwf	(??___flge+1)& (0+255),b
  4670  002B26  0E80               	movlw	128
  4671  002B28  0100               	movlb	0	; () banked
  4672  002B2A  1575               	andwf	(___flge@ff1+2)& (0+255),w,b
  4673  002B2C  0100               	movlb	0	; () banked
  4674  002B2E  6F7D               	movwf	(??___flge+2)& (0+255),b
  4675  002B30  0E7F               	movlw	127
  4676  002B32  0100               	movlb	0	; () banked
  4677  002B34  1576               	andwf	(___flge@ff1+3)& (0+255),w,b
  4678  002B36  0100               	movlb	0	; () banked
  4679  002B38  6F7E               	movwf	(??___flge+3)& (0+255),b
  4680  002B3A  0100               	movlb	0	; () banked
  4681  002B3C  517B               	movf	??___flge& (0+255),w,b
  4682  002B3E  0100               	movlb	0	; () banked
  4683  002B40  117C               	iorwf	(??___flge+1)& (0+255),w,b
  4684  002B42  0100               	movlb	0	; () banked
  4685  002B44  117D               	iorwf	(??___flge+2)& (0+255),w,b
  4686  002B46  0100               	movlb	0	; () banked
  4687  002B48  117E               	iorwf	(??___flge+3)& (0+255),w,b
  4688  002B4A  A4D8               	btfss	status,2,c
  4689  002B4C  D009               	goto	l6307
  4690                           
  4691                           ; BSR set to: 0
  4692  002B4E  0E00               	movlw	0
  4693  002B50  0100               	movlb	0	; () banked
  4694  002B52  6F73               	movwf	___flge@ff1& (0+255),b
  4695  002B54  0E00               	movlw	0
  4696  002B56  6F74               	movwf	(___flge@ff1+1)& (0+255),b
  4697  002B58  0E00               	movlw	0
  4698  002B5A  6F75               	movwf	(___flge@ff1+2)& (0+255),b
  4699  002B5C  0E00               	movlw	0
  4700  002B5E  6F76               	movwf	(___flge@ff1+3)& (0+255),b
  4701  002B60                     l6307:
  4702                           
  4703                           ; BSR set to: 0
  4704  002B60  0E00               	movlw	0
  4705  002B62  0100               	movlb	0	; () banked
  4706  002B64  1577               	andwf	___flge@ff2& (0+255),w,b
  4707  002B66  0100               	movlb	0	; () banked
  4708  002B68  6F7B               	movwf	??___flge& (0+255),b
  4709  002B6A  0E00               	movlw	0
  4710  002B6C  0100               	movlb	0	; () banked
  4711  002B6E  1578               	andwf	(___flge@ff2+1)& (0+255),w,b
  4712  002B70  0100               	movlb	0	; () banked
  4713  002B72  6F7C               	movwf	(??___flge+1)& (0+255),b
  4714  002B74  0E80               	movlw	128
  4715  002B76  0100               	movlb	0	; () banked
  4716  002B78  1579               	andwf	(___flge@ff2+2)& (0+255),w,b
  4717  002B7A  0100               	movlb	0	; () banked
  4718  002B7C  6F7D               	movwf	(??___flge+2)& (0+255),b
  4719  002B7E  0E7F               	movlw	127
  4720  002B80  0100               	movlb	0	; () banked
  4721  002B82  157A               	andwf	(___flge@ff2+3)& (0+255),w,b
  4722  002B84  0100               	movlb	0	; () banked
  4723  002B86  6F7E               	movwf	(??___flge+3)& (0+255),b
  4724  002B88  0100               	movlb	0	; () banked
  4725  002B8A  517B               	movf	??___flge& (0+255),w,b
  4726  002B8C  0100               	movlb	0	; () banked
  4727  002B8E  117C               	iorwf	(??___flge+1)& (0+255),w,b
  4728  002B90  0100               	movlb	0	; () banked
  4729  002B92  117D               	iorwf	(??___flge+2)& (0+255),w,b
  4730  002B94  0100               	movlb	0	; () banked
  4731  002B96  117E               	iorwf	(??___flge+3)& (0+255),w,b
  4732  002B98  A4D8               	btfss	status,2,c
  4733  002B9A  D009               	goto	l6311
  4734                           
  4735                           ; BSR set to: 0
  4736  002B9C  0E00               	movlw	0
  4737  002B9E  0100               	movlb	0	; () banked
  4738  002BA0  6F77               	movwf	___flge@ff2& (0+255),b
  4739  002BA2  0E00               	movlw	0
  4740  002BA4  6F78               	movwf	(___flge@ff2+1)& (0+255),b
  4741  002BA6  0E00               	movlw	0
  4742  002BA8  6F79               	movwf	(___flge@ff2+2)& (0+255),b
  4743  002BAA  0E00               	movlw	0
  4744  002BAC  6F7A               	movwf	(___flge@ff2+3)& (0+255),b
  4745  002BAE                     l6311:
  4746                           
  4747                           ; BSR set to: 0
  4748  002BAE  0100               	movlb	0	; () banked
  4749  002BB0  AF76               	btfss	(___flge@ff1+3)& (0+255),7,b
  4750  002BB2  D026               	goto	l6315
  4751                           
  4752                           ; BSR set to: 0
  4753  002BB4  C073  F07B         	movff	___flge@ff1,??___flge
  4754  002BB8  C074  F07C         	movff	___flge@ff1+1,??___flge+1
  4755  002BBC  C075  F07D         	movff	___flge@ff1+2,??___flge+2
  4756  002BC0  C076  F07E         	movff	___flge@ff1+3,??___flge+3
  4757  002BC4  0100               	movlb	0	; () banked
  4758  002BC6  1F7B               	comf	??___flge& (0+255),f,b
  4759  002BC8  1F7C               	comf	(??___flge+1)& (0+255),f,b
  4760  002BCA  1F7D               	comf	(??___flge+2)& (0+255),f,b
  4761  002BCC  1F7E               	comf	(??___flge+3)& (0+255),f,b
  4762  002BCE  2B7B               	incf	??___flge& (0+255),f,b
  4763  002BD0  0E00               	movlw	0
  4764  002BD2  237C               	addwfc	(??___flge+1)& (0+255),f,b
  4765  002BD4  237D               	addwfc	(??___flge+2)& (0+255),f,b
  4766  002BD6  237E               	addwfc	(??___flge+3)& (0+255),f,b
  4767  002BD8  0E00               	movlw	0
  4768  002BDA  0100               	movlb	0	; () banked
  4769  002BDC  257B               	addwf	??___flge& (0+255),w,b
  4770  002BDE  0100               	movlb	0	; () banked
  4771  002BE0  6F73               	movwf	___flge@ff1& (0+255),b
  4772  002BE2  0E00               	movlw	0
  4773  002BE4  0100               	movlb	0	; () banked
  4774  002BE6  217C               	addwfc	(??___flge+1)& (0+255),w,b
  4775  002BE8  0100               	movlb	0	; () banked
  4776  002BEA  6F74               	movwf	(___flge@ff1+1)& (0+255),b
  4777  002BEC  0E00               	movlw	0
  4778  002BEE  0100               	movlb	0	; () banked
  4779  002BF0  217D               	addwfc	(??___flge+2)& (0+255),w,b
  4780  002BF2  0100               	movlb	0	; () banked
  4781  002BF4  6F75               	movwf	(___flge@ff1+2)& (0+255),b
  4782  002BF6  0E80               	movlw	128
  4783  002BF8  0100               	movlb	0	; () banked
  4784  002BFA  217E               	addwfc	(??___flge+3)& (0+255),w,b
  4785  002BFC  0100               	movlb	0	; () banked
  4786  002BFE  6F76               	movwf	(___flge@ff1+3)& (0+255),b
  4787  002C00                     l6315:
  4788                           
  4789                           ; BSR set to: 0
  4790  002C00  0100               	movlb	0	; () banked
  4791  002C02  AF7A               	btfss	(___flge@ff2+3)& (0+255),7,b
  4792  002C04  D026               	goto	l990
  4793                           
  4794                           ; BSR set to: 0
  4795  002C06  C077  F07B         	movff	___flge@ff2,??___flge
  4796  002C0A  C078  F07C         	movff	___flge@ff2+1,??___flge+1
  4797  002C0E  C079  F07D         	movff	___flge@ff2+2,??___flge+2
  4798  002C12  C07A  F07E         	movff	___flge@ff2+3,??___flge+3
  4799  002C16  0100               	movlb	0	; () banked
  4800  002C18  1F7B               	comf	??___flge& (0+255),f,b
  4801  002C1A  1F7C               	comf	(??___flge+1)& (0+255),f,b
  4802  002C1C  1F7D               	comf	(??___flge+2)& (0+255),f,b
  4803  002C1E  1F7E               	comf	(??___flge+3)& (0+255),f,b
  4804  002C20  2B7B               	incf	??___flge& (0+255),f,b
  4805  002C22  0E00               	movlw	0
  4806  002C24  237C               	addwfc	(??___flge+1)& (0+255),f,b
  4807  002C26  237D               	addwfc	(??___flge+2)& (0+255),f,b
  4808  002C28  237E               	addwfc	(??___flge+3)& (0+255),f,b
  4809  002C2A  0E00               	movlw	0
  4810  002C2C  0100               	movlb	0	; () banked
  4811  002C2E  257B               	addwf	??___flge& (0+255),w,b
  4812  002C30  0100               	movlb	0	; () banked
  4813  002C32  6F77               	movwf	___flge@ff2& (0+255),b
  4814  002C34  0E00               	movlw	0
  4815  002C36  0100               	movlb	0	; () banked
  4816  002C38  217C               	addwfc	(??___flge+1)& (0+255),w,b
  4817  002C3A  0100               	movlb	0	; () banked
  4818  002C3C  6F78               	movwf	(___flge@ff2+1)& (0+255),b
  4819  002C3E  0E00               	movlw	0
  4820  002C40  0100               	movlb	0	; () banked
  4821  002C42  217D               	addwfc	(??___flge+2)& (0+255),w,b
  4822  002C44  0100               	movlb	0	; () banked
  4823  002C46  6F79               	movwf	(___flge@ff2+2)& (0+255),b
  4824  002C48  0E80               	movlw	128
  4825  002C4A  0100               	movlb	0	; () banked
  4826  002C4C  217E               	addwfc	(??___flge+3)& (0+255),w,b
  4827  002C4E  0100               	movlb	0	; () banked
  4828  002C50  6F7A               	movwf	(___flge@ff2+3)& (0+255),b
  4829  002C52                     l990:
  4830                           
  4831                           ; BSR set to: 0
  4832  002C52  0E00               	movlw	0
  4833  002C54  0100               	movlb	0	; () banked
  4834  002C56  1B73               	xorwf	___flge@ff1& (0+255),f,b
  4835  002C58  0E00               	movlw	0
  4836  002C5A  1B74               	xorwf	(___flge@ff1+1)& (0+255),f,b
  4837  002C5C  0E00               	movlw	0
  4838  002C5E  1B75               	xorwf	(___flge@ff1+2)& (0+255),f,b
  4839  002C60  0E80               	movlw	128
  4840  002C62  1B76               	xorwf	(___flge@ff1+3)& (0+255),f,b
  4841  002C64  0E00               	movlw	0
  4842  002C66  0100               	movlb	0	; () banked
  4843  002C68  1B77               	xorwf	___flge@ff2& (0+255),f,b
  4844  002C6A  0E00               	movlw	0
  4845  002C6C  1B78               	xorwf	(___flge@ff2+1)& (0+255),f,b
  4846  002C6E  0E00               	movlw	0
  4847  002C70  1B79               	xorwf	(___flge@ff2+2)& (0+255),f,b
  4848  002C72  0E80               	movlw	128
  4849  002C74  1B7A               	xorwf	(___flge@ff2+3)& (0+255),f,b
  4850  002C76  0100               	movlb	0	; () banked
  4851  002C78  5177               	movf	___flge@ff2& (0+255),w,b
  4852  002C7A  0100               	movlb	0	; () banked
  4853  002C7C  5D73               	subwf	___flge@ff1& (0+255),w,b
  4854  002C7E  0100               	movlb	0	; () banked
  4855  002C80  5178               	movf	(___flge@ff2+1)& (0+255),w,b
  4856  002C82  0100               	movlb	0	; () banked
  4857  002C84  5974               	subwfb	(___flge@ff1+1)& (0+255),w,b
  4858  002C86  0100               	movlb	0	; () banked
  4859  002C88  5179               	movf	(___flge@ff2+2)& (0+255),w,b
  4860  002C8A  0100               	movlb	0	; () banked
  4861  002C8C  5975               	subwfb	(___flge@ff1+2)& (0+255),w,b
  4862  002C8E  0100               	movlb	0	; () banked
  4863  002C90  517A               	movf	(___flge@ff2+3)& (0+255),w,b
  4864  002C92  0100               	movlb	0	; () banked
  4865  002C94  5976               	subwfb	(___flge@ff1+3)& (0+255),w,b
  4866  002C96  B0D8               	btfsc	status,0,c
  4867  002C98  D002               	goto	l6321
  4868                           
  4869                           ; BSR set to: 0
  4870  002C9A  90D8               	bcf	status,0,c
  4871  002C9C  0012               	return	
  4872  002C9E                     l6321:
  4873                           
  4874                           ; BSR set to: 0
  4875  002C9E  80D8               	bsf	status,0,c
  4876                           
  4877                           ; BSR set to: 0
  4878  002CA0  0012               	return	
  4879  002CA2                     __end_of___flge:
  4880                           	opt stack 0
  4881                           stkptr	equ	0xFFC
  4882                           tblptru	equ	0xFF8
  4883                           tblptrh	equ	0xFF7
  4884                           tblptrl	equ	0xFF6
  4885                           tablat	equ	0xFF5
  4886                           prodh	equ	0xFF4
  4887                           prodl	equ	0xFF3
  4888                           intcon	equ	0xFF2
  4889                           intcon2	equ	0xFF1
  4890                           postinc0	equ	0xFEE
  4891                           wreg	equ	0xFE8
  4892                           postdec1	equ	0xFE5
  4893                           fsr1l	equ	0xFE1
  4894                           status	equ	0xFD8
  4895                           
  4896 ;; *************** function ___fladd *****************
  4897 ;; Defined at:
  4898 ;;		line 10 in file "C:\Program Files (x86)\Microchip\xc8\v1.42\sources\common\sprcadd.c"
  4899 ;; Parameters:    Size  Location     Type
  4900 ;;  b               4   37[BANK0 ] unsigned char 
  4901 ;;  a               4   41[BANK0 ] unsigned char 
  4902 ;; Auto vars:     Size  Location     Type
  4903 ;;  grs             1   56[BANK0 ] unsigned char 
  4904 ;;  bexp            1   55[BANK0 ] unsigned char 
  4905 ;;  aexp            1   54[BANK0 ] unsigned char 
  4906 ;;  signs           1   53[BANK0 ] unsigned char 
  4907 ;; Return value:  Size  Location     Type
  4908 ;;                  4   37[BANK0 ] unsigned char 
  4909 ;; Registers used:
  4910 ;;		wreg, status,2, status,0
  4911 ;; Tracked objects:
  4912 ;;		On entry : 0/0
  4913 ;;		On exit  : 0/0
  4914 ;;		Unchanged: 0/0
  4915 ;; Data sizes:     COMRAM   BANK0   BANK1   BANK2   BANK3   BANK4   BANK5   BANK6   BANK7   BANK8   BANK9  BANK10  BANK1
      +1  BANK12  BANK13  BANK14  BANK15
  4916 ;;      Params:         0       8       0       0       0       0       0       0       0       0       0       0       
      +0       0       0       0       0
  4917 ;;      Locals:         0       4       0       0       0       0       0       0       0       0       0       0       
      +0       0       0       0       0
  4918 ;;      Temps:          0       8       0       0       0       0       0       0       0       0       0       0       
      +0       0       0       0       0
  4919 ;;      Totals:         0      20       0       0       0       0       0       0       0       0       0       0       
      +0       0       0       0       0
  4920 ;;Total ram usage:       20 bytes
  4921 ;; Hardware stack levels used:    1
  4922 ;; Hardware stack levels required when called:    7
  4923 ;; This function calls:
  4924 ;;		Nothing
  4925 ;; This function is called by:
  4926 ;;		_main
  4927 ;;		_Control_ml_ign
  4928 ;; This function uses a non-reentrant model
  4929 ;;
  4930                           
  4931                           	psect	text11
  4932  0013DE                     __ptext11:
  4933                           	opt stack 0
  4934  0013DE                     ___fladd:
  4935                           	opt stack 23
  4936                           
  4937                           ; BSR set to: 0
  4938                           ;incstack = 0
  4939  0013DE  0100               	movlb	0	; () banked
  4940  0013E0  5188               	movf	(___fladd@b+3)& (0+255),w,b
  4941  0013E2  0B80               	andlw	128
  4942  0013E4  0100               	movlb	0	; () banked
  4943  0013E6  6F95               	movwf	___fladd@signs& (0+255),b
  4944  0013E8  0100               	movlb	0	; () banked
  4945  0013EA  5188               	movf	(___fladd@b+3)& (0+255),w,b
  4946  0013EC  2588               	addwf	(___fladd@b+3)& (0+255),w,b
  4947  0013EE  0100               	movlb	0	; () banked
  4948  0013F0  6F97               	movwf	___fladd@bexp& (0+255),b
  4949                           
  4950                           ; BSR set to: 0
  4951  0013F2  0100               	movlb	0	; () banked
  4952  0013F4  AF87               	btfss	(___fladd@b+2)& (0+255),7,b
  4953  0013F6  D002               	goto	l5977
  4954                           
  4955                           ; BSR set to: 0
  4956  0013F8  0100               	movlb	0	; () banked
  4957  0013FA  8197               	bsf	___fladd@bexp& (0+255),0,b
  4958  0013FC                     l5977:
  4959                           
  4960                           ; BSR set to: 0
  4961  0013FC  0100               	movlb	0	; () banked
  4962  0013FE  5197               	movf	___fladd@bexp& (0+255),w,b
  4963  001400  0100               	movlb	0	; () banked
  4964  001402  B4D8               	btfsc	status,2,c
  4965  001404  D012               	goto	l5987
  4966                           
  4967                           ; BSR set to: 0
  4968  001406  0100               	movlb	0	; () banked
  4969  001408  2997               	incf	___fladd@bexp& (0+255),w,b
  4970  00140A  A4D8               	btfss	status,2,c
  4971  00140C  D009               	goto	l5983
  4972                           
  4973                           ; BSR set to: 0
  4974  00140E  0E00               	movlw	0
  4975  001410  0100               	movlb	0	; () banked
  4976  001412  6F85               	movwf	___fladd@b& (0+255),b
  4977  001414  0E00               	movlw	0
  4978  001416  6F86               	movwf	(___fladd@b+1)& (0+255),b
  4979  001418  0E00               	movlw	0
  4980  00141A  6F87               	movwf	(___fladd@b+2)& (0+255),b
  4981  00141C  0E00               	movlw	0
  4982  00141E  6F88               	movwf	(___fladd@b+3)& (0+255),b
  4983  001420                     l5983:
  4984                           
  4985                           ; BSR set to: 0
  4986  001420  0100               	movlb	0	; () banked
  4987  001422  8F87               	bsf	(___fladd@b+2)& (0+255),7,b
  4988                           
  4989                           ; BSR set to: 0
  4990  001424  0E00               	movlw	0
  4991  001426  0100               	movlb	0	; () banked
  4992  001428  D008               	goto	L5
  4993  00142A                     l5987:
  4994                           
  4995                           ; BSR set to: 0
  4996  00142A  0E00               	movlw	0
  4997  00142C  0100               	movlb	0	; () banked
  4998  00142E  6F85               	movwf	___fladd@b& (0+255),b
  4999  001430  0E00               	movlw	0
  5000  001432  6F86               	movwf	(___fladd@b+1)& (0+255),b
  5001  001434  0E00               	movlw	0
  5002  001436  6F87               	movwf	(___fladd@b+2)& (0+255),b
  5003  001438  0E00               	movlw	0
  5004  00143A                     L5:
  5005  00143A  6F88               	movwf	(___fladd@b+3)& (0+255),b
  5006                           
  5007                           ; BSR set to: 0
  5008                           
  5009                           ; BSR set to: 0
  5010  00143C  0100               	movlb	0	; () banked
  5011  00143E  518C               	movf	(___fladd@a+3)& (0+255),w,b
  5012  001440  0B80               	andlw	128
  5013  001442  0100               	movlb	0	; () banked
  5014  001444  6F96               	movwf	___fladd@aexp& (0+255),b
  5015                           
  5016                           ; BSR set to: 0
  5017  001446  0100               	movlb	0	; () banked
  5018  001448  5195               	movf	___fladd@signs& (0+255),w,b
  5019  00144A  0100               	movlb	0	; () banked
  5020  00144C  1996               	xorwf	___fladd@aexp& (0+255),w,b
  5021  00144E  B4D8               	btfsc	status,2,c
  5022  001450  D002               	goto	l5995
  5023                           
  5024                           ; BSR set to: 0
  5025  001452  0100               	movlb	0	; () banked
  5026  001454  8D95               	bsf	___fladd@signs& (0+255),6,b
  5027  001456                     l5995:
  5028                           
  5029                           ; BSR set to: 0
  5030  001456  0100               	movlb	0	; () banked
  5031  001458  518C               	movf	(___fladd@a+3)& (0+255),w,b
  5032  00145A  258C               	addwf	(___fladd@a+3)& (0+255),w,b
  5033  00145C  0100               	movlb	0	; () banked
  5034  00145E  6F96               	movwf	___fladd@aexp& (0+255),b
  5035                           
  5036                           ; BSR set to: 0
  5037  001460  0100               	movlb	0	; () banked
  5038  001462  AF8B               	btfss	(___fladd@a+2)& (0+255),7,b
  5039  001464  D002               	goto	l6001
  5040                           
  5041                           ; BSR set to: 0
  5042  001466  0100               	movlb	0	; () banked
  5043  001468  8196               	bsf	___fladd@aexp& (0+255),0,b
  5044  00146A                     l6001:
  5045                           
  5046                           ; BSR set to: 0
  5047  00146A  0100               	movlb	0	; () banked
  5048  00146C  5196               	movf	___fladd@aexp& (0+255),w,b
  5049  00146E  0100               	movlb	0	; () banked
  5050  001470  B4D8               	btfsc	status,2,c
  5051  001472  D012               	goto	l6011
  5052                           
  5053                           ; BSR set to: 0
  5054  001474  0100               	movlb	0	; () banked
  5055  001476  2996               	incf	___fladd@aexp& (0+255),w,b
  5056  001478  A4D8               	btfss	status,2,c
  5057  00147A  D009               	goto	l6007
  5058                           
  5059                           ; BSR set to: 0
  5060  00147C  0E00               	movlw	0
  5061  00147E  0100               	movlb	0	; () banked
  5062  001480  6F89               	movwf	___fladd@a& (0+255),b
  5063  001482  0E00               	movlw	0
  5064  001484  6F8A               	movwf	(___fladd@a+1)& (0+255),b
  5065  001486  0E00               	movlw	0
  5066  001488  6F8B               	movwf	(___fladd@a+2)& (0+255),b
  5067  00148A  0E00               	movlw	0
  5068  00148C  6F8C               	movwf	(___fladd@a+3)& (0+255),b
  5069  00148E                     l6007:
  5070                           
  5071                           ; BSR set to: 0
  5072  00148E  0100               	movlb	0	; () banked
  5073  001490  8F8B               	bsf	(___fladd@a+2)& (0+255),7,b
  5074                           
  5075                           ; BSR set to: 0
  5076  001492  0E00               	movlw	0
  5077  001494  0100               	movlb	0	; () banked
  5078  001496  D008               	goto	L6
  5079  001498                     l6011:
  5080                           
  5081                           ; BSR set to: 0
  5082  001498  0E00               	movlw	0
  5083  00149A  0100               	movlb	0	; () banked
  5084  00149C  6F89               	movwf	___fladd@a& (0+255),b
  5085  00149E  0E00               	movlw	0
  5086  0014A0  6F8A               	movwf	(___fladd@a+1)& (0+255),b
  5087  0014A2  0E00               	movlw	0
  5088  0014A4  6F8B               	movwf	(___fladd@a+2)& (0+255),b
  5089  0014A6  0E00               	movlw	0
  5090  0014A8                     L6:
  5091  0014A8  6F8C               	movwf	(___fladd@a+3)& (0+255),b
  5092                           
  5093                           ; BSR set to: 0
  5094                           
  5095                           ; BSR set to: 0
  5096  0014AA  0100               	movlb	0	; () banked
  5097  0014AC  5197               	movf	___fladd@bexp& (0+255),w,b
  5098  0014AE  0100               	movlb	0	; () banked
  5099  0014B0  5D96               	subwf	___fladd@aexp& (0+255),w,b
  5100  0014B2  B0D8               	btfsc	status,0,c
  5101  0014B4  D024               	goto	l6049
  5102                           
  5103                           ; BSR set to: 0
  5104  0014B6  0100               	movlb	0	; () banked
  5105  0014B8  AD95               	btfss	___fladd@signs& (0+255),6,b
  5106  0014BA  D003               	goto	l6019
  5107                           
  5108                           ; BSR set to: 0
  5109  0014BC  0E80               	movlw	128
  5110  0014BE  0100               	movlb	0	; () banked
  5111  0014C0  1B95               	xorwf	___fladd@signs& (0+255),f,b
  5112  0014C2                     l6019:
  5113                           
  5114                           ; BSR set to: 0
  5115  0014C2  C097  F098         	movff	___fladd@bexp,___fladd@grs
  5116                           
  5117                           ; BSR set to: 0
  5118  0014C6  C096  F097         	movff	___fladd@aexp,___fladd@bexp
  5119                           
  5120                           ; BSR set to: 0
  5121  0014CA  C098  F096         	movff	___fladd@grs,___fladd@aexp
  5122                           
  5123                           ; BSR set to: 0
  5124  0014CE  C085  F098         	movff	___fladd@b,___fladd@grs
  5125                           
  5126                           ; BSR set to: 0
  5127  0014D2  C089  F085         	movff	___fladd@a,___fladd@b
  5128                           
  5129                           ; BSR set to: 0
  5130  0014D6  C098  F089         	movff	___fladd@grs,___fladd@a
  5131                           
  5132                           ; BSR set to: 0
  5133  0014DA  C086  F098         	movff	___fladd@b+1,___fladd@grs
  5134                           
  5135                           ; BSR set to: 0
  5136  0014DE  C08A  F086         	movff	___fladd@a+1,___fladd@b+1
  5137                           
  5138                           ; BSR set to: 0
  5139  0014E2  C098  F08A         	movff	___fladd@grs,___fladd@a+1
  5140                           
  5141                           ; BSR set to: 0
  5142  0014E6  C087  F098         	movff	___fladd@b+2,___fladd@grs
  5143                           
  5144                           ; BSR set to: 0
  5145  0014EA  C08B  F087         	movff	___fladd@a+2,___fladd@b+2
  5146                           
  5147                           ; BSR set to: 0
  5148  0014EE  C098  F08B         	movff	___fladd@grs,___fladd@a+2
  5149                           
  5150                           ; BSR set to: 0
  5151  0014F2  C088  F098         	movff	___fladd@b+3,___fladd@grs
  5152                           
  5153                           ; BSR set to: 0
  5154  0014F6  C08C  F088         	movff	___fladd@a+3,___fladd@b+3
  5155                           
  5156                           ; BSR set to: 0
  5157  0014FA  C098  F08C         	movff	___fladd@grs,___fladd@a+3
  5158  0014FE                     l6049:
  5159                           
  5160                           ; BSR set to: 0
  5161  0014FE  0E00               	movlw	0
  5162  001500  0100               	movlb	0	; () banked
  5163  001502  6F98               	movwf	___fladd@grs& (0+255),b
  5164                           
  5165                           ; BSR set to: 0
  5166  001504  0100               	movlb	0	; () banked
  5167  001506  5197               	movf	___fladd@bexp& (0+255),w,b
  5168  001508  0100               	movlb	0	; () banked
  5169  00150A  6F8D               	movwf	??___fladd& (0+255),b
  5170  00150C  6B8E               	clrf	(??___fladd+1)& (0+255),b
  5171  00150E  0100               	movlb	0	; () banked
  5172  001510  1F8D               	comf	??___fladd& (0+255),f,b
  5173  001512  1F8E               	comf	(??___fladd+1)& (0+255),f,b
  5174  001514  4B8D               	infsnz	??___fladd& (0+255),f,b
  5175  001516  2B8E               	incf	(??___fladd+1)& (0+255),f,b
  5176  001518  0100               	movlb	0	; () banked
  5177  00151A  5196               	movf	___fladd@aexp& (0+255),w,b
  5178  00151C  0100               	movlb	0	; () banked
  5179  00151E  6F8F               	movwf	(??___fladd+2)& (0+255),b
  5180  001520  6B90               	clrf	(??___fladd+3)& (0+255),b
  5181  001522  0100               	movlb	0	; () banked
  5182  001524  518D               	movf	??___fladd& (0+255),w,b
  5183  001526  0100               	movlb	0	; () banked
  5184  001528  278F               	addwf	(??___fladd+2)& (0+255),f,b
  5185  00152A  0100               	movlb	0	; () banked
  5186  00152C  518E               	movf	(??___fladd+1)& (0+255),w,b
  5187  00152E  0100               	movlb	0	; () banked
  5188  001530  2390               	addwfc	(??___fladd+3)& (0+255),f,b
  5189  001532  0100               	movlb	0	; () banked
  5190  001534  BF90               	btfsc	(??___fladd+3)& (0+255),7,b
  5191  001536  D03D               	goto	l1228
  5192  001538  0100               	movlb	0	; () banked
  5193  00153A  5190               	movf	(??___fladd+3)& (0+255),w,b
  5194  00153C  E105               	bnz	u6420
  5195  00153E  0E1A               	movlw	26
  5196  001540  0100               	movlb	0	; () banked
  5197  001542  5D8F               	subwf	(??___fladd+2)& (0+255),w,b
  5198  001544  A0D8               	btfss	status,0,c
  5199  001546  D035               	goto	l1228
  5200  001548                     u6420:
  5201                           
  5202                           ; BSR set to: 0
  5203  001548  0100               	movlb	0	; () banked
  5204  00154A  5185               	movf	___fladd@b& (0+255),w,b
  5205  00154C  0100               	movlb	0	; () banked
  5206  00154E  1186               	iorwf	(___fladd@b+1)& (0+255),w,b
  5207  001550  0100               	movlb	0	; () banked
  5208  001552  1187               	iorwf	(___fladd@b+2)& (0+255),w,b
  5209  001554  0100               	movlb	0	; () banked
  5210  001556  1188               	iorwf	(___fladd@b+3)& (0+255),w,b
  5211  001558  B4D8               	btfsc	status,2,c
  5212  00155A  D002               	goto	u6430
  5213  00155C  0E01               	movlw	1
  5214  00155E  D001               	goto	u6440
  5215  001560                     u6430:
  5216  001560  0E00               	movlw	0
  5217  001562                     u6440:
  5218  001562  0100               	movlb	0	; () banked
  5219  001564  6F98               	movwf	___fladd@grs& (0+255),b
  5220                           
  5221                           ; BSR set to: 0
  5222  001566  0E00               	movlw	0
  5223  001568  0100               	movlb	0	; () banked
  5224  00156A  6F85               	movwf	___fladd@b& (0+255),b
  5225  00156C  0E00               	movlw	0
  5226  00156E  6F86               	movwf	(___fladd@b+1)& (0+255),b
  5227  001570  0E00               	movlw	0
  5228  001572  6F87               	movwf	(___fladd@b+2)& (0+255),b
  5229  001574  0E00               	movlw	0
  5230  001576  6F88               	movwf	(___fladd@b+3)& (0+255),b
  5231                           
  5232                           ; BSR set to: 0
  5233  001578  C096  F097         	movff	___fladd@aexp,___fladd@bexp
  5234  00157C  D020               	goto	l1227
  5235  00157E                     l1229:
  5236                           
  5237                           ; BSR set to: 0
  5238  00157E  0100               	movlb	0	; () banked
  5239  001580  A198               	btfss	___fladd@grs& (0+255),0,b
  5240  001582  D007               	goto	l6061
  5241                           
  5242                           ; BSR set to: 0
  5243  001584  0100               	movlb	0	; () banked
  5244  001586  90D8               	bcf	status,0,c
  5245  001588  3198               	rrcf	___fladd@grs& (0+255),w,b
  5246  00158A  0901               	iorlw	1
  5247  00158C  0100               	movlb	0	; () banked
  5248  00158E  6F98               	movwf	___fladd@grs& (0+255),b
  5249  001590  D003               	goto	l6063
  5250  001592                     l6061:
  5251                           
  5252                           ; BSR set to: 0
  5253  001592  0100               	movlb	0	; () banked
  5254  001594  90D8               	bcf	status,0,c
  5255  001596  3398               	rrcf	___fladd@grs& (0+255),f,b
  5256  001598                     l6063:
  5257                           
  5258                           ; BSR set to: 0
  5259  001598  0100               	movlb	0	; () banked
  5260  00159A  A185               	btfss	___fladd@b& (0+255),0,b
  5261  00159C  D002               	goto	l6067
  5262                           
  5263                           ; BSR set to: 0
  5264  00159E  0100               	movlb	0	; () banked
  5265  0015A0  8F98               	bsf	___fladd@grs& (0+255),7,b
  5266  0015A2                     l6067:
  5267                           
  5268                           ; BSR set to: 0
  5269  0015A2  0100               	movlb	0	; () banked
  5270  0015A4  3588               	rlcf	(___fladd@b+3)& (0+255),w,b
  5271  0015A6  3388               	rrcf	(___fladd@b+3)& (0+255),f,b
  5272  0015A8  3387               	rrcf	(___fladd@b+2)& (0+255),f,b
  5273  0015AA  3386               	rrcf	(___fladd@b+1)& (0+255),f,b
  5274  0015AC  3385               	rrcf	___fladd@b& (0+255),f,b
  5275                           
  5276                           ; BSR set to: 0
  5277  0015AE  0100               	movlb	0	; () banked
  5278  0015B0  2B97               	incf	___fladd@bexp& (0+255),f,b
  5279  0015B2                     l1228:
  5280                           
  5281                           ; BSR set to: 0
  5282  0015B2  0100               	movlb	0	; () banked
  5283  0015B4  5196               	movf	___fladd@aexp& (0+255),w,b
  5284  0015B6  0100               	movlb	0	; () banked
  5285  0015B8  5D97               	subwf	___fladd@bexp& (0+255),w,b
  5286  0015BA  A0D8               	btfss	status,0,c
  5287  0015BC  D7E0               	goto	l1229
  5288  0015BE                     l1227:
  5289                           
  5290                           ; BSR set to: 0
  5291  0015BE  0100               	movlb	0	; () banked
  5292  0015C0  BD95               	btfsc	___fladd@signs& (0+255),6,b
  5293  0015C2  D03F               	goto	l6095
  5294                           
  5295                           ; BSR set to: 0
  5296  0015C4  0100               	movlb	0	; () banked
  5297  0015C6  5197               	movf	___fladd@bexp& (0+255),w,b
  5298  0015C8  0100               	movlb	0	; () banked
  5299  0015CA  A4D8               	btfss	status,2,c
  5300  0015CC  D00A               	goto	l6077
  5301                           
  5302                           ; BSR set to: 0
  5303  0015CE  0E00               	movlw	0
  5304  0015D0  0100               	movlb	0	; () banked
  5305  0015D2  6F85               	movwf	?___fladd& (0+255),b
  5306  0015D4  0E00               	movlw	0
  5307  0015D6  6F86               	movwf	(?___fladd+1)& (0+255),b
  5308  0015D8  0E00               	movlw	0
  5309  0015DA  6F87               	movwf	(?___fladd+2)& (0+255),b
  5310  0015DC  0E00               	movlw	0
  5311  0015DE  6F88               	movwf	(?___fladd+3)& (0+255),b
  5312                           
  5313                           ; BSR set to: 0
  5314  0015E0  0012               	return	
  5315  0015E2                     l6077:
  5316                           
  5317                           ; BSR set to: 0
  5318  0015E2  0100               	movlb	0	; () banked
  5319  0015E4  5189               	movf	___fladd@a& (0+255),w,b
  5320  0015E6  0100               	movlb	0	; () banked
  5321  0015E8  2785               	addwf	___fladd@b& (0+255),f,b
  5322  0015EA  0100               	movlb	0	; () banked
  5323  0015EC  518A               	movf	(___fladd@a+1)& (0+255),w,b
  5324  0015EE  0100               	movlb	0	; () banked
  5325  0015F0  2386               	addwfc	(___fladd@b+1)& (0+255),f,b
  5326  0015F2  0100               	movlb	0	; () banked
  5327  0015F4  518B               	movf	(___fladd@a+2)& (0+255),w,b
  5328  0015F6  0100               	movlb	0	; () banked
  5329  0015F8  2387               	addwfc	(___fladd@b+2)& (0+255),f,b
  5330  0015FA  0100               	movlb	0	; () banked
  5331  0015FC  518C               	movf	(___fladd@a+3)& (0+255),w,b
  5332  0015FE  0100               	movlb	0	; () banked
  5333  001600  2388               	addwfc	(___fladd@b+3)& (0+255),f,b
  5334                           
  5335                           ; BSR set to: 0
  5336  001602  0100               	movlb	0	; () banked
  5337  001604  A188               	btfss	(___fladd@b+3)& (0+255),0,b
  5338  001606  D0CC               	goto	l6131
  5339                           
  5340                           ; BSR set to: 0
  5341  001608  0100               	movlb	0	; () banked
  5342  00160A  A198               	btfss	___fladd@grs& (0+255),0,b
  5343  00160C  D009               	goto	l6085
  5344                           
  5345                           ; BSR set to: 0
  5346  00160E  0100               	movlb	0	; () banked
  5347  001610  90D8               	bcf	status,0,c
  5348  001612  3398               	rrcf	___fladd@grs& (0+255),f,b
  5349  001614  0100               	movlb	0	; () banked
  5350  001616  5198               	movf	___fladd@grs& (0+255),w,b
  5351  001618  0901               	iorlw	1
  5352  00161A  0100               	movlb	0	; () banked
  5353  00161C  6F98               	movwf	___fladd@grs& (0+255),b
  5354  00161E  D003               	goto	l6087
  5355  001620                     l6085:
  5356                           
  5357                           ; BSR set to: 0
  5358  001620  0100               	movlb	0	; () banked
  5359  001622  90D8               	bcf	status,0,c
  5360  001624  3398               	rrcf	___fladd@grs& (0+255),f,b
  5361  001626                     l6087:
  5362                           
  5363                           ; BSR set to: 0
  5364  001626  0100               	movlb	0	; () banked
  5365  001628  A185               	btfss	___fladd@b& (0+255),0,b
  5366  00162A  D002               	goto	l6091
  5367                           
  5368                           ; BSR set to: 0
  5369  00162C  0100               	movlb	0	; () banked
  5370  00162E  8F98               	bsf	___fladd@grs& (0+255),7,b
  5371  001630                     l6091:
  5372                           
  5373                           ; BSR set to: 0
  5374  001630  0100               	movlb	0	; () banked
  5375  001632  3588               	rlcf	(___fladd@b+3)& (0+255),w,b
  5376  001634  3388               	rrcf	(___fladd@b+3)& (0+255),f,b
  5377  001636  3387               	rrcf	(___fladd@b+2)& (0+255),f,b
  5378  001638  3386               	rrcf	(___fladd@b+1)& (0+255),f,b
  5379  00163A  3385               	rrcf	___fladd@b& (0+255),f,b
  5380                           
  5381                           ; BSR set to: 0
  5382  00163C  0100               	movlb	0	; () banked
  5383  00163E  2B97               	incf	___fladd@bexp& (0+255),f,b
  5384                           
  5385                           ; BSR set to: 0
  5386  001640  D0AF               	goto	l6131
  5387  001642                     l6095:
  5388                           
  5389                           ; BSR set to: 0
  5390  001642  0100               	movlb	0	; () banked
  5391  001644  5189               	movf	___fladd@a& (0+255),w,b
  5392  001646  0100               	movlb	0	; () banked
  5393  001648  5D85               	subwf	___fladd@b& (0+255),w,b
  5394  00164A  0100               	movlb	0	; () banked
  5395  00164C  518A               	movf	(___fladd@a+1)& (0+255),w,b
  5396  00164E  0100               	movlb	0	; () banked
  5397  001650  5986               	subwfb	(___fladd@b+1)& (0+255),w,b
  5398  001652  0100               	movlb	0	; () banked
  5399  001654  518B               	movf	(___fladd@a+2)& (0+255),w,b
  5400  001656  0100               	movlb	0	; () banked
  5401  001658  5987               	subwfb	(___fladd@b+2)& (0+255),w,b
  5402  00165A  0100               	movlb	0	; () banked
  5403  00165C  5188               	movf	(___fladd@b+3)& (0+255),w,b
  5404  00165E  0A80               	xorlw	128
  5405  001660  0100               	movlb	0	; () banked
  5406  001662  6F8D               	movwf	??___fladd& (0+255),b
  5407  001664  0100               	movlb	0	; () banked
  5408  001666  518C               	movf	(___fladd@a+3)& (0+255),w,b
  5409  001668  0A80               	xorlw	128
  5410  00166A  0100               	movlb	0	; () banked
  5411  00166C  598D               	subwfb	??___fladd& (0+255),w,b
  5412  00166E  B0D8               	btfsc	status,0,c
  5413  001670  D050               	goto	l6105
  5414                           
  5415                           ; BSR set to: 0
  5416  001672  C085  F08D         	movff	___fladd@b,??___fladd
  5417  001676  C086  F08E         	movff	___fladd@b+1,??___fladd+1
  5418  00167A  C087  F08F         	movff	___fladd@b+2,??___fladd+2
  5419  00167E  C088  F090         	movff	___fladd@b+3,??___fladd+3
  5420  001682  0100               	movlb	0	; () banked
  5421  001684  1F8D               	comf	??___fladd& (0+255),f,b
  5422  001686  1F8E               	comf	(??___fladd+1)& (0+255),f,b
  5423  001688  1F8F               	comf	(??___fladd+2)& (0+255),f,b
  5424  00168A  1F90               	comf	(??___fladd+3)& (0+255),f,b
  5425  00168C  2B8D               	incf	??___fladd& (0+255),f,b
  5426  00168E  0E00               	movlw	0
  5427  001690  238E               	addwfc	(??___fladd+1)& (0+255),f,b
  5428  001692  238F               	addwfc	(??___fladd+2)& (0+255),f,b
  5429  001694  2390               	addwfc	(??___fladd+3)& (0+255),f,b
  5430  001696  0100               	movlb	0	; () banked
  5431  001698  5189               	movf	___fladd@a& (0+255),w,b
  5432  00169A  0100               	movlb	0	; () banked
  5433  00169C  258D               	addwf	??___fladd& (0+255),w,b
  5434  00169E  0100               	movlb	0	; () banked
  5435  0016A0  6F91               	movwf	(??___fladd+4)& (0+255),b
  5436  0016A2  0100               	movlb	0	; () banked
  5437  0016A4  518A               	movf	(___fladd@a+1)& (0+255),w,b
  5438  0016A6  0100               	movlb	0	; () banked
  5439  0016A8  218E               	addwfc	(??___fladd+1)& (0+255),w,b
  5440  0016AA  0100               	movlb	0	; () banked
  5441  0016AC  6F92               	movwf	(??___fladd+5)& (0+255),b
  5442  0016AE  0100               	movlb	0	; () banked
  5443  0016B0  518B               	movf	(___fladd@a+2)& (0+255),w,b
  5444  0016B2  0100               	movlb	0	; () banked
  5445  0016B4  218F               	addwfc	(??___fladd+2)& (0+255),w,b
  5446  0016B6  0100               	movlb	0	; () banked
  5447  0016B8  6F93               	movwf	(??___fladd+6)& (0+255),b
  5448  0016BA  0100               	movlb	0	; () banked
  5449  0016BC  518C               	movf	(___fladd@a+3)& (0+255),w,b
  5450  0016BE  0100               	movlb	0	; () banked
  5451  0016C0  2190               	addwfc	(??___fladd+3)& (0+255),w,b
  5452  0016C2  0100               	movlb	0	; () banked
  5453  0016C4  6F94               	movwf	(??___fladd+7)& (0+255),b
  5454  0016C6  0EFF               	movlw	255
  5455  0016C8  0100               	movlb	0	; () banked
  5456  0016CA  2591               	addwf	(??___fladd+4)& (0+255),w,b
  5457  0016CC  0100               	movlb	0	; () banked
  5458  0016CE  6F85               	movwf	___fladd@b& (0+255),b
  5459  0016D0  0EFF               	movlw	255
  5460  0016D2  0100               	movlb	0	; () banked
  5461  0016D4  2192               	addwfc	(??___fladd+5)& (0+255),w,b
  5462  0016D6  0100               	movlb	0	; () banked
  5463  0016D8  6F86               	movwf	(___fladd@b+1)& (0+255),b
  5464  0016DA  0EFF               	movlw	255
  5465  0016DC  0100               	movlb	0	; () banked
  5466  0016DE  2193               	addwfc	(??___fladd+6)& (0+255),w,b
  5467  0016E0  0100               	movlb	0	; () banked
  5468  0016E2  6F87               	movwf	(___fladd@b+2)& (0+255),b
  5469  0016E4  0EFF               	movlw	255
  5470  0016E6  0100               	movlb	0	; () banked
  5471  0016E8  2194               	addwfc	(??___fladd+7)& (0+255),w,b
  5472  0016EA  0100               	movlb	0	; () banked
  5473  0016EC  6F88               	movwf	(___fladd@b+3)& (0+255),b
  5474  0016EE  0E80               	movlw	128
  5475  0016F0  0100               	movlb	0	; () banked
  5476  0016F2  1B95               	xorwf	___fladd@signs& (0+255),f,b
  5477                           
  5478                           ; BSR set to: 0
  5479  0016F4  0100               	movlb	0	; () banked
  5480  0016F6  6D98               	negf	___fladd@grs& (0+255),b
  5481                           
  5482                           ; BSR set to: 0
  5483  0016F8  0100               	movlb	0	; () banked
  5484  0016FA  5198               	movf	___fladd@grs& (0+255),w,b
  5485  0016FC  0100               	movlb	0	; () banked
  5486  0016FE  A4D8               	btfss	status,2,c
  5487  001700  D018               	goto	l1244
  5488                           
  5489                           ; BSR set to: 0
  5490  001702  0E01               	movlw	1
  5491  001704  0100               	movlb	0	; () banked
  5492  001706  2785               	addwf	___fladd@b& (0+255),f,b
  5493  001708  0E00               	movlw	0
  5494  00170A  2386               	addwfc	(___fladd@b+1)& (0+255),f,b
  5495  00170C  2387               	addwfc	(___fladd@b+2)& (0+255),f,b
  5496  00170E  2388               	addwfc	(___fladd@b+3)& (0+255),f,b
  5497                           
  5498                           ; BSR set to: 0
  5499  001710  D010               	goto	l1244
  5500  001712                     l6105:
  5501                           
  5502                           ; BSR set to: 0
  5503  001712  0100               	movlb	0	; () banked
  5504  001714  5189               	movf	___fladd@a& (0+255),w,b
  5505  001716  0100               	movlb	0	; () banked
  5506  001718  5F85               	subwf	___fladd@b& (0+255),f,b
  5507  00171A  0100               	movlb	0	; () banked
  5508  00171C  518A               	movf	(___fladd@a+1)& (0+255),w,b
  5509  00171E  0100               	movlb	0	; () banked
  5510  001720  5B86               	subwfb	(___fladd@b+1)& (0+255),f,b
  5511  001722  0100               	movlb	0	; () banked
  5512  001724  518B               	movf	(___fladd@a+2)& (0+255),w,b
  5513  001726  0100               	movlb	0	; () banked
  5514  001728  5B87               	subwfb	(___fladd@b+2)& (0+255),f,b
  5515  00172A  0100               	movlb	0	; () banked
  5516  00172C  518C               	movf	(___fladd@a+3)& (0+255),w,b
  5517  00172E  0100               	movlb	0	; () banked
  5518  001730  5B88               	subwfb	(___fladd@b+3)& (0+255),f,b
  5519  001732                     l1244:
  5520                           
  5521                           ; BSR set to: 0
  5522  001732  0100               	movlb	0	; () banked
  5523  001734  5185               	movf	___fladd@b& (0+255),w,b
  5524  001736  0100               	movlb	0	; () banked
  5525  001738  1186               	iorwf	(___fladd@b+1)& (0+255),w,b
  5526  00173A  0100               	movlb	0	; () banked
  5527  00173C  1187               	iorwf	(___fladd@b+2)& (0+255),w,b
  5528  00173E  0100               	movlb	0	; () banked
  5529  001740  1188               	iorwf	(___fladd@b+3)& (0+255),w,b
  5530  001742  A4D8               	btfss	status,2,c
  5531  001744  D02A               	goto	l6129
  5532                           
  5533                           ; BSR set to: 0
  5534  001746  0100               	movlb	0	; () banked
  5535  001748  5198               	movf	___fladd@grs& (0+255),w,b
  5536  00174A  0100               	movlb	0	; () banked
  5537  00174C  A4D8               	btfss	status,2,c
  5538  00174E  D025               	goto	l6129
  5539                           
  5540                           ; BSR set to: 0
  5541  001750  0E00               	movlw	0
  5542  001752  0100               	movlb	0	; () banked
  5543  001754  6F85               	movwf	?___fladd& (0+255),b
  5544  001756  0E00               	movlw	0
  5545  001758  6F86               	movwf	(?___fladd+1)& (0+255),b
  5546  00175A  0E00               	movlw	0
  5547  00175C  6F87               	movwf	(?___fladd+2)& (0+255),b
  5548  00175E  0E00               	movlw	0
  5549  001760  6F88               	movwf	(?___fladd+3)& (0+255),b
  5550                           
  5551                           ; BSR set to: 0
  5552  001762  0012               	return	
  5553  001764                     l6113:
  5554                           
  5555                           ; BSR set to: 0
  5556  001764  0100               	movlb	0	; () banked
  5557  001766  90D8               	bcf	status,0,c
  5558  001768  3785               	rlcf	___fladd@b& (0+255),f,b
  5559  00176A  3786               	rlcf	(___fladd@b+1)& (0+255),f,b
  5560  00176C  3787               	rlcf	(___fladd@b+2)& (0+255),f,b
  5561  00176E  3788               	rlcf	(___fladd@b+3)& (0+255),f,b
  5562                           
  5563                           ; BSR set to: 0
  5564  001770  0100               	movlb	0	; () banked
  5565  001772  AF98               	btfss	___fladd@grs& (0+255),7,b
  5566  001774  D002               	goto	l6119
  5567                           
  5568                           ; BSR set to: 0
  5569  001776  0100               	movlb	0	; () banked
  5570  001778  8185               	bsf	___fladd@b& (0+255),0,b
  5571  00177A                     l6119:
  5572                           
  5573                           ; BSR set to: 0
  5574  00177A  0100               	movlb	0	; () banked
  5575  00177C  A198               	btfss	___fladd@grs& (0+255),0,b
  5576  00177E  D003               	goto	l6123
  5577                           
  5578                           ; BSR set to: 0
  5579  001780  80D8               	bsf	status,0,c
  5580  001782  0100               	movlb	0	; () banked
  5581  001784  D002               	goto	L7
  5582  001786                     l6123:
  5583                           
  5584                           ; BSR set to: 0
  5585  001786  0100               	movlb	0	; () banked
  5586  001788  90D8               	bcf	status,0,c
  5587  00178A                     L7:
  5588  00178A  3798               	rlcf	___fladd@grs& (0+255),f,b
  5589                           
  5590                           ; BSR set to: 0
  5591                           
  5592                           ; BSR set to: 0
  5593  00178C  0100               	movlb	0	; () banked
  5594  00178E  5197               	movf	___fladd@bexp& (0+255),w,b
  5595  001790  0100               	movlb	0	; () banked
  5596  001792  B4D8               	btfsc	status,2,c
  5597  001794  D002               	goto	l6129
  5598                           
  5599                           ; BSR set to: 0
  5600  001796  0100               	movlb	0	; () banked
  5601  001798  0797               	decf	___fladd@bexp& (0+255),f,b
  5602  00179A                     l6129:
  5603                           
  5604                           ; BSR set to: 0
  5605  00179A  0100               	movlb	0	; () banked
  5606  00179C  AF87               	btfss	(___fladd@b+2)& (0+255),7,b
  5607  00179E  D7E2               	goto	l6113
  5608  0017A0                     l6131:
  5609                           
  5610                           ; BSR set to: 0
  5611  0017A0  0E00               	movlw	0
  5612  0017A2  0100               	movlb	0	; () banked
  5613  0017A4  6F96               	movwf	___fladd@aexp& (0+255),b
  5614                           
  5615                           ; BSR set to: 0
  5616  0017A6  0100               	movlb	0	; () banked
  5617  0017A8  AF98               	btfss	___fladd@grs& (0+255),7,b
  5618  0017AA  D00D               	goto	l1253
  5619                           
  5620                           ; BSR set to: 0
  5621  0017AC  C098  F08D         	movff	___fladd@grs,??___fladd
  5622  0017B0  0E7F               	movlw	127
  5623  0017B2  0100               	movlb	0	; () banked
  5624  0017B4  178D               	andwf	??___fladd& (0+255),f,b
  5625  0017B6  A4D8               	btfss	status,2,c
  5626  0017B8  D003               	goto	l6139
  5627                           
  5628                           ; BSR set to: 0
  5629                           
  5630                           ; BSR set to: 0
  5631  0017BA  0100               	movlb	0	; () banked
  5632  0017BC  A185               	btfss	___fladd@b& (0+255),0,b
  5633  0017BE  D003               	goto	l1253
  5634  0017C0                     l6139:
  5635                           
  5636                           ; BSR set to: 0
  5637  0017C0  0E01               	movlw	1
  5638  0017C2  0100               	movlb	0	; () banked
  5639  0017C4  6F96               	movwf	___fladd@aexp& (0+255),b
  5640  0017C6                     l1253:
  5641                           
  5642                           ; BSR set to: 0
  5643  0017C6  0100               	movlb	0	; () banked
  5644  0017C8  5196               	movf	___fladd@aexp& (0+255),w,b
  5645  0017CA  0100               	movlb	0	; () banked
  5646  0017CC  B4D8               	btfsc	status,2,c
  5647  0017CE  D026               	goto	l6149
  5648                           
  5649                           ; BSR set to: 0
  5650  0017D0  0E01               	movlw	1
  5651  0017D2  0100               	movlb	0	; () banked
  5652  0017D4  2785               	addwf	___fladd@b& (0+255),f,b
  5653  0017D6  0E00               	movlw	0
  5654  0017D8  2386               	addwfc	(___fladd@b+1)& (0+255),f,b
  5655  0017DA  2387               	addwfc	(___fladd@b+2)& (0+255),f,b
  5656  0017DC  2388               	addwfc	(___fladd@b+3)& (0+255),f,b
  5657                           
  5658                           ; BSR set to: 0
  5659  0017DE  0100               	movlb	0	; () banked
  5660  0017E0  A188               	btfss	(___fladd@b+3)& (0+255),0,b
  5661  0017E2  D01C               	goto	l6149
  5662                           
  5663                           ; BSR set to: 0
  5664  0017E4  C085  F08D         	movff	___fladd@b,??___fladd
  5665  0017E8  C086  F08E         	movff	___fladd@b+1,??___fladd+1
  5666  0017EC  C087  F08F         	movff	___fladd@b+2,??___fladd+2
  5667  0017F0  C088  F090         	movff	___fladd@b+3,??___fladd+3
  5668  0017F4  0100               	movlb	0	; () banked
  5669  0017F6  3590               	rlcf	(??___fladd+3)& (0+255),w,b
  5670  0017F8  3390               	rrcf	(??___fladd+3)& (0+255),f,b
  5671  0017FA  338F               	rrcf	(??___fladd+2)& (0+255),f,b
  5672  0017FC  338E               	rrcf	(??___fladd+1)& (0+255),f,b
  5673  0017FE  338D               	rrcf	??___fladd& (0+255),f,b
  5674  001800  C08D  F085         	movff	??___fladd,___fladd@b
  5675  001804  C08E  F086         	movff	??___fladd+1,___fladd@b+1
  5676  001808  C08F  F087         	movff	??___fladd+2,___fladd@b+2
  5677  00180C  C090  F088         	movff	??___fladd+3,___fladd@b+3
  5678  001810  0100               	movlb	0	; () banked
  5679  001812  2997               	incf	___fladd@bexp& (0+255),w,b
  5680  001814  B4D8               	btfsc	status,2,c
  5681  001816  D002               	goto	l6149
  5682                           
  5683                           ; BSR set to: 0
  5684  001818  0100               	movlb	0	; () banked
  5685  00181A  2B97               	incf	___fladd@bexp& (0+255),f,b
  5686  00181C                     l6149:
  5687                           
  5688                           ; BSR set to: 0
  5689  00181C  0100               	movlb	0	; () banked
  5690  00181E  2997               	incf	___fladd@bexp& (0+255),w,b
  5691  001820  B4D8               	btfsc	status,2,c
  5692  001822  D005               	goto	l6153
  5693                           
  5694                           ; BSR set to: 0
  5695  001824  0100               	movlb	0	; () banked
  5696  001826  5197               	movf	___fladd@bexp& (0+255),w,b
  5697  001828  0100               	movlb	0	; () banked
  5698  00182A  A4D8               	btfss	status,2,c
  5699  00182C  D011               	goto	l6157
  5700  00182E                     l6153:
  5701                           
  5702                           ; BSR set to: 0
  5703  00182E  0E00               	movlw	0
  5704  001830  0100               	movlb	0	; () banked
  5705  001832  6F85               	movwf	___fladd@b& (0+255),b
  5706  001834  0E00               	movlw	0
  5707  001836  6F86               	movwf	(___fladd@b+1)& (0+255),b
  5708  001838  0E00               	movlw	0
  5709  00183A  6F87               	movwf	(___fladd@b+2)& (0+255),b
  5710  00183C  0E00               	movlw	0
  5711  00183E  6F88               	movwf	(___fladd@b+3)& (0+255),b
  5712  001840  0100               	movlb	0	; () banked
  5713  001842  5197               	movf	___fladd@bexp& (0+255),w,b
  5714  001844  0100               	movlb	0	; () banked
  5715  001846  A4D8               	btfss	status,2,c
  5716  001848  D003               	goto	l6157
  5717                           
  5718                           ; BSR set to: 0
  5719  00184A  0E00               	movlw	0
  5720  00184C  0100               	movlb	0	; () banked
  5721  00184E  6F95               	movwf	___fladd@signs& (0+255),b
  5722  001850                     l6157:
  5723                           
  5724                           ; BSR set to: 0
  5725  001850  0100               	movlb	0	; () banked
  5726  001852  A197               	btfss	___fladd@bexp& (0+255),0,b
  5727  001854  D003               	goto	l6161
  5728                           
  5729                           ; BSR set to: 0
  5730  001856  0100               	movlb	0	; () banked
  5731  001858  8F87               	bsf	(___fladd@b+2)& (0+255),7,b
  5732  00185A  D002               	goto	l6163
  5733  00185C                     l6161:
  5734                           
  5735                           ; BSR set to: 0
  5736  00185C  0100               	movlb	0	; () banked
  5737  00185E  9F87               	bcf	(___fladd@b+2)& (0+255),7,b
  5738  001860                     l6163:
  5739                           
  5740                           ; BSR set to: 0
  5741  001860  0100               	movlb	0	; () banked
  5742  001862  90D8               	bcf	status,0,c
  5743  001864  3197               	rrcf	___fladd@bexp& (0+255),w,b
  5744  001866  0100               	movlb	0	; () banked
  5745  001868  6F88               	movwf	(___fladd@b+3)& (0+255),b
  5746                           
  5747                           ; BSR set to: 0
  5748  00186A  0100               	movlb	0	; () banked
  5749  00186C  AF95               	btfss	___fladd@signs& (0+255),7,b
  5750  00186E  D002               	goto	l6169
  5751                           
  5752                           ; BSR set to: 0
  5753  001870  0100               	movlb	0	; () banked
  5754  001872  8F88               	bsf	(___fladd@b+3)& (0+255),7,b
  5755  001874                     l6169:
  5756                           
  5757                           ; BSR set to: 0
  5758  001874  C085  F085         	movff	___fladd@b,?___fladd
  5759  001878  C086  F086         	movff	___fladd@b+1,?___fladd+1
  5760  00187C  C087  F087         	movff	___fladd@b+2,?___fladd+2
  5761  001880  C088  F088         	movff	___fladd@b+3,?___fladd+3
  5762  001884  0012               	return	
  5763  001886                     __end_of___fladd:
  5764                           	opt stack 0
  5765                           stkptr	equ	0xFFC
  5766                           tblptru	equ	0xFF8
  5767                           tblptrh	equ	0xFF7
  5768                           tblptrl	equ	0xFF6
  5769                           tablat	equ	0xFF5
  5770                           prodh	equ	0xFF4
  5771                           prodl	equ	0xFF3
  5772                           intcon	equ	0xFF2
  5773                           intcon2	equ	0xFF1
  5774                           postinc0	equ	0xFEE
  5775                           wreg	equ	0xFE8
  5776                           postdec1	equ	0xFE5
  5777                           fsr1l	equ	0xFE1
  5778                           status	equ	0xFD8
  5779                           
  5780 ;; *************** function _Configure_HW *****************
  5781 ;; Defined at:
  5782 ;;		line 1016 in file "main.c"
  5783 ;; Parameters:    Size  Location     Type
  5784 ;;		None
  5785 ;; Auto vars:     Size  Location     Type
  5786 ;;		None
  5787 ;; Return value:  Size  Location     Type
  5788 ;;                  1    wreg      void 
  5789 ;; Registers used:
  5790 ;;		wreg, status,2, cstack
  5791 ;; Tracked objects:
  5792 ;;		On entry : 0/0
  5793 ;;		On exit  : 0/0
  5794 ;;		Unchanged: 0/0
  5795 ;; Data sizes:     COMRAM   BANK0   BANK1   BANK2   BANK3   BANK4   BANK5   BANK6   BANK7   BANK8   BANK9  BANK10  BANK1
      +1  BANK12  BANK13  BANK14  BANK15
  5796 ;;      Params:         0       0       0       0       0       0       0       0       0       0       0       0       
      +0       0       0       0       0
  5797 ;;      Locals:         0       0       0       0       0       0       0       0       0       0       0       0       
      +0       0       0       0       0
  5798 ;;      Temps:          0       0       0       0       0       0       0       0       0       0       0       0       
      +0       0       0       0       0
  5799 ;;      Totals:         0       0       0       0       0       0       0       0       0       0       0       0       
      +0       0       0       0       0
  5800 ;;Total ram usage:        0 bytes
  5801 ;; Hardware stack levels used:    1
  5802 ;; Hardware stack levels required when called:    8
  5803 ;; This function calls:
  5804 ;;		_Confi_Int_Ext0
  5805 ;;		_Config_Timer0
  5806 ;;		_Config_Timer1
  5807 ;;		_Config_Timer2
  5808 ;;		_Config_Timer3
  5809 ;;		_Config_Timer5
  5810 ;;		_No_Analogs
  5811 ;; This function is called by:
  5812 ;;		_main
  5813 ;; This function uses a non-reentrant model
  5814 ;;
  5815                           
  5816                           	psect	text12
  5817  003258                     __ptext12:
  5818                           	opt stack 0
  5819  003258                     _Configure_HW:
  5820                           	opt stack 22
  5821                           
  5822                           ;main.c: 1019: TRISA = 0b00100001;
  5823                           
  5824                           ; BSR set to: 0
  5825                           ;incstack = 0
  5826  003258  0E21               	movlw	33
  5827  00325A  6E92               	movwf	3986,c	;volatile
  5828                           
  5829                           ;main.c: 1020: TRISB = 0b00100011;
  5830  00325C  0E23               	movlw	35
  5831  00325E  6E93               	movwf	3987,c	;volatile
  5832                           
  5833                           ;main.c: 1021: TRISC = 0b00011000;
  5834  003260  0E18               	movlw	24
  5835  003262  6E94               	movwf	3988,c	;volatile
  5836                           
  5837                           ;main.c: 1022: TRISD = 0b00000000;
  5838  003264  0E00               	movlw	0
  5839  003266  6E95               	movwf	3989,c	;volatile
  5840                           
  5841                           ;main.c: 1023: TRISE = 0b00000100;
  5842  003268  0E04               	movlw	4
  5843  00326A  6E96               	movwf	3990,c	;volatile
  5844                           
  5845                           ;main.c: 1024: _delay((unsigned long)((50)*(40000000/4000000.0)));
  5846  00326C  0EA6               	movlw	166
  5847  00326E                     u8407:
  5848  00326E  2EE8               	decfsz	wreg,f,c
  5849  003270  D7FE               	bra	u8407
  5850  003272  D000               	nop2	
  5851                           
  5852                           ;main.c: 1028: No_Analogs();
  5853  003274  EC84  F019         	call	_No_Analogs	;wreg free
  5854                           
  5855                           ;main.c: 1029: ANSELA = 0b00000001;
  5856  003278  0E01               	movlw	1
  5857  00327A  010F               	movlb	15	; () banked
  5858  00327C  6F38               	movwf	56,b	;volatile
  5859                           
  5860                           ; BSR set to: 15
  5861                           ;main.c: 1032: ADCON0 = 0b00000001;
  5862  00327E  0E01               	movlw	1
  5863  003280  6EC2               	movwf	4034,c	;volatile
  5864                           
  5865                           ; BSR set to: 15
  5866                           ;main.c: 1033: ADCON1 = 0b00000000;
  5867  003282  0E00               	movlw	0
  5868  003284  6EC1               	movwf	4033,c	;volatile
  5869                           
  5870                           ; BSR set to: 15
  5871                           ;main.c: 1034: ADCON2 = 0b10100101;
  5872  003286  0EA5               	movlw	165
  5873  003288  6EC0               	movwf	4032,c	;volatile
  5874                           
  5875                           ; BSR set to: 15
  5876                           ;main.c: 1036: Confi_Int_Ext0();
  5877  00328A  EC38  F01A         	call	_Confi_Int_Ext0	;wreg free
  5878                           
  5879                           ;main.c: 1038: Config_Timer0();
  5880  00328E  ECBF  F019         	call	_Config_Timer0	;wreg free
  5881                           
  5882                           ;main.c: 1039: Config_Timer1();
  5883  003292  ECE8  F019         	call	_Config_Timer1	;wreg free
  5884                           
  5885                           ;main.c: 1040: Config_Timer2();
  5886  003296  ECDE  F019         	call	_Config_Timer2	;wreg free
  5887                           
  5888                           ;main.c: 1041: PR2 = 255;
  5889  00329A  68BB               	setf	4027,c	;volatile
  5890                           
  5891                           ;main.c: 1042: Config_Timer3();
  5892  00329C  ECD4  F019         	call	_Config_Timer3	;wreg free
  5893                           
  5894                           ;main.c: 1043: Config_Timer5();
  5895  0032A0  EC6F  F019         	call	_Config_Timer5	;wreg free
  5896  0032A4  0012               	return		;funcret
  5897  0032A6                     __end_of_Configure_HW:
  5898                           	opt stack 0
  5899                           stkptr	equ	0xFFC
  5900                           tblptru	equ	0xFF8
  5901                           tblptrh	equ	0xFF7
  5902                           tblptrl	equ	0xFF6
  5903                           tablat	equ	0xFF5
  5904                           prodh	equ	0xFF4
  5905                           prodl	equ	0xFF3
  5906                           intcon	equ	0xFF2
  5907                           intcon2	equ	0xFF1
  5908                           postinc0	equ	0xFEE
  5909                           wreg	equ	0xFE8
  5910                           postdec1	equ	0xFE5
  5911                           fsr1l	equ	0xFE1
  5912                           status	equ	0xFD8
  5913                           
  5914 ;; *************** function _No_Analogs *****************
  5915 ;; Defined at:
  5916 ;;		line 1007 in file "main.c"
  5917 ;; Parameters:    Size  Location     Type
  5918 ;;		None
  5919 ;; Auto vars:     Size  Location     Type
  5920 ;;		None
  5921 ;; Return value:  Size  Location     Type
  5922 ;;                  1    wreg      void 
  5923 ;; Registers used:
  5924 ;;		wreg, status,2
  5925 ;; Tracked objects:
  5926 ;;		On entry : 0/0
  5927 ;;		On exit  : 0/0
  5928 ;;		Unchanged: 0/0
  5929 ;; Data sizes:     COMRAM   BANK0   BANK1   BANK2   BANK3   BANK4   BANK5   BANK6   BANK7   BANK8   BANK9  BANK10  BANK1
      +1  BANK12  BANK13  BANK14  BANK15
  5930 ;;      Params:         0       0       0       0       0       0       0       0       0       0       0       0       
      +0       0       0       0       0
  5931 ;;      Locals:         0       0       0       0       0       0       0       0       0       0       0       0       
      +0       0       0       0       0
  5932 ;;      Temps:          0       0       0       0       0       0       0       0       0       0       0       0       
      +0       0       0       0       0
  5933 ;;      Totals:         0       0       0       0       0       0       0       0       0       0       0       0       
      +0       0       0       0       0
  5934 ;;Total ram usage:        0 bytes
  5935 ;; Hardware stack levels used:    1
  5936 ;; Hardware stack levels required when called:    7
  5937 ;; This function calls:
  5938 ;;		Nothing
  5939 ;; This function is called by:
  5940 ;;		_Configure_HW
  5941 ;; This function uses a non-reentrant model
  5942 ;;
  5943                           
  5944                           	psect	text13
  5945  003308                     __ptext13:
  5946                           	opt stack 0
  5947  003308                     _No_Analogs:
  5948                           	opt stack 22
  5949                           
  5950                           ;main.c: 1009: ANSELA = 0x00;
  5951                           
  5952                           ;incstack = 0
  5953  003308  0E00               	movlw	0
  5954  00330A  010F               	movlb	15	; () banked
  5955  00330C  6F38               	movwf	56,b	;volatile
  5956                           
  5957                           ;main.c: 1010: ANSELB = 0x00;
  5958  00330E  0E00               	movlw	0
  5959  003310  010F               	movlb	15	; () banked
  5960  003312  6F39               	movwf	57,b	;volatile
  5961                           
  5962                           ;main.c: 1011: ANSELC = 0x00;
  5963  003314  0E00               	movlw	0
  5964  003316  010F               	movlb	15	; () banked
  5965  003318  6F3A               	movwf	58,b	;volatile
  5966                           
  5967                           ;main.c: 1012: ANSELD = 0x00;
  5968  00331A  0E00               	movlw	0
  5969  00331C  010F               	movlb	15	; () banked
  5970  00331E  6F3B               	movwf	59,b	;volatile
  5971                           
  5972                           ;main.c: 1013: ANSELE = 0x00;
  5973  003320  0E00               	movlw	0
  5974  003322  010F               	movlb	15	; () banked
  5975  003324  6F3C               	movwf	60,b	;volatile
  5976                           
  5977                           ; BSR set to: 15
  5978  003326  0012               	return		;funcret
  5979  003328                     __end_of_No_Analogs:
  5980                           	opt stack 0
  5981                           stkptr	equ	0xFFC
  5982                           tblptru	equ	0xFF8
  5983                           tblptrh	equ	0xFF7
  5984                           tblptrl	equ	0xFF6
  5985                           tablat	equ	0xFF5
  5986                           prodh	equ	0xFF4
  5987                           prodl	equ	0xFF3
  5988                           intcon	equ	0xFF2
  5989                           intcon2	equ	0xFF1
  5990                           postinc0	equ	0xFEE
  5991                           wreg	equ	0xFE8
  5992                           postdec1	equ	0xFE5
  5993                           fsr1l	equ	0xFE1
  5994                           status	equ	0xFD8
  5995                           
  5996 ;; *************** function _Config_Timer5 *****************
  5997 ;; Defined at:
  5998 ;;		line 90 in file "TIMERS_XC8.c"
  5999 ;; Parameters:    Size  Location     Type
  6000 ;;		None
  6001 ;; Auto vars:     Size  Location     Type
  6002 ;;		None
  6003 ;; Return value:  Size  Location     Type
  6004 ;;                  1    wreg      void 
  6005 ;; Registers used:
  6006 ;;		wreg, status,2
  6007 ;; Tracked objects:
  6008 ;;		On entry : 0/0
  6009 ;;		On exit  : 0/0
  6010 ;;		Unchanged: 0/0
  6011 ;; Data sizes:     COMRAM   BANK0   BANK1   BANK2   BANK3   BANK4   BANK5   BANK6   BANK7   BANK8   BANK9  BANK10  BANK1
      +1  BANK12  BANK13  BANK14  BANK15
  6012 ;;      Params:         0       0       0       0       0       0       0       0       0       0       0       0       
      +0       0       0       0       0
  6013 ;;      Locals:         0       0       0       0       0       0       0       0       0       0       0       0       
      +0       0       0       0       0
  6014 ;;      Temps:          0       0       0       0       0       0       0       0       0       0       0       0       
      +0       0       0       0       0
  6015 ;;      Totals:         0       0       0       0       0       0       0       0       0       0       0       0       
      +0       0       0       0       0
  6016 ;;Total ram usage:        0 bytes
  6017 ;; Hardware stack levels used:    1
  6018 ;; Hardware stack levels required when called:    7
  6019 ;; This function calls:
  6020 ;;		Nothing
  6021 ;; This function is called by:
  6022 ;;		_Configure_HW
  6023 ;; This function uses a non-reentrant model
  6024 ;;
  6025                           
  6026                           	psect	text14
  6027  0032DE                     __ptext14:
  6028                           	opt stack 0
  6029  0032DE                     _Config_Timer5:
  6030                           	opt stack 22
  6031                           
  6032                           ;TIMERS_XC8.c: 92: TMR5IE = 0;
  6033                           
  6034                           ; BSR set to: 15
  6035                           ;incstack = 0
  6036  0032DE  927D               	bcf	3965,1,c	;volatile
  6037                           
  6038                           ;TIMERS_XC8.c: 100: T5CONbits.T5CKPS1 = 1;
  6039  0032E0  010F               	movlb	15	; () banked
  6040  0032E2  8B4E               	bsf	78,5,b	;volatile
  6041                           
  6042                           ;TIMERS_XC8.c: 101: T5CONbits.T5CKPS0 = 0;
  6043  0032E4  010F               	movlb	15	; () banked
  6044  0032E6  994E               	bcf	78,4,b	;volatile
  6045                           
  6046                           ;TIMERS_XC8.c: 103: T5CONbits.T5SOSCEN = 0;
  6047  0032E8  010F               	movlb	15	; () banked
  6048  0032EA  974E               	bcf	78,3,b	;volatile
  6049                           
  6050                           ; BSR set to: 15
  6051                           ;TIMERS_XC8.c: 104: T5CONbits.TMR5CS = 0;
  6052  0032EC  0E3F               	movlw	-193
  6053  0032EE  010F               	movlb	15	; () banked
  6054  0032F0  174E               	andwf	78,f,b	;volatile
  6055                           
  6056                           ; BSR set to: 15
  6057                           ;TIMERS_XC8.c: 105: T5CONbits.T5RD16 = 1;
  6058  0032F2  010F               	movlb	15	; () banked
  6059  0032F4  834E               	bsf	78,1,b	;volatile
  6060                           
  6061                           ;TIMERS_XC8.c: 106: TMR5L = 0;
  6062  0032F6  0E00               	movlw	0
  6063  0032F8  010F               	movlb	15	; () banked
  6064  0032FA  6F4F               	movwf	79,b	;volatile
  6065                           
  6066                           ;TIMERS_XC8.c: 107: TMR5H = 0;
  6067  0032FC  0E00               	movlw	0
  6068  0032FE  010F               	movlb	15	; () banked
  6069  003300  6F50               	movwf	80,b	;volatile
  6070                           
  6071                           ; BSR set to: 15
  6072                           ;TIMERS_XC8.c: 109: T5CONbits.TMR5ON = 1;
  6073  003302  010F               	movlb	15	; () banked
  6074  003304  814E               	bsf	78,0,b	;volatile
  6075                           
  6076                           ; BSR set to: 15
  6077  003306  0012               	return		;funcret
  6078  003308                     __end_of_Config_Timer5:
  6079                           	opt stack 0
  6080                           stkptr	equ	0xFFC
  6081                           tblptru	equ	0xFF8
  6082                           tblptrh	equ	0xFF7
  6083                           tblptrl	equ	0xFF6
  6084                           tablat	equ	0xFF5
  6085                           prodh	equ	0xFF4
  6086                           prodl	equ	0xFF3
  6087                           intcon	equ	0xFF2
  6088                           intcon2	equ	0xFF1
  6089                           postinc0	equ	0xFEE
  6090                           wreg	equ	0xFE8
  6091                           postdec1	equ	0xFE5
  6092                           fsr1l	equ	0xFE1
  6093                           status	equ	0xFD8
  6094                           
  6095 ;; *************** function _Config_Timer3 *****************
  6096 ;; Defined at:
  6097 ;;		line 52 in file "TIMERS_XC8.c"
  6098 ;; Parameters:    Size  Location     Type
  6099 ;;		None
  6100 ;; Auto vars:     Size  Location     Type
  6101 ;;		None
  6102 ;; Return value:  Size  Location     Type
  6103 ;;                  1    wreg      void 
  6104 ;; Registers used:
  6105 ;;		wreg, status,2
  6106 ;; Tracked objects:
  6107 ;;		On entry : 0/0
  6108 ;;		On exit  : 0/0
  6109 ;;		Unchanged: 0/0
  6110 ;; Data sizes:     COMRAM   BANK0   BANK1   BANK2   BANK3   BANK4   BANK5   BANK6   BANK7   BANK8   BANK9  BANK10  BANK1
      +1  BANK12  BANK13  BANK14  BANK15
  6111 ;;      Params:         0       0       0       0       0       0       0       0       0       0       0       0       
      +0       0       0       0       0
  6112 ;;      Locals:         0       0       0       0       0       0       0       0       0       0       0       0       
      +0       0       0       0       0
  6113 ;;      Temps:          0       0       0       0       0       0       0       0       0       0       0       0       
      +0       0       0       0       0
  6114 ;;      Totals:         0       0       0       0       0       0       0       0       0       0       0       0       
      +0       0       0       0       0
  6115 ;;Total ram usage:        0 bytes
  6116 ;; Hardware stack levels used:    1
  6117 ;; Hardware stack levels required when called:    7
  6118 ;; This function calls:
  6119 ;;		Nothing
  6120 ;; This function is called by:
  6121 ;;		_Configure_HW
  6122 ;; This function uses a non-reentrant model
  6123 ;;
  6124                           
  6125                           	psect	text15
  6126  0033A8                     __ptext15:
  6127                           	opt stack 0
  6128  0033A8                     _Config_Timer3:
  6129                           	opt stack 22
  6130                           
  6131                           ;TIMERS_XC8.c: 54: PIE2bits.TMR3IE = 0;
  6132                           
  6133                           ; BSR set to: 15
  6134                           ;incstack = 0
  6135  0033A8  92A0               	bcf	4000,1,c	;volatile
  6136                           
  6137                           ;TIMERS_XC8.c: 62: T3CONbits.T3CKPS1 = 1;
  6138  0033AA  8AB1               	bsf	4017,5,c	;volatile
  6139                           
  6140                           ;TIMERS_XC8.c: 63: T3CONbits.T3CKPS0 = 1;
  6141  0033AC  88B1               	bsf	4017,4,c	;volatile
  6142                           
  6143                           ;TIMERS_XC8.c: 65: T3CONbits.T3OSCEN = 0;
  6144  0033AE  96B1               	bcf	4017,3,c	;volatile
  6145                           
  6146                           ;TIMERS_XC8.c: 66: T3CONbits.TMR3CS = 0;
  6147  0033B0  0E3F               	movlw	-193
  6148  0033B2  16B1               	andwf	4017,f,c	;volatile
  6149                           
  6150                           ;TIMERS_XC8.c: 67: T3CONbits.T3RD16 = 1;
  6151  0033B4  82B1               	bsf	4017,1,c	;volatile
  6152                           
  6153                           ;TIMERS_XC8.c: 71: T3CONbits.TMR3ON = 1;
  6154  0033B6  80B1               	bsf	4017,0,c	;volatile
  6155                           
  6156                           ;TIMERS_XC8.c: 73: INTCONbits.RBIE = 1;
  6157  0033B8  86F2               	bsf	intcon,3,c	;volatile
  6158  0033BA  0012               	return		;funcret
  6159  0033BC                     __end_of_Config_Timer3:
  6160                           	opt stack 0
  6161                           stkptr	equ	0xFFC
  6162                           tblptru	equ	0xFF8
  6163                           tblptrh	equ	0xFF7
  6164                           tblptrl	equ	0xFF6
  6165                           tablat	equ	0xFF5
  6166                           prodh	equ	0xFF4
  6167                           prodl	equ	0xFF3
  6168                           intcon	equ	0xFF2
  6169                           intcon2	equ	0xFF1
  6170                           postinc0	equ	0xFEE
  6171                           wreg	equ	0xFE8
  6172                           postdec1	equ	0xFE5
  6173                           fsr1l	equ	0xFE1
  6174                           status	equ	0xFD8
  6175                           
  6176 ;; *************** function _Config_Timer2 *****************
  6177 ;; Defined at:
  6178 ;;		line 127 in file "TIMERS_XC8.c"
  6179 ;; Parameters:    Size  Location     Type
  6180 ;;		None
  6181 ;; Auto vars:     Size  Location     Type
  6182 ;;		None
  6183 ;; Return value:  Size  Location     Type
  6184 ;;                  1    wreg      void 
  6185 ;; Registers used:
  6186 ;;		None
  6187 ;; Tracked objects:
  6188 ;;		On entry : 0/0
  6189 ;;		On exit  : 0/0
  6190 ;;		Unchanged: 0/0
  6191 ;; Data sizes:     COMRAM   BANK0   BANK1   BANK2   BANK3   BANK4   BANK5   BANK6   BANK7   BANK8   BANK9  BANK10  BANK1
      +1  BANK12  BANK13  BANK14  BANK15
  6192 ;;      Params:         0       0       0       0       0       0       0       0       0       0       0       0       
      +0       0       0       0       0
  6193 ;;      Locals:         0       0       0       0       0       0       0       0       0       0       0       0       
      +0       0       0       0       0
  6194 ;;      Temps:          0       0       0       0       0       0       0       0       0       0       0       0       
      +0       0       0       0       0
  6195 ;;      Totals:         0       0       0       0       0       0       0       0       0       0       0       0       
      +0       0       0       0       0
  6196 ;;Total ram usage:        0 bytes
  6197 ;; Hardware stack levels used:    1
  6198 ;; Hardware stack levels required when called:    7
  6199 ;; This function calls:
  6200 ;;		Nothing
  6201 ;; This function is called by:
  6202 ;;		_Configure_HW
  6203 ;; This function uses a non-reentrant model
  6204 ;;
  6205                           
  6206                           	psect	text16
  6207  0033BC                     __ptext16:
  6208                           	opt stack 0
  6209  0033BC                     _Config_Timer2:
  6210                           	opt stack 22
  6211                           
  6212                           ;TIMERS_XC8.c: 130: PIE1bits.TMR2IE = 0;
  6213                           
  6214                           ;incstack = 0
  6215  0033BC  929D               	bcf	3997,1,c	;volatile
  6216                           
  6217                           ;TIMERS_XC8.c: 150: T2CONbits.T2OUTPS0 = 1;
  6218  0033BE  86BA               	bsf	4026,3,c	;volatile
  6219                           
  6220                           ;TIMERS_XC8.c: 151: T2CONbits.T2OUTPS1 = 1;
  6221  0033C0  88BA               	bsf	4026,4,c	;volatile
  6222                           
  6223                           ;TIMERS_XC8.c: 152: T2CONbits.T2OUTPS2 = 1;
  6224  0033C2  8ABA               	bsf	4026,5,c	;volatile
  6225                           
  6226                           ;TIMERS_XC8.c: 153: T2CONbits.T2OUTPS3 = 1;
  6227  0033C4  8CBA               	bsf	4026,6,c	;volatile
  6228                           
  6229                           ;TIMERS_XC8.c: 159: T2CONbits.T2CKPS0 = 1;
  6230  0033C6  80BA               	bsf	4026,0,c	;volatile
  6231                           
  6232                           ;TIMERS_XC8.c: 160: T2CONbits.T2CKPS1 = 1;
  6233  0033C8  82BA               	bsf	4026,1,c	;volatile
  6234                           
  6235                           ;TIMERS_XC8.c: 162: T2CONbits.TMR2ON = 1;
  6236  0033CA  84BA               	bsf	4026,2,c	;volatile
  6237                           
  6238                           ;TIMERS_XC8.c: 164: INTCONbits.RBIE = 1;
  6239  0033CC  86F2               	bsf	intcon,3,c	;volatile
  6240  0033CE  0012               	return		;funcret
  6241  0033D0                     __end_of_Config_Timer2:
  6242                           	opt stack 0
  6243                           stkptr	equ	0xFFC
  6244                           tblptru	equ	0xFF8
  6245                           tblptrh	equ	0xFF7
  6246                           tblptrl	equ	0xFF6
  6247                           tablat	equ	0xFF5
  6248                           prodh	equ	0xFF4
  6249                           prodl	equ	0xFF3
  6250                           intcon	equ	0xFF2
  6251                           intcon2	equ	0xFF1
  6252                           postinc0	equ	0xFEE
  6253                           wreg	equ	0xFE8
  6254                           postdec1	equ	0xFE5
  6255                           fsr1l	equ	0xFE1
  6256                           status	equ	0xFD8
  6257                           
  6258 ;; *************** function _Config_Timer1 *****************
  6259 ;; Defined at:
  6260 ;;		line 14 in file "TIMERS_XC8.c"
  6261 ;; Parameters:    Size  Location     Type
  6262 ;;		None
  6263 ;; Auto vars:     Size  Location     Type
  6264 ;;		None
  6265 ;; Return value:  Size  Location     Type
  6266 ;;                  1    wreg      void 
  6267 ;; Registers used:
  6268 ;;		wreg, status,2
  6269 ;; Tracked objects:
  6270 ;;		On entry : 0/0
  6271 ;;		On exit  : 0/0
  6272 ;;		Unchanged: 0/0
  6273 ;; Data sizes:     COMRAM   BANK0   BANK1   BANK2   BANK3   BANK4   BANK5   BANK6   BANK7   BANK8   BANK9  BANK10  BANK1
      +1  BANK12  BANK13  BANK14  BANK15
  6274 ;;      Params:         0       0       0       0       0       0       0       0       0       0       0       0       
      +0       0       0       0       0
  6275 ;;      Locals:         0       0       0       0       0       0       0       0       0       0       0       0       
      +0       0       0       0       0
  6276 ;;      Temps:          0       0       0       0       0       0       0       0       0       0       0       0       
      +0       0       0       0       0
  6277 ;;      Totals:         0       0       0       0       0       0       0       0       0       0       0       0       
      +0       0       0       0       0
  6278 ;;Total ram usage:        0 bytes
  6279 ;; Hardware stack levels used:    1
  6280 ;; Hardware stack levels required when called:    7
  6281 ;; This function calls:
  6282 ;;		Nothing
  6283 ;; This function is called by:
  6284 ;;		_Configure_HW
  6285 ;; This function uses a non-reentrant model
  6286 ;;
  6287                           
  6288                           	psect	text17
  6289  0033D0                     __ptext17:
  6290                           	opt stack 0
  6291  0033D0                     _Config_Timer1:
  6292                           	opt stack 22
  6293                           
  6294                           ;TIMERS_XC8.c: 16: PIE1bits.TMR1IE = 0;
  6295                           
  6296                           ;incstack = 0
  6297  0033D0  909D               	bcf	3997,0,c	;volatile
  6298                           
  6299                           ;TIMERS_XC8.c: 24: T1CONbits.T1CKPS1 = 1;
  6300  0033D2  8ACD               	bsf	4045,5,c	;volatile
  6301                           
  6302                           ;TIMERS_XC8.c: 25: T1CONbits.T1CKPS0 = 0;
  6303  0033D4  98CD               	bcf	4045,4,c	;volatile
  6304                           
  6305                           ;TIMERS_XC8.c: 27: T1CONbits.T1SOSCEN = 0;
  6306  0033D6  96CD               	bcf	4045,3,c	;volatile
  6307                           
  6308                           ;TIMERS_XC8.c: 28: T1CONbits.TMR1CS = 0;
  6309  0033D8  0E3F               	movlw	-193
  6310  0033DA  16CD               	andwf	4045,f,c	;volatile
  6311                           
  6312                           ;TIMERS_XC8.c: 29: T1CONbits.T1RD16 = 1;
  6313  0033DC  82CD               	bsf	4045,1,c	;volatile
  6314                           
  6315                           ;TIMERS_XC8.c: 32: T1CONbits.TMR1ON = 1;
  6316  0033DE  80CD               	bsf	4045,0,c	;volatile
  6317                           
  6318                           ;TIMERS_XC8.c: 34: INTCONbits.RBIE = 1;
  6319  0033E0  86F2               	bsf	intcon,3,c	;volatile
  6320  0033E2  0012               	return		;funcret
  6321  0033E4                     __end_of_Config_Timer1:
  6322                           	opt stack 0
  6323                           stkptr	equ	0xFFC
  6324                           tblptru	equ	0xFF8
  6325                           tblptrh	equ	0xFF7
  6326                           tblptrl	equ	0xFF6
  6327                           tablat	equ	0xFF5
  6328                           prodh	equ	0xFF4
  6329                           prodl	equ	0xFF3
  6330                           intcon	equ	0xFF2
  6331                           intcon2	equ	0xFF1
  6332                           postinc0	equ	0xFEE
  6333                           wreg	equ	0xFE8
  6334                           postdec1	equ	0xFE5
  6335                           fsr1l	equ	0xFE1
  6336                           status	equ	0xFD8
  6337                           
  6338 ;; *************** function _Config_Timer0 *****************
  6339 ;; Defined at:
  6340 ;;		line 275 in file "TIMERS_XC8.c"
  6341 ;; Parameters:    Size  Location     Type
  6342 ;;		None
  6343 ;; Auto vars:     Size  Location     Type
  6344 ;;		None
  6345 ;; Return value:  Size  Location     Type
  6346 ;;                  1    wreg      void 
  6347 ;; Registers used:
  6348 ;;		None
  6349 ;; Tracked objects:
  6350 ;;		On entry : 0/0
  6351 ;;		On exit  : 0/0
  6352 ;;		Unchanged: 0/0
  6353 ;; Data sizes:     COMRAM   BANK0   BANK1   BANK2   BANK3   BANK4   BANK5   BANK6   BANK7   BANK8   BANK9  BANK10  BANK1
      +1  BANK12  BANK13  BANK14  BANK15
  6354 ;;      Params:         0       0       0       0       0       0       0       0       0       0       0       0       
      +0       0       0       0       0
  6355 ;;      Locals:         0       0       0       0       0       0       0       0       0       0       0       0       
      +0       0       0       0       0
  6356 ;;      Temps:          0       0       0       0       0       0       0       0       0       0       0       0       
      +0       0       0       0       0
  6357 ;;      Totals:         0       0       0       0       0       0       0       0       0       0       0       0       
      +0       0       0       0       0
  6358 ;;Total ram usage:        0 bytes
  6359 ;; Hardware stack levels used:    1
  6360 ;; Hardware stack levels required when called:    7
  6361 ;; This function calls:
  6362 ;;		Nothing
  6363 ;; This function is called by:
  6364 ;;		_Configure_HW
  6365 ;; This function uses a non-reentrant model
  6366 ;;
  6367                           
  6368                           	psect	text18
  6369  00337E                     __ptext18:
  6370                           	opt stack 0
  6371  00337E                     _Config_Timer0:
  6372                           	opt stack 22
  6373                           
  6374                           ;TIMERS_XC8.c: 278: INTCONbits.TMR0IE = 0;
  6375                           
  6376                           ;incstack = 0
  6377  00337E  9AF2               	bcf	intcon,5,c	;volatile
  6378                           
  6379                           ;TIMERS_XC8.c: 280: T0CONbits.T0PS0 = 0;
  6380  003380  90D5               	bcf	4053,0,c	;volatile
  6381                           
  6382                           ;TIMERS_XC8.c: 281: T0CONbits.T0PS1 = 1;
  6383  003382  82D5               	bsf	4053,1,c	;volatile
  6384                           
  6385                           ;TIMERS_XC8.c: 282: T0CONbits.T0PS2 = 0;
  6386  003384  94D5               	bcf	4053,2,c	;volatile
  6387                           
  6388                           ;TIMERS_XC8.c: 293: T0CONbits.T08BIT = 0;
  6389  003386  9CD5               	bcf	4053,6,c	;volatile
  6390                           
  6391                           ;TIMERS_XC8.c: 297: T0CONbits.PSA = 0;
  6392  003388  96D5               	bcf	4053,3,c	;volatile
  6393                           
  6394                           ;TIMERS_XC8.c: 298: T0CONbits.T0SE = 0;
  6395  00338A  98D5               	bcf	4053,4,c	;volatile
  6396                           
  6397                           ;TIMERS_XC8.c: 299: T0CONbits.T0CS = 0;
  6398  00338C  9AD5               	bcf	4053,5,c	;volatile
  6399                           
  6400                           ;TIMERS_XC8.c: 301: T0CONbits.TMR0ON = 1;
  6401  00338E  8ED5               	bsf	4053,7,c	;volatile
  6402                           
  6403                           ;TIMERS_XC8.c: 303: INTCONbits.RBIE = 1;
  6404  003390  86F2               	bsf	intcon,3,c	;volatile
  6405  003392  0012               	return		;funcret
  6406  003394                     __end_of_Config_Timer0:
  6407                           	opt stack 0
  6408                           stkptr	equ	0xFFC
  6409                           tblptru	equ	0xFF8
  6410                           tblptrh	equ	0xFF7
  6411                           tblptrl	equ	0xFF6
  6412                           tablat	equ	0xFF5
  6413                           prodh	equ	0xFF4
  6414                           prodl	equ	0xFF3
  6415                           intcon	equ	0xFF2
  6416                           intcon2	equ	0xFF1
  6417                           postinc0	equ	0xFEE
  6418                           wreg	equ	0xFE8
  6419                           postdec1	equ	0xFE5
  6420                           fsr1l	equ	0xFE1
  6421                           status	equ	0xFD8
  6422                           
  6423 ;; *************** function _Confi_Int_Ext0 *****************
  6424 ;; Defined at:
  6425 ;;		line 12 in file "EXT_INT.c"
  6426 ;; Parameters:    Size  Location     Type
  6427 ;;		None
  6428 ;; Auto vars:     Size  Location     Type
  6429 ;;		None
  6430 ;; Return value:  Size  Location     Type
  6431 ;;                  1    wreg      void 
  6432 ;; Registers used:
  6433 ;;		None
  6434 ;; Tracked objects:
  6435 ;;		On entry : 0/0
  6436 ;;		On exit  : 0/0
  6437 ;;		Unchanged: 0/0
  6438 ;; Data sizes:     COMRAM   BANK0   BANK1   BANK2   BANK3   BANK4   BANK5   BANK6   BANK7   BANK8   BANK9  BANK10  BANK1
      +1  BANK12  BANK13  BANK14  BANK15
  6439 ;;      Params:         0       0       0       0       0       0       0       0       0       0       0       0       
      +0       0       0       0       0
  6440 ;;      Locals:         0       0       0       0       0       0       0       0       0       0       0       0       
      +0       0       0       0       0
  6441 ;;      Temps:          0       0       0       0       0       0       0       0       0       0       0       0       
      +0       0       0       0       0
  6442 ;;      Totals:         0       0       0       0       0       0       0       0       0       0       0       0       
      +0       0       0       0       0
  6443 ;;Total ram usage:        0 bytes
  6444 ;; Hardware stack levels used:    1
  6445 ;; Hardware stack levels required when called:    7
  6446 ;; This function calls:
  6447 ;;		Nothing
  6448 ;; This function is called by:
  6449 ;;		_Configure_HW
  6450 ;; This function uses a non-reentrant model
  6451 ;;
  6452                           
  6453                           	psect	text19
  6454  003470                     __ptext19:
  6455                           	opt stack 0
  6456  003470                     _Confi_Int_Ext0:
  6457                           	opt stack 22
  6458                           
  6459                           ;EXT_INT.c: 14: TRISB0 = 1;
  6460                           
  6461                           ;incstack = 0
  6462  003470  8093               	bsf	3987,0,c	;volatile
  6463                           
  6464                           ;EXT_INT.c: 21: INTCON2bits.INTEDG0 = 0;
  6465  003472  9CF1               	bcf	intcon2,6,c	;volatile
  6466                           
  6467                           ;EXT_INT.c: 28: INTCONbits.RBIE = 1;
  6468  003474  86F2               	bsf	intcon,3,c	;volatile
  6469  003476  0012               	return		;funcret
  6470  003478                     __end_of_Confi_Int_Ext0:
  6471                           	opt stack 0
  6472                           stkptr	equ	0xFFC
  6473                           tblptru	equ	0xFF8
  6474                           tblptrh	equ	0xFF7
  6475                           tblptrl	equ	0xFF6
  6476                           tablat	equ	0xFF5
  6477                           prodh	equ	0xFF4
  6478                           prodl	equ	0xFF3
  6479                           intcon	equ	0xFF2
  6480                           intcon2	equ	0xFF1
  6481                           postinc0	equ	0xFEE
  6482                           wreg	equ	0xFE8
  6483                           postdec1	equ	0xFE5
  6484                           fsr1l	equ	0xFE1
  6485                           status	equ	0xFD8
  6486                           
  6487 ;; *************** function _isr *****************
  6488 ;; Defined at:
  6489 ;;		line 672 in file "main.c"
  6490 ;; Parameters:    Size  Location     Type
  6491 ;;		None
  6492 ;; Auto vars:     Size  Location     Type
  6493 ;;		None
  6494 ;; Return value:  Size  Location     Type
  6495 ;;                  1    wreg      void 
  6496 ;; Registers used:
  6497 ;;		wreg, status,2, cstack
  6498 ;; Tracked objects:
  6499 ;;		On entry : 0/0
  6500 ;;		On exit  : 0/0
  6501 ;;		Unchanged: 0/0
  6502 ;; Data sizes:     COMRAM   BANK0   BANK1   BANK2   BANK3   BANK4   BANK5   BANK6   BANK7   BANK8   BANK9  BANK10  BANK1
      +1  BANK12  BANK13  BANK14  BANK15
  6503 ;;      Params:         0       0       0       0       0       0       0       0       0       0       0       0       
      +0       0       0       0       0
  6504 ;;      Locals:         0       0       0       0       0       0       0       0       0       0       0       0       
      +0       0       0       0       0
  6505 ;;      Temps:          0      17       0       0       0       0       0       0       0       0       0       0       
      +0       0       0       0       0
  6506 ;;      Totals:         0      17       0       0       0       0       0       0       0       0       0       0       
      +0       0       0       0       0
  6507 ;;Total ram usage:       17 bytes
  6508 ;; Hardware stack levels used:    1
  6509 ;; Hardware stack levels required when called:    6
  6510 ;; This function calls:
  6511 ;;		_Set_Timer1
  6512 ;; This function is called by:
  6513 ;;		Interrupt level 1
  6514 ;; This function uses a non-reentrant model
  6515 ;;
  6516                           
  6517                           	psect	intcodelo
  6518  000018                     __pintcodelo:
  6519                           	opt stack 0
  6520  000018                     _isr:
  6521                           	opt stack 22
  6522                           
  6523                           ;incstack = 0
  6524  000018  805F               	bsf	btemp,0,c	;set compiler interrupt flag (level 1)
  6525  00001A  CFD8 F062          	movff	status,??_isr
  6526  00001E  CFE8 F063          	movff	wreg,??_isr+1
  6527  000022  CFE0 F064          	movff	bsr,??_isr+2
  6528  000026  CFFA F065          	movff	pclath,??_isr+3
  6529  00002A  CFFB F066          	movff	pclatu,??_isr+4
  6530  00002E  CFE9 F067          	movff	fsr0l,??_isr+5
  6531  000032  CFEA F068          	movff	fsr0h,??_isr+6
  6532  000036  CFE1 F069          	movff	fsr1l,??_isr+7
  6533  00003A  CFE2 F06A          	movff	fsr1h,??_isr+8
  6534  00003E  CFD9 F06B          	movff	fsr2l,??_isr+9
  6535  000042  CFDA F06C          	movff	fsr2h,??_isr+10
  6536  000046  CFF3 F06D          	movff	prodl,??_isr+11
  6537  00004A  CFF4 F06E          	movff	prodh,??_isr+12
  6538  00004E  CFF6 F06F          	movff	tblptrl,??_isr+13
  6539  000052  CFF7 F070          	movff	tblptrh,??_isr+14
  6540  000056  CFF8 F071          	movff	tblptru,??_isr+15
  6541  00005A  CFF5 F072          	movff	tablat,??_isr+16
  6542                           
  6543                           ;main.c: 674: if(PIR1bits.TMR1IF && PIE1bits.TMR1IE){
  6544  00005E  B09E               	btfsc	3998,0,c	;volatile
  6545  000060  A09D               	btfss	3997,0,c	;volatile
  6546  000062  D033               	goto	i1l311
  6547                           
  6548                           ;main.c: 675: (PIE1bits.TMR1IE = 0);
  6549  000064  909D               	bcf	3997,0,c	;volatile
  6550                           
  6551                           ;main.c: 676: (PIR1bits.TMR1IF = 0);
  6552  000066  909E               	bcf	3998,0,c	;volatile
  6553                           
  6554                           ;main.c: 679: rotacao = 0;
  6555  000068  0E00               	movlw	0
  6556  00006A  0100               	movlb	0	; () banked
  6557  00006C  6FC0               	movwf	(_rotacao+1)& (0+255),b
  6558  00006E  0E00               	movlw	0
  6559  000070  6FBF               	movwf	_rotacao& (0+255),b
  6560                           
  6561                           ;main.c: 680: fase_ok = 0;
  6562  000072  0E00               	movlw	0
  6563  000074  0101               	movlb	1	; () banked
  6564  000076  6F57               	movwf	(_fase_ok+1)& (0+255),b
  6565  000078  0E00               	movlw	0
  6566  00007A  6F56               	movwf	_fase_ok& (0+255),b
  6567                           
  6568                           ;main.c: 681: falha_ok = 0;
  6569  00007C  0E00               	movlw	0
  6570  00007E  0101               	movlb	1	; () banked
  6571  000080  6F55               	movwf	(_falha_ok+1)& (0+255),b
  6572  000082  0E00               	movlw	0
  6573  000084  6F54               	movwf	_falha_ok& (0+255),b
  6574                           
  6575                           ;main.c: 682: t_periodo_ref = 65535;
  6576  000086  0EFF               	movlw	255
  6577  000088  0101               	movlb	1	; () banked
  6578  00008A  6F40               	movwf	_t_periodo_ref& (0+255),b
  6579  00008C  0EFF               	movlw	255
  6580  00008E  6F41               	movwf	(_t_periodo_ref+1)& (0+255),b
  6581  000090  0E00               	movlw	0
  6582  000092  6F42               	movwf	(_t_periodo_ref+2)& (0+255),b
  6583  000094  0E00               	movlw	0
  6584  000096  6F43               	movwf	(_t_periodo_ref+3)& (0+255),b
  6585                           
  6586                           ;main.c: 683: t_periodo = 65530;
  6587  000098  0EFA               	movlw	250
  6588  00009A  0101               	movlb	1	; () banked
  6589  00009C  6F44               	movwf	_t_periodo& (0+255),b
  6590  00009E  0EFF               	movlw	255
  6591  0000A0  6F45               	movwf	(_t_periodo+1)& (0+255),b
  6592  0000A2  0E00               	movlw	0
  6593  0000A4  6F46               	movwf	(_t_periodo+2)& (0+255),b
  6594  0000A6  0E00               	movlw	0
  6595  0000A8  6F47               	movwf	(_t_periodo+3)& (0+255),b
  6596                           
  6597                           ;main.c: 684: dente = 255;
  6598  0000AA  0E00               	movlw	0
  6599  0000AC  0100               	movlb	0	; () banked
  6600  0000AE  6FE6               	movwf	(_dente+1)& (0+255),b
  6601  0000B0  69E5               	setf	_dente& (0+255),b
  6602                           
  6603                           ; BSR set to: 0
  6604                           ;main.c: 686: LATBbits.LATB4 = 0;
  6605  0000B2  988A               	bcf	3978,4,c	;volatile
  6606                           
  6607                           ; BSR set to: 0
  6608                           ;main.c: 688: Set_Timer1(0);
  6609  0000B4  0E00               	movlw	0
  6610  0000B6  0100               	movlb	0	; () banked
  6611  0000B8  6F61               	movwf	(Set_Timer1@data_timer+1)& (0+255),b
  6612  0000BA  0E00               	movlw	0
  6613  0000BC  6F60               	movwf	Set_Timer1@data_timer& (0+255),b
  6614  0000BE  EC17  F01A         	call	_Set_Timer1	;wreg free
  6615                           
  6616                           ;main.c: 689: flag_peralta = 1;
  6617  0000C2  0E01               	movlw	1
  6618  0000C4  0100               	movlb	0	; () banked
  6619  0000C6  6FE9               	movwf	_flag_peralta& (0+255),b
  6620                           
  6621                           ; BSR set to: 0
  6622                           ;main.c: 690: (PIE1bits.TMR1IE = 1);
  6623  0000C8  809D               	bsf	3997,0,c	;volatile
  6624  0000CA                     i1l311:
  6625  0000CA  C072  FFF5         	movff	??_isr+16,tablat
  6626  0000CE  C071  FFF8         	movff	??_isr+15,tblptru
  6627  0000D2  C070  FFF7         	movff	??_isr+14,tblptrh
  6628  0000D6  C06F  FFF6         	movff	??_isr+13,tblptrl
  6629  0000DA  C06E  FFF4         	movff	??_isr+12,prodh
  6630  0000DE  C06D  FFF3         	movff	??_isr+11,prodl
  6631  0000E2  C06C  FFDA         	movff	??_isr+10,fsr2h
  6632  0000E6  C06B  FFD9         	movff	??_isr+9,fsr2l
  6633  0000EA  C06A  FFE2         	movff	??_isr+8,fsr1h
  6634  0000EE  C069  FFE1         	movff	??_isr+7,fsr1l
  6635  0000F2  C068  FFEA         	movff	??_isr+6,fsr0h
  6636  0000F6  C067  FFE9         	movff	??_isr+5,fsr0l
  6637  0000FA  C066  FFFB         	movff	??_isr+4,pclatu
  6638  0000FE  C065  FFFA         	movff	??_isr+3,pclath
  6639  000102  C064  FFE0         	movff	??_isr+2,bsr
  6640  000106  C063  FFE8         	movff	??_isr+1,wreg
  6641  00010A  C062  FFD8         	movff	??_isr,status
  6642  00010E  905F               	bcf	btemp,0,c	;clear compiler interrupt flag (level 1)
  6643  000110  0010               	retfie	
  6644  000112                     __end_of_isr:
  6645                           	opt stack 0
  6646                           stkptr	equ	0xFFC
  6647                           pclatu	equ	0xFFB
  6648                           pclath	equ	0xFFA
  6649                           tblptru	equ	0xFF8
  6650                           tblptrh	equ	0xFF7
  6651                           tblptrl	equ	0xFF6
  6652                           tablat	equ	0xFF5
  6653                           prodh	equ	0xFF4
  6654                           prodl	equ	0xFF3
  6655                           intcon	equ	0xFF2
  6656                           intcon2	equ	0xFF1
  6657                           postinc0	equ	0xFEE
  6658                           fsr0h	equ	0xFEA
  6659                           fsr0l	equ	0xFE9
  6660                           wreg	equ	0xFE8
  6661                           postdec1	equ	0xFE5
  6662                           fsr1h	equ	0xFE2
  6663                           fsr1l	equ	0xFE1
  6664                           bsr	equ	0xFE0
  6665                           fsr2h	equ	0xFDA
  6666                           fsr2l	equ	0xFD9
  6667                           status	equ	0xFD8
  6668                           
  6669 ;; *************** function _Set_Timer1 *****************
  6670 ;; Defined at:
  6671 ;;		line 37 in file "TIMERS_XC8.c"
  6672 ;; Parameters:    Size  Location     Type
  6673 ;;  data_timer      2    0[BANK0 ] unsigned int 
  6674 ;; Auto vars:     Size  Location     Type
  6675 ;;		None
  6676 ;; Return value:  Size  Location     Type
  6677 ;;                  1    wreg      void 
  6678 ;; Registers used:
  6679 ;;		wreg, status,2
  6680 ;; Tracked objects:
  6681 ;;		On entry : 0/0
  6682 ;;		On exit  : 0/0
  6683 ;;		Unchanged: 0/0
  6684 ;; Data sizes:     COMRAM   BANK0   BANK1   BANK2   BANK3   BANK4   BANK5   BANK6   BANK7   BANK8   BANK9  BANK10  BANK1
      +1  BANK12  BANK13  BANK14  BANK15
  6685 ;;      Params:         0       2       0       0       0       0       0       0       0       0       0       0       
      +0       0       0       0       0
  6686 ;;      Locals:         0       0       0       0       0       0       0       0       0       0       0       0       
      +0       0       0       0       0
  6687 ;;      Temps:          0       0       0       0       0       0       0       0       0       0       0       0       
      +0       0       0       0       0
  6688 ;;      Totals:         0       2       0       0       0       0       0       0       0       0       0       0       
      +0       0       0       0       0
  6689 ;;Total ram usage:        2 bytes
  6690 ;; Hardware stack levels used:    1
  6691 ;; Hardware stack levels required when called:    5
  6692 ;; This function calls:
  6693 ;;		Nothing
  6694 ;; This function is called by:
  6695 ;;		_isr
  6696 ;; This function uses a non-reentrant model
  6697 ;;
  6698                           
  6699                           	psect	text21
  6700  00342E                     __ptext21:
  6701                           	opt stack 0
  6702  00342E                     _Set_Timer1:
  6703                           	opt stack 22
  6704                           
  6705                           ;TIMERS_XC8.c: 39: TMR1H = data_timer >> 8;
  6706                           
  6707                           ;incstack = 0
  6708  00342E  0100               	movlb	0	; () banked
  6709  003430  5161               	movf	(Set_Timer1@data_timer+1)& (0+255),w,b
  6710  003432  6ECF               	movwf	4047,c	;volatile
  6711                           
  6712                           ; BSR set to: 0
  6713                           ;TIMERS_XC8.c: 40: TMR1L = data_timer & 0x00FF;
  6714  003434  C060  FFCE         	movff	Set_Timer1@data_timer,4046	;volatile
  6715                           
  6716                           ; BSR set to: 0
  6717  003438  0012               	return		;funcret
  6718  00343A                     __end_of_Set_Timer1:
  6719                           	opt stack 0
  6720                           stkptr	equ	0xFFC
  6721                           pclatu	equ	0xFFB
  6722                           pclath	equ	0xFFA
  6723                           tblptru	equ	0xFF8
  6724                           tblptrh	equ	0xFF7
  6725                           tblptrl	equ	0xFF6
  6726                           tablat	equ	0xFF5
  6727                           prodh	equ	0xFF4
  6728                           prodl	equ	0xFF3
  6729                           intcon	equ	0xFF2
  6730                           intcon2	equ	0xFF1
  6731                           postinc0	equ	0xFEE
  6732                           fsr0h	equ	0xFEA
  6733                           fsr0l	equ	0xFE9
  6734                           wreg	equ	0xFE8
  6735                           postdec1	equ	0xFE5
  6736                           fsr1h	equ	0xFE2
  6737                           fsr1l	equ	0xFE1
  6738                           bsr	equ	0xFE0
  6739                           fsr2h	equ	0xFDA
  6740                           fsr2l	equ	0xFD9
  6741                           status	equ	0xFD8
  6742                           
  6743 ;; *************** function _isr2 *****************
  6744 ;; Defined at:
  6745 ;;		line 265 in file "main.c"
  6746 ;; Parameters:    Size  Location     Type
  6747 ;;		None
  6748 ;; Auto vars:     Size  Location     Type
  6749 ;;		None
  6750 ;; Return value:  Size  Location     Type
  6751 ;;                  1    wreg      void 
  6752 ;; Registers used:
  6753 ;;		wreg, fsr2l, fsr2h, status,2, status,0, prodl, prodh, cstack
  6754 ;; Tracked objects:
  6755 ;;		On entry : 0/0
  6756 ;;		On exit  : 0/0
  6757 ;;		Unchanged: 0/0
  6758 ;; Data sizes:     COMRAM   BANK0   BANK1   BANK2   BANK3   BANK4   BANK5   BANK6   BANK7   BANK8   BANK9  BANK10  BANK1
      +1  BANK12  BANK13  BANK14  BANK15
  6759 ;;      Params:         0       0       0       0       0       0       0       0       0       0       0       0       
      +0       0       0       0       0
  6760 ;;      Locals:         0       0       0       0       0       0       0       0       0       0       0       0       
      +0       0       0       0       0
  6761 ;;      Temps:         16       0       0       0       0       0       0       0       0       0       0       0       
      +0       0       0       0       0
  6762 ;;      Totals:        16       0       0       0       0       0       0       0       0       0       0       0       
      +0       0       0       0       0
  6763 ;;Total ram usage:       16 bytes
  6764 ;; Hardware stack levels used:    1
  6765 ;; Hardware stack levels required when called:    4
  6766 ;; This function calls:
  6767 ;;		_Get_Timer1
  6768 ;;		_Set_Timer0
  6769 ;;		_Set_Timer2
  6770 ;;		_Set_Timer3
  6771 ;;		_conta_dente
  6772 ;;		i2_Set_Timer5
  6773 ;; This function is called by:
  6774 ;;		Interrupt level 2
  6775 ;; This function uses a non-reentrant model
  6776 ;;
  6777                           
  6778                           	psect	intcode
  6779  000008                     __pintcode:
  6780                           	opt stack 0
  6781  000008                     _isr2:
  6782                           	opt stack 22
  6783                           
  6784                           ; BSR set to: 0
  6785                           ;incstack = 0
  6786  000008  825F               	bsf	btemp,1,c	;set compiler interrupt flag (level 2)
  6787  00000A  EF9B  F004         	goto	int_func
  6788                           stkptr	equ	0xFFC
  6789                           pclatu	equ	0xFFB
  6790                           pclath	equ	0xFFA
  6791                           tblptru	equ	0xFF8
  6792                           tblptrh	equ	0xFF7
  6793                           tblptrl	equ	0xFF6
  6794                           tablat	equ	0xFF5
  6795                           prodh	equ	0xFF4
  6796                           prodl	equ	0xFF3
  6797                           intcon	equ	0xFF2
  6798                           intcon2	equ	0xFF1
  6799                           postinc0	equ	0xFEE
  6800                           fsr0h	equ	0xFEA
  6801                           fsr0l	equ	0xFE9
  6802                           wreg	equ	0xFE8
  6803                           postdec1	equ	0xFE5
  6804                           fsr1h	equ	0xFE2
  6805                           fsr1l	equ	0xFE1
  6806                           bsr	equ	0xFE0
  6807                           fsr2h	equ	0xFDA
  6808                           fsr2l	equ	0xFD9
  6809                           status	equ	0xFD8
  6810                           
  6811                           	psect	intcode_body
  6812  000936                     __pintcode_body:
  6813                           	opt stack 22
  6814  000936                     int_func:
  6815                           	opt stack 22
  6816  000936  CFFA F051          	movff	pclath,??_isr2+2
  6817  00093A  CFFB F052          	movff	pclatu,??_isr2+3
  6818  00093E  CFE9 F053          	movff	fsr0l,??_isr2+4
  6819  000942  CFEA F054          	movff	fsr0h,??_isr2+5
  6820  000946  CFE1 F055          	movff	fsr1l,??_isr2+6
  6821  00094A  CFE2 F056          	movff	fsr1h,??_isr2+7
  6822  00094E  CFD9 F057          	movff	fsr2l,??_isr2+8
  6823  000952  CFDA F058          	movff	fsr2h,??_isr2+9
  6824  000956  CFF3 F059          	movff	prodl,??_isr2+10
  6825  00095A  CFF4 F05A          	movff	prodh,??_isr2+11
  6826  00095E  CFF6 F05B          	movff	tblptrl,??_isr2+12
  6827  000962  CFF7 F05C          	movff	tblptrh,??_isr2+13
  6828  000966  CFF8 F05D          	movff	tblptru,??_isr2+14
  6829  00096A  CFF5 F05E          	movff	tablat,??_isr2+15
  6830                           
  6831                           ;main.c: 268: if(INTCONbits.TMR0IF && INTCONbits.TMR0IE){
  6832  00096E  B4F2               	btfsc	intcon,2,c	;volatile
  6833  000970  AAF2               	btfss	intcon,5,c	;volatile
  6834  000972  D0B2               	goto	i2l6857
  6835                           
  6836                           ;main.c: 269: (INTCONbits.TMR0IE = 0);
  6837  000974  9AF2               	bcf	intcon,5,c	;volatile
  6838                           
  6839                           ;main.c: 270: (INTCONbits.TMR0IF = 0);
  6840  000976  94F2               	bcf	intcon,2,c	;volatile
  6841                           
  6842                           ;main.c: 273: switch (ij14_pos)
  6843  000978  D092               	goto	i2l6853
  6844  00097A                     i2l6805:
  6845                           
  6846                           ;main.c: 281: if (tempo_inj > 20)
  6847  00097A  0100               	movlb	0	; () banked
  6848  00097C  BFAA               	btfsc	(_tempo_inj+3)& (0+255),7,b
  6849  00097E  D08A               	goto	i2l6849
  6850  000980  0100               	movlb	0	; () banked
  6851  000982  51AA               	movf	(_tempo_inj+3)& (0+255),w,b
  6852  000984  0100               	movlb	0	; () banked
  6853  000986  11A9               	iorwf	(_tempo_inj+2)& (0+255),w,b
  6854  000988  0100               	movlb	0	; () banked
  6855  00098A  11A8               	iorwf	(_tempo_inj+1)& (0+255),w,b
  6856  00098C  E105               	bnz	i2u791_40
  6857  00098E  0E15               	movlw	21
  6858  000990  0100               	movlb	0	; () banked
  6859  000992  5DA7               	subwf	_tempo_inj& (0+255),w,b
  6860  000994  A0D8               	btfss	status,0,c
  6861  000996  D07E               	goto	i2l6849
  6862  000998                     i2u791_40:
  6863                           
  6864                           ; BSR set to: 0
  6865                           ;main.c: 282: {
  6866                           ;main.c: 285: LATDbits.LATD2 = 1;
  6867  000998  848C               	bsf	3980,2,c	;volatile
  6868                           
  6869                           ; BSR set to: 0
  6870                           ;main.c: 288: Set_Timer0(tempo_inj);
  6871  00099A  C0A7  F001         	movff	_tempo_inj,Set_Timer0@data_timer
  6872  00099E  C0A8  F002         	movff	_tempo_inj+1,Set_Timer0@data_timer+1
  6873  0009A2  EC33  F01A         	call	_Set_Timer0	;wreg free
  6874                           
  6875                           ;main.c: 289: (INTCONbits.TMR0IF = 0);
  6876  0009A6  94F2               	bcf	intcon,2,c	;volatile
  6877                           
  6878                           ;main.c: 290: (INTCONbits.TMR0IE = 1);
  6879  0009A8  8AF2               	bsf	intcon,5,c	;volatile
  6880                           
  6881                           ;main.c: 292: ij14_pos = 10;
  6882  0009AA  0E00               	movlw	0
  6883  0009AC  0100               	movlb	0	; () banked
  6884  0009AE  6FE2               	movwf	(_ij14_pos+1)& (0+255),b
  6885  0009B0  0E0A               	movlw	10
  6886  0009B2  D01C               	goto	L10
  6887  0009B4                     i2l6819:
  6888                           
  6889                           ;main.c: 299: if (tempo_inj > 20)
  6890  0009B4  0100               	movlb	0	; () banked
  6891  0009B6  BFAA               	btfsc	(_tempo_inj+3)& (0+255),7,b
  6892  0009B8  D06D               	goto	i2l6849
  6893  0009BA  0100               	movlb	0	; () banked
  6894  0009BC  51AA               	movf	(_tempo_inj+3)& (0+255),w,b
  6895  0009BE  0100               	movlb	0	; () banked
  6896  0009C0  11A9               	iorwf	(_tempo_inj+2)& (0+255),w,b
  6897  0009C2  0100               	movlb	0	; () banked
  6898  0009C4  11A8               	iorwf	(_tempo_inj+1)& (0+255),w,b
  6899  0009C6  E105               	bnz	i2u792_40
  6900  0009C8  0E15               	movlw	21
  6901  0009CA  0100               	movlb	0	; () banked
  6902  0009CC  5DA7               	subwf	_tempo_inj& (0+255),w,b
  6903  0009CE  A0D8               	btfss	status,0,c
  6904  0009D0  D061               	goto	i2l6849
  6905  0009D2                     i2u792_40:
  6906                           
  6907                           ; BSR set to: 0
  6908                           ;main.c: 300: {
  6909                           ;main.c: 303: LATDbits.LATD5 = 1;
  6910  0009D2  8A8C               	bsf	3980,5,c	;volatile
  6911                           
  6912                           ; BSR set to: 0
  6913                           ;main.c: 306: Set_Timer0(tempo_inj);
  6914  0009D4  C0A7  F001         	movff	_tempo_inj,Set_Timer0@data_timer
  6915  0009D8  C0A8  F002         	movff	_tempo_inj+1,Set_Timer0@data_timer+1
  6916  0009DC  EC33  F01A         	call	_Set_Timer0	;wreg free
  6917                           
  6918                           ;main.c: 307: (INTCONbits.TMR0IF = 0);
  6919  0009E0  94F2               	bcf	intcon,2,c	;volatile
  6920                           
  6921                           ;main.c: 308: (INTCONbits.TMR0IE = 1);
  6922  0009E2  8AF2               	bsf	intcon,5,c	;volatile
  6923                           
  6924                           ;main.c: 310: ij14_pos = 40;
  6925  0009E4  0E00               	movlw	0
  6926  0009E6  0100               	movlb	0	; () banked
  6927  0009E8  6FE2               	movwf	(_ij14_pos+1)& (0+255),b
  6928  0009EA  0E28               	movlw	40
  6929  0009EC                     L10:
  6930  0009EC  6FE1               	movwf	_ij14_pos& (0+255),b
  6931                           
  6932                           ; BSR set to: 0
  6933                           ;main.c: 314: break;
  6934  0009EE  D06F               	goto	i2l6855
  6935  0009F0                     i2l261:
  6936                           
  6937                           ;main.c: 318: LATDbits.LATD2 = 0;
  6938  0009F0  948C               	bcf	3980,2,c	;volatile
  6939                           
  6940                           ;main.c: 320: if ((rotacao >= 6) && (rotacao_ant >= 6))
  6941  0009F2  0100               	movlb	0	; () banked
  6942  0009F4  BFC0               	btfsc	(_rotacao+1)& (0+255),7,b
  6943  0009F6  D04E               	goto	i2l6849
  6944  0009F8  0100               	movlb	0	; () banked
  6945  0009FA  51C0               	movf	(_rotacao+1)& (0+255),w,b
  6946  0009FC  E105               	bnz	i2u793_40
  6947  0009FE  0E06               	movlw	6
  6948  000A00  0100               	movlb	0	; () banked
  6949  000A02  5DBF               	subwf	_rotacao& (0+255),w,b
  6950  000A04  A0D8               	btfss	status,0,c
  6951  000A06  D046               	goto	i2l6849
  6952  000A08                     i2u793_40:
  6953                           
  6954                           ; BSR set to: 0
  6955  000A08  0100               	movlb	0	; () banked
  6956  000A0A  BFBE               	btfsc	(_rotacao_ant+1)& (0+255),7,b
  6957  000A0C  D043               	goto	i2l6849
  6958  000A0E  0100               	movlb	0	; () banked
  6959  000A10  51BE               	movf	(_rotacao_ant+1)& (0+255),w,b
  6960  000A12  E105               	bnz	i2u794_40
  6961  000A14  0E06               	movlw	6
  6962  000A16  0100               	movlb	0	; () banked
  6963  000A18  5DBD               	subwf	_rotacao_ant& (0+255),w,b
  6964  000A1A  A0D8               	btfss	status,0,c
  6965  000A1C  D03B               	goto	i2l6849
  6966  000A1E                     i2u794_40:
  6967                           
  6968                           ; BSR set to: 0
  6969                           ;main.c: 321: {
  6970                           ;main.c: 322: volta14 = !volta14;
  6971  000A1E  0100               	movlb	0	; () banked
  6972  000A20  51DD               	movf	_volta14& (0+255),w,b
  6973  000A22  0100               	movlb	0	; () banked
  6974  000A24  11DE               	iorwf	(_volta14+1)& (0+255),w,b
  6975  000A26  A4D8               	btfss	status,2,c
  6976  000A28  D002               	goto	i2u795_40
  6977  000A2A  0E01               	movlw	1
  6978  000A2C  D001               	goto	i2u796_40
  6979  000A2E                     i2u795_40:
  6980  000A2E  0E00               	movlw	0
  6981  000A30                     i2u796_40:
  6982  000A30  0100               	movlb	0	; () banked
  6983  000A32  6FDD               	movwf	_volta14& (0+255),b
  6984  000A34  6BDE               	clrf	(_volta14+1)& (0+255),b
  6985                           
  6986                           ;main.c: 326: if (sinal_fase == 0)
  6987  000A36  0100               	movlb	0	; () banked
  6988  000A38  51BB               	movf	_sinal_fase& (0+255),w,b
  6989  000A3A  0100               	movlb	0	; () banked
  6990  000A3C  11BC               	iorwf	(_sinal_fase+1)& (0+255),w,b
  6991  000A3E  A4D8               	btfss	status,2,c
  6992  000A40  D029               	goto	i2l6849
  6993                           
  6994                           ; BSR set to: 0
  6995                           ;main.c: 327: volta14 = !volta14;
  6996  000A42  0100               	movlb	0	; () banked
  6997  000A44  51DD               	movf	_volta14& (0+255),w,b
  6998  000A46  0100               	movlb	0	; () banked
  6999  000A48  11DE               	iorwf	(_volta14+1)& (0+255),w,b
  7000  000A4A  B4D8               	btfsc	status,2,c
  7001  000A4C  D01F               	goto	i2u802_41
  7002  000A4E                     i2u798_40:
  7003  000A4E  0E00               	movlw	0
  7004  000A50  D01E               	goto	i2u803_40
  7005  000A52                     i2l264:
  7006                           
  7007                           ;main.c: 335: LATDbits.LATD5 = 0;
  7008  000A52  9A8C               	bcf	3980,5,c	;volatile
  7009                           
  7010                           ;main.c: 337: if ((rotacao >= 6) && (rotacao_ant >= 6))
  7011  000A54  0100               	movlb	0	; () banked
  7012  000A56  BFC0               	btfsc	(_rotacao+1)& (0+255),7,b
  7013  000A58  D01D               	goto	i2l6849
  7014  000A5A  0100               	movlb	0	; () banked
  7015  000A5C  51C0               	movf	(_rotacao+1)& (0+255),w,b
  7016  000A5E  E105               	bnz	i2u800_40
  7017  000A60  0E06               	movlw	6
  7018  000A62  0100               	movlb	0	; () banked
  7019  000A64  5DBF               	subwf	_rotacao& (0+255),w,b
  7020  000A66  A0D8               	btfss	status,0,c
  7021  000A68  D015               	goto	i2l6849
  7022  000A6A                     i2u800_40:
  7023                           
  7024                           ; BSR set to: 0
  7025  000A6A  0100               	movlb	0	; () banked
  7026  000A6C  BFBE               	btfsc	(_rotacao_ant+1)& (0+255),7,b
  7027  000A6E  D012               	goto	i2l6849
  7028  000A70  0100               	movlb	0	; () banked
  7029  000A72  51BE               	movf	(_rotacao_ant+1)& (0+255),w,b
  7030  000A74  E105               	bnz	i2u801_40
  7031  000A76  0E06               	movlw	6
  7032  000A78  0100               	movlb	0	; () banked
  7033  000A7A  5DBD               	subwf	_rotacao_ant& (0+255),w,b
  7034  000A7C  A0D8               	btfss	status,0,c
  7035  000A7E  D00A               	goto	i2l6849
  7036  000A80                     i2u801_40:
  7037                           
  7038                           ; BSR set to: 0
  7039                           ;main.c: 338: volta14 = !volta14;
  7040  000A80  0100               	movlb	0	; () banked
  7041  000A82  51DD               	movf	_volta14& (0+255),w,b
  7042  000A84  0100               	movlb	0	; () banked
  7043  000A86  11DE               	iorwf	(_volta14+1)& (0+255),w,b
  7044  000A88  A4D8               	btfss	status,2,c
  7045  000A8A  D7E1               	goto	i2u798_40
  7046  000A8C                     i2u802_41:
  7047  000A8C  0E01               	movlw	1
  7048  000A8E                     i2u803_40:
  7049  000A8E  0100               	movlb	0	; () banked
  7050  000A90  6FDD               	movwf	_volta14& (0+255),b
  7051  000A92  6BDE               	clrf	(_volta14+1)& (0+255),b
  7052  000A94                     i2l6849:
  7053                           
  7054                           ; BSR set to: 0
  7055                           ;main.c: 340: ij14_pos = 0;
  7056  000A94  0E00               	movlw	0
  7057  000A96  0100               	movlb	0	; () banked
  7058  000A98  6FE2               	movwf	(_ij14_pos+1)& (0+255),b
  7059  000A9A  0E00               	movlw	0
  7060  000A9C  D7A7               	goto	L10
  7061  000A9E                     i2l6853:
  7062  000A9E  C0E1  F04F         	movff	_ij14_pos,??_isr2
  7063  000AA2  C0E2  F050         	movff	_ij14_pos+1,??_isr2+1
  7064                           
  7065                           ; Switch on 2 bytes has been partitioned into a top level switch of size 1, and 1 sub-sw
      +                          itches
  7066                           ; Switch size 1, requested type "space"
  7067                           ; Number of cases is 1, Range of values is 0 to 0
  7068                           ; switch strategies available:
  7069                           ; Name         Instructions Cycles
  7070                           ; simple_byte            4     3 (average)
  7071                           ;	Chosen strategy is simple_byte
  7072  000AA6  5050               	movf	??_isr2+1,w,c
  7073  000AA8  0A00               	xorlw	0	; case 0
  7074  000AAA  A4D8               	btfss	status,2,c
  7075  000AAC  D010               	goto	i2l6855
  7076                           
  7077                           ; Switch size 1, requested type "space"
  7078                           ; Number of cases is 5, Range of values is 0 to 40
  7079                           ; switch strategies available:
  7080                           ; Name         Instructions Cycles
  7081                           ; simple_byte           16     9 (average)
  7082                           ;	Chosen strategy is simple_byte
  7083  000AAE  504F               	movf	??_isr2,w,c
  7084  000AB0  0A00               	xorlw	0	; case 0
  7085  000AB2  B4D8               	btfsc	status,2,c
  7086  000AB4  D00C               	goto	i2l6855
  7087  000AB6  0A01               	xorlw	1	; case 1
  7088  000AB8  B4D8               	btfsc	status,2,c
  7089  000ABA  D75F               	goto	i2l6805
  7090  000ABC  0A05               	xorlw	5	; case 4
  7091  000ABE  B4D8               	btfsc	status,2,c
  7092  000AC0  D779               	goto	i2l6819
  7093  000AC2  0A0E               	xorlw	14	; case 10
  7094  000AC4  B4D8               	btfsc	status,2,c
  7095  000AC6  D794               	goto	i2l261
  7096  000AC8  0A22               	xorlw	34	; case 40
  7097  000ACA  B4D8               	btfsc	status,2,c
  7098  000ACC  D7C2               	goto	i2l264
  7099  000ACE                     i2l6855:
  7100                           
  7101                           ;main.c: 344: b = 1;
  7102  000ACE  0E00               	movlw	0
  7103  000AD0  0101               	movlb	1	; () banked
  7104  000AD2  6F67               	movwf	(_b+1)& (0+255),b
  7105  000AD4  0E01               	movlw	1
  7106  000AD6  6F66               	movwf	_b& (0+255),b
  7107  000AD8                     i2l6857:
  7108                           
  7109                           ;main.c: 346: }
  7110                           ;main.c: 347: if(PIR5bits.TMR5IF && PIE5bits.TMR5IE){
  7111  000AD8  B27E               	btfsc	3966,1,c	;volatile
  7112  000ADA  A27D               	btfss	3965,1,c	;volatile
  7113  000ADC  D009               	goto	i2l6865
  7114                           
  7115                           ;main.c: 348: PIR5bits.TMR5IF = 0;
  7116  000ADE  927E               	bcf	3966,1,c	;volatile
  7117                           
  7118                           ;main.c: 351: Enable_control_ign = 1;
  7119  000AE0  0100               	movlb	0	; () banked
  7120  000AE2  83E8               	bsf	(_Enable_control_ign/(0+8))& (0+255),_Enable_control_ign& (0+7),b
  7121                           
  7122                           ; BSR set to: 0
  7123                           ;main.c: 352: Set_Timer5(15535);
  7124  000AE4  0E3C               	movlw	60
  7125  000AE6  6E02               	movwf	i2Set_Timer5@data_timer+1,c
  7126  000AE8  0EAF               	movlw	175
  7127  000AEA  6E01               	movwf	i2Set_Timer5@data_timer,c
  7128  000AEC  EC1D  F01A         	call	i2_Set_Timer5	;wreg free
  7129  000AF0                     i2l6865:
  7130                           
  7131                           ;main.c: 354: }
  7132                           ;main.c: 371: if(INTCONbits.INT0IF && INTCONbits.INT0IE){
  7133  000AF0  B2F2               	btfsc	intcon,1,c	;volatile
  7134  000AF2  A8F2               	btfss	intcon,4,c	;volatile
  7135  000AF4  D0B2               	goto	i2l6915
  7136                           
  7137                           ;main.c: 372: (INTCONbits.INT0IE = 0);
  7138  000AF6  98F2               	bcf	intcon,4,c	;volatile
  7139                           
  7140                           ;main.c: 373: (INTCONbits.INT0IF = 0);
  7141  000AF8  92F2               	bcf	intcon,1,c	;volatile
  7142                           
  7143                           ;main.c: 377: if (dente != 255)
  7144  000AFA  0100               	movlb	0	; () banked
  7145  000AFC  29E5               	incf	_dente& (0+255),w,b
  7146  000AFE  0100               	movlb	0	; () banked
  7147  000B00  11E6               	iorwf	(_dente+1)& (0+255),w,b
  7148  000B02  B4D8               	btfsc	status,2,c
  7149  000B04  D00B               	goto	i2l6877
  7150                           
  7151                           ; BSR set to: 0
  7152                           ;main.c: 378: {
  7153                           ;main.c: 379: LATEbits.LATE0 = 0;
  7154  000B06  908D               	bcf	3981,0,c	;volatile
  7155                           
  7156                           ;main.c: 380: (PIE1bits.TMR1IE = 0);
  7157  000B08  909D               	bcf	3997,0,c	;volatile
  7158                           
  7159                           ; BSR set to: 0
  7160                           ;main.c: 382: t_periodo = Get_Timer1();
  7161  000B0A  EC94  F019         	call	_Get_Timer1	;wreg free
  7162  000B0E  C001  F144         	movff	?_Get_Timer1,_t_periodo
  7163  000B12  C002  F145         	movff	?_Get_Timer1+1,_t_periodo+1
  7164  000B16  0101               	movlb	1	; () banked
  7165  000B18  6B46               	clrf	(_t_periodo+2)& (0+255),b
  7166  000B1A  6B47               	clrf	(_t_periodo+3)& (0+255),b
  7167  000B1C                     i2l6877:
  7168                           
  7169                           ;main.c: 385: }
  7170                           ;main.c: 387: if ((t_periodo > t_periodo_ref) && (dente > 50))
  7171  000B1C  0101               	movlb	1	; () banked
  7172  000B1E  5144               	movf	_t_periodo& (0+255),w,b
  7173  000B20  0101               	movlb	1	; () banked
  7174  000B22  5D40               	subwf	_t_periodo_ref& (0+255),w,b
  7175  000B24  0101               	movlb	1	; () banked
  7176  000B26  5145               	movf	(_t_periodo+1)& (0+255),w,b
  7177  000B28  0101               	movlb	1	; () banked
  7178  000B2A  5941               	subwfb	(_t_periodo_ref+1)& (0+255),w,b
  7179  000B2C  0101               	movlb	1	; () banked
  7180  000B2E  5146               	movf	(_t_periodo+2)& (0+255),w,b
  7181  000B30  0101               	movlb	1	; () banked
  7182  000B32  5942               	subwfb	(_t_periodo_ref+2)& (0+255),w,b
  7183  000B34  0101               	movlb	1	; () banked
  7184  000B36  5143               	movf	(_t_periodo_ref+3)& (0+255),w,b
  7185  000B38  0A80               	xorlw	128
  7186  000B3A  6E4F               	movwf	??_isr2& (0+255),c
  7187  000B3C  0101               	movlb	1	; () banked
  7188  000B3E  5147               	movf	(_t_periodo+3)& (0+255),w,b
  7189  000B40  0A80               	xorlw	128
  7190  000B42  584F               	subwfb	??_isr2& (0+255),w,c
  7191  000B44  B0D8               	btfsc	status,0,c
  7192  000B46  D04B               	goto	i2l6893
  7193                           
  7194                           ; BSR set to: 1
  7195  000B48  0100               	movlb	0	; () banked
  7196  000B4A  BFE6               	btfsc	(_dente+1)& (0+255),7,b
  7197  000B4C  D048               	goto	i2l6893
  7198  000B4E  0100               	movlb	0	; () banked
  7199  000B50  51E6               	movf	(_dente+1)& (0+255),w,b
  7200  000B52  E105               	bnz	i2u810_40
  7201  000B54  0E33               	movlw	51
  7202  000B56  0100               	movlb	0	; () banked
  7203  000B58  5DE5               	subwf	_dente& (0+255),w,b
  7204  000B5A  A0D8               	btfss	status,0,c
  7205  000B5C  D040               	goto	i2l6893
  7206  000B5E                     i2u810_40:
  7207                           
  7208                           ; BSR set to: 0
  7209                           ;main.c: 388: {
  7210                           ;main.c: 391: LATBbits.LATB7 = 1;
  7211  000B5E  8E8A               	bsf	3978,7,c	;volatile
  7212                           
  7213                           ; BSR set to: 0
  7214                           ;main.c: 392: falha_ok = 1;
  7215  000B60  0E00               	movlw	0
  7216  000B62  0101               	movlb	1	; () banked
  7217  000B64  6F55               	movwf	(_falha_ok+1)& (0+255),b
  7218  000B66  0E01               	movlw	1
  7219  000B68  6F54               	movwf	_falha_ok& (0+255),b
  7220                           
  7221                           ;main.c: 393: dente = 0;
  7222  000B6A  0E00               	movlw	0
  7223  000B6C  0100               	movlb	0	; () banked
  7224  000B6E  6FE6               	movwf	(_dente+1)& (0+255),b
  7225  000B70  0E00               	movlw	0
  7226  000B72  6FE5               	movwf	_dente& (0+255),b
  7227                           
  7228                           ;main.c: 396: spi_ctr = 0;
  7229  000B74  0E00               	movlw	0
  7230  000B76  0101               	movlb	1	; () banked
  7231  000B78  6F59               	movwf	(_spi_ctr+1)& (0+255),b
  7232  000B7A  0E00               	movlw	0
  7233  000B7C  6F58               	movwf	_spi_ctr& (0+255),b
  7234                           
  7235                           ;main.c: 400: a = b = c = d = e = 0;
  7236  000B7E  0E00               	movlw	0
  7237  000B80  0101               	movlb	1	; () banked
  7238  000B82  6F61               	movwf	(_e+1)& (0+255),b
  7239  000B84  0E00               	movlw	0
  7240  000B86  6F60               	movwf	_e& (0+255),b
  7241  000B88  C160  F162         	movff	_e,_d
  7242  000B8C  C161  F163         	movff	_e+1,_d+1
  7243  000B90  C162  F164         	movff	_d,_c
  7244  000B94  C163  F165         	movff	_d+1,_c+1
  7245  000B98  C164  F166         	movff	_c,_b
  7246  000B9C  C165  F167         	movff	_c+1,_b+1
  7247  000BA0  C166  F168         	movff	_b,_a
  7248  000BA4  C167  F169         	movff	_b+1,_a+1
  7249                           
  7250                           ; BSR set to: 1
  7251                           ;main.c: 402: }
  7252                           ;main.c: 411: switch (estado_controle_ml)
  7253  000BA8  D01A               	goto	i2l6893
  7254  000BAA                     i2l6885:
  7255                           
  7256                           ;main.c: 420: SP_rpm = 1150;
  7257  000BAA  0E00               	movlw	0
  7258  000BAC  0101               	movlb	1	; () banked
  7259  000BAE  6F8F               	movwf	_SP_rpm& (0+255),b
  7260  000BB0  0EC0               	movlw	192
  7261  000BB2  6F90               	movwf	(_SP_rpm+1)& (0+255),b
  7262  000BB4  0E8F               	movlw	143
  7263  000BB6                     L11:
  7264  000BB6  6F91               	movwf	(_SP_rpm+2)& (0+255),b
  7265  000BB8  0E44               	movlw	68
  7266  000BBA  6F92               	movwf	(_SP_rpm+3)& (0+255),b
  7267                           
  7268                           ;main.c: 448: break;
  7269  000BBC  D023               	goto	i2l6895
  7270  000BBE                     i2l6889:
  7271                           
  7272                           ;main.c: 451: SP_rpm = 800;
  7273  000BBE  0E00               	movlw	0
  7274  000BC0  0101               	movlb	1	; () banked
  7275  000BC2  6F8F               	movwf	_SP_rpm& (0+255),b
  7276  000BC4  0E00               	movlw	0
  7277  000BC6  6F90               	movwf	(_SP_rpm+1)& (0+255),b
  7278  000BC8  0E48               	movlw	72
  7279  000BCA  6F91               	movwf	(_SP_rpm+2)& (0+255),b
  7280  000BCC  0E44               	movlw	68
  7281  000BCE  6F92               	movwf	(_SP_rpm+3)& (0+255),b
  7282  000BD0                     i2l275:
  7283  000BD0  0E00               	movlw	0
  7284  000BD2  0101               	movlb	1	; () banked
  7285  000BD4  6F8F               	movwf	_SP_rpm& (0+255),b
  7286  000BD6  0E00               	movlw	0
  7287  000BD8  6F90               	movwf	(_SP_rpm+1)& (0+255),b
  7288  000BDA  0E61               	movlw	97
  7289  000BDC  D7EC               	goto	L11
  7290  000BDE                     i2l6893:
  7291  000BDE  C15C  F04F         	movff	_estado_controle_ml,??_isr2
  7292  000BE2  C15D  F050         	movff	_estado_controle_ml+1,??_isr2+1
  7293                           
  7294                           ; Switch on 2 bytes has been partitioned into a top level switch of size 1, and 1 sub-sw
      +                          itches
  7295                           ; Switch size 1, requested type "space"
  7296                           ; Number of cases is 1, Range of values is 0 to 0
  7297                           ; switch strategies available:
  7298                           ; Name         Instructions Cycles
  7299                           ; simple_byte            4     3 (average)
  7300                           ;	Chosen strategy is simple_byte
  7301  000BE6  5050               	movf	??_isr2+1,w,c
  7302  000BE8  0A00               	xorlw	0	; case 0
  7303  000BEA  A4D8               	btfss	status,2,c
  7304  000BEC  D7F1               	goto	i2l275
  7305                           
  7306                           ; Switch size 1, requested type "space"
  7307                           ; Number of cases is 3, Range of values is 50 to 150
  7308                           ; switch strategies available:
  7309                           ; Name         Instructions Cycles
  7310                           ; simple_byte           10     6 (average)
  7311                           ;	Chosen strategy is simple_byte
  7312  000BEE  504F               	movf	??_isr2,w,c
  7313  000BF0  0A32               	xorlw	50	; case 50
  7314  000BF2  B4D8               	btfsc	status,2,c
  7315  000BF4  D7DA               	goto	i2l6885
  7316  000BF6  0A56               	xorlw	86	; case 100
  7317  000BF8  B4D8               	btfsc	status,2,c
  7318  000BFA  D7EA               	goto	i2l275
  7319  000BFC  0AF2               	xorlw	242	; case 150
  7320  000BFE  B4D8               	btfsc	status,2,c
  7321  000C00  D7DE               	goto	i2l6889
  7322  000C02  D7E6               	goto	i2l275
  7323  000C04                     i2l6895:
  7324                           
  7325                           ;main.c: 495: t_periodo = t_periodo << 1;
  7326  000C04  90D8               	bcf	status,0,c
  7327  000C06  0101               	movlb	1	; () banked
  7328  000C08  3544               	rlcf	_t_periodo& (0+255),w,b
  7329  000C0A  0101               	movlb	1	; () banked
  7330  000C0C  6F44               	movwf	_t_periodo& (0+255),b
  7331  000C0E  0101               	movlb	1	; () banked
  7332  000C10  3545               	rlcf	(_t_periodo+1)& (0+255),w,b
  7333  000C12  0101               	movlb	1	; () banked
  7334  000C14  6F45               	movwf	(_t_periodo+1)& (0+255),b
  7335  000C16  0101               	movlb	1	; () banked
  7336  000C18  3546               	rlcf	(_t_periodo+2)& (0+255),w,b
  7337  000C1A  0101               	movlb	1	; () banked
  7338  000C1C  6F46               	movwf	(_t_periodo+2)& (0+255),b
  7339  000C1E  0101               	movlb	1	; () banked
  7340  000C20  3547               	rlcf	(_t_periodo+3)& (0+255),w,b
  7341  000C22  0101               	movlb	1	; () banked
  7342  000C24  6F47               	movwf	(_t_periodo+3)& (0+255),b
  7343                           
  7344                           ; BSR set to: 1
  7345                           ;main.c: 496: t_periodo_ref = t_periodo;
  7346  000C26  C144  F140         	movff	_t_periodo,_t_periodo_ref
  7347  000C2A  C145  F141         	movff	_t_periodo+1,_t_periodo_ref+1
  7348  000C2E  C146  F142         	movff	_t_periodo+2,_t_periodo_ref+2
  7349  000C32  C147  F143         	movff	_t_periodo+3,_t_periodo_ref+3
  7350                           
  7351                           ; BSR set to: 1
  7352                           ;main.c: 500: conta_dente();
  7353  000C36  EC8B  F000         	call	_conta_dente	;wreg free
  7354                           
  7355                           ;main.c: 510: (PIR1bits.TMR1IF = 0);
  7356  000C3A  909E               	bcf	3998,0,c	;volatile
  7357                           
  7358                           ;main.c: 511: (PIE1bits.TMR1IE = 1);
  7359  000C3C  809D               	bsf	3997,0,c	;volatile
  7360                           
  7361                           ;main.c: 513: if (dente == 2) LATBbits.LATB7 = 0;
  7362  000C3E  0E02               	movlw	2
  7363  000C40  0100               	movlb	0	; () banked
  7364  000C42  19E5               	xorwf	_dente& (0+255),w,b
  7365  000C44  0100               	movlb	0	; () banked
  7366  000C46  11E6               	iorwf	(_dente+1)& (0+255),w,b
  7367  000C48  B4D8               	btfsc	status,2,c
  7368                           
  7369                           ; BSR set to: 0
  7370  000C4A  9E8A               	bcf	3978,7,c	;volatile
  7371                           
  7372                           ; BSR set to: 0
  7373                           ;main.c: 515: e = 1;
  7374                           
  7375                           ; BSR set to: 0
  7376  000C4C  0E00               	movlw	0
  7377  000C4E  0101               	movlb	1	; () banked
  7378  000C50  6F61               	movwf	(_e+1)& (0+255),b
  7379  000C52  0E01               	movlw	1
  7380  000C54  6F60               	movwf	_e& (0+255),b
  7381                           
  7382                           ; BSR set to: 1
  7383                           ;main.c: 516: (INTCONbits.INT0IF = 0);
  7384  000C56  92F2               	bcf	intcon,1,c	;volatile
  7385                           
  7386                           ; BSR set to: 1
  7387                           ;main.c: 517: (INTCONbits.INT0IE = 1);
  7388  000C58  88F2               	bsf	intcon,4,c	;volatile
  7389  000C5A                     i2l6915:
  7390                           
  7391                           ;main.c: 518: }
  7392                           ;main.c: 520: if(PIR1bits.TMR2IF && PIE1bits.TMR2IE){
  7393  000C5A  B29E               	btfsc	3998,1,c	;volatile
  7394  000C5C  A29D               	btfss	3997,1,c	;volatile
  7395  000C5E  D07F               	goto	i2l6975
  7396                           
  7397                           ;main.c: 521: (PIE1bits.TMR2IE = 0);
  7398  000C60  929D               	bcf	3997,1,c	;volatile
  7399                           
  7400                           ;main.c: 522: (PIR1bits.TMR2IF = 0);
  7401  000C62  929E               	bcf	3998,1,c	;volatile
  7402                           
  7403                           ;main.c: 526: if (dm == 0)
  7404  000C64  0101               	movlb	1	; () banked
  7405  000C66  515E               	movf	_dm& (0+255),w,b
  7406  000C68  0101               	movlb	1	; () banked
  7407  000C6A  115F               	iorwf	(_dm+1)& (0+255),w,b
  7408  000C6C  B4D8               	btfsc	status,2,c
  7409  000C6E  D04A               	goto	i2l6961
  7410  000C70  D064               	goto	i2l6965
  7411  000C72                     i2l282:
  7412                           
  7413                           ;main.c: 537: LATCbits.LATC1 = 0;
  7414  000C72  928B               	bcf	3979,1,c	;volatile
  7415                           
  7416                           ;main.c: 540: LATCbits.LATC0 = 0;
  7417  000C74  908B               	bcf	3979,0,c	;volatile
  7418                           
  7419                           ;main.c: 541: ig_pos = 0;
  7420  000C76  0E00               	movlw	0
  7421  000C78  0100               	movlb	0	; () banked
  7422  000C7A  6FE4               	movwf	(_ig_pos+1)& (0+255),b
  7423  000C7C  0E00               	movlw	0
  7424  000C7E  6FE3               	movwf	_ig_pos& (0+255),b
  7425                           
  7426                           ;main.c: 542: dm = 0;
  7427  000C80  0E00               	movlw	0
  7428  000C82  0101               	movlb	1	; () banked
  7429  000C84  6F5F               	movwf	(_dm+1)& (0+255),b
  7430  000C86  0E00               	movlw	0
  7431  000C88  D01E               	goto	L12
  7432  000C8A                     i2l6927:
  7433                           
  7434                           ;main.c: 546: if (tempo_bob > 1)
  7435  000C8A  0100               	movlb	0	; () banked
  7436  000C8C  BFC2               	btfsc	(_tempo_bob+1)& (0+255),7,b
  7437  000C8E  D034               	goto	i2l6957
  7438  000C90  0100               	movlb	0	; () banked
  7439  000C92  51C2               	movf	(_tempo_bob+1)& (0+255),w,b
  7440  000C94  E105               	bnz	i2u815_40
  7441  000C96  0E02               	movlw	2
  7442  000C98  0100               	movlb	0	; () banked
  7443  000C9A  5DC1               	subwf	_tempo_bob& (0+255),w,b
  7444  000C9C  A0D8               	btfss	status,0,c
  7445  000C9E  D02C               	goto	i2l6957
  7446  000CA0                     i2u815_40:
  7447                           
  7448                           ; BSR set to: 0
  7449                           ;main.c: 547: {
  7450                           ;main.c: 550: LATCbits.LATC1 = 1;
  7451  000CA0  828B               	bsf	3979,1,c	;volatile
  7452                           
  7453                           ;main.c: 553: PR2 = tempo_bob;
  7454  000CA2  C0C1  FFBB         	movff	_tempo_bob,4027	;volatile
  7455                           
  7456                           ; BSR set to: 0
  7457                           ;main.c: 554: Set_Timer2(0);
  7458  000CA6  0E00               	movlw	0
  7459  000CA8  6E02               	movwf	Set_Timer2@data_timer+1,c
  7460  000CAA  0E00               	movlw	0
  7461  000CAC  6E01               	movwf	Set_Timer2@data_timer,c
  7462  000CAE  EC48  F01A         	call	_Set_Timer2	;wreg free
  7463  000CB2  D01F               	goto	i2l6949
  7464  000CB4                     i2l6937:
  7465                           
  7466                           ;main.c: 557: ig_pos = 1;
  7467  000CB4  0E00               	movlw	0
  7468  000CB6  0100               	movlb	0	; () banked
  7469  000CB8  6FE4               	movwf	(_ig_pos+1)& (0+255),b
  7470  000CBA  0E01               	movlw	1
  7471  000CBC  6FE3               	movwf	_ig_pos& (0+255),b
  7472                           
  7473                           ; BSR set to: 0
  7474                           ;main.c: 558: dm = 1;
  7475  000CBE  0E00               	movlw	0
  7476  000CC0  0101               	movlb	1	; () banked
  7477  000CC2  6F5F               	movwf	(_dm+1)& (0+255),b
  7478  000CC4  0E01               	movlw	1
  7479  000CC6                     L12:
  7480  000CC6  6F5E               	movwf	_dm& (0+255),b
  7481                           
  7482                           ;main.c: 559: }
  7483  000CC8  D032               	goto	i2l6963
  7484  000CCA                     i2l6943:
  7485                           
  7486                           ;main.c: 564: if (tempo_bob > 1)
  7487  000CCA  0100               	movlb	0	; () banked
  7488  000CCC  BFC2               	btfsc	(_tempo_bob+1)& (0+255),7,b
  7489  000CCE  D014               	goto	i2l6957
  7490  000CD0  0100               	movlb	0	; () banked
  7491  000CD2  51C2               	movf	(_tempo_bob+1)& (0+255),w,b
  7492  000CD4  E105               	bnz	i2u816_40
  7493  000CD6  0E02               	movlw	2
  7494  000CD8  0100               	movlb	0	; () banked
  7495  000CDA  5DC1               	subwf	_tempo_bob& (0+255),w,b
  7496  000CDC  A0D8               	btfss	status,0,c
  7497  000CDE  D00C               	goto	i2l6957
  7498  000CE0                     i2u816_40:
  7499                           
  7500                           ; BSR set to: 0
  7501                           ;main.c: 565: {
  7502                           ;main.c: 568: LATCbits.LATC0 = 1;
  7503  000CE0  808B               	bsf	3979,0,c	;volatile
  7504                           
  7505                           ;main.c: 571: PR2 = tempo_bob;
  7506  000CE2  C0C1  FFBB         	movff	_tempo_bob,4027	;volatile
  7507                           
  7508                           ; BSR set to: 0
  7509                           ;main.c: 572: Set_Timer2(0);
  7510  000CE6  0E00               	movlw	0
  7511  000CE8  6E02               	movwf	Set_Timer2@data_timer+1,c
  7512  000CEA  0E00               	movlw	0
  7513  000CEC  6E01               	movwf	Set_Timer2@data_timer,c
  7514  000CEE  EC48  F01A         	call	_Set_Timer2	;wreg free
  7515  000CF2                     i2l6949:
  7516                           
  7517                           ;main.c: 573: (PIR1bits.TMR2IF = 0);
  7518  000CF2  929E               	bcf	3998,1,c	;volatile
  7519                           
  7520                           ;main.c: 574: (PIE1bits.TMR2IE = 1);
  7521  000CF4  829D               	bsf	3997,1,c	;volatile
  7522  000CF6  D7DE               	goto	i2l6937
  7523  000CF8                     i2l6957:
  7524                           
  7525                           ;main.c: 578: else ig_pos = 0;
  7526  000CF8  0E00               	movlw	0
  7527  000CFA  0100               	movlb	0	; () banked
  7528  000CFC  6FE4               	movwf	(_ig_pos+1)& (0+255),b
  7529  000CFE  0E00               	movlw	0
  7530  000D00  6FE3               	movwf	_ig_pos& (0+255),b
  7531                           
  7532                           ; BSR set to: 0
  7533                           ;main.c: 580: }
  7534                           
  7535                           ; BSR set to: 0
  7536                           ;main.c: 579: break;
  7537  000D02  D015               	goto	i2l6963
  7538  000D04                     i2l6961:
  7539  000D04  C0E3  F04F         	movff	_ig_pos,??_isr2
  7540  000D08  C0E4  F050         	movff	_ig_pos+1,??_isr2+1
  7541                           
  7542                           ; Switch on 2 bytes has been partitioned into a top level switch of size 1, and 1 sub-sw
      +                          itches
  7543                           ; Switch size 1, requested type "space"
  7544                           ; Number of cases is 1, Range of values is 0 to 0
  7545                           ; switch strategies available:
  7546                           ; Name         Instructions Cycles
  7547                           ; simple_byte            4     3 (average)
  7548                           ;	Chosen strategy is simple_byte
  7549  000D0C  5050               	movf	??_isr2+1,w,c
  7550  000D0E  0A00               	xorlw	0	; case 0
  7551  000D10  A4D8               	btfss	status,2,c
  7552  000D12  D00D               	goto	i2l6963
  7553                           
  7554                           ; Switch size 1, requested type "space"
  7555                           ; Number of cases is 4, Range of values is 0 to 23
  7556                           ; switch strategies available:
  7557                           ; Name         Instructions Cycles
  7558                           ; simple_byte           13     7 (average)
  7559                           ;	Chosen strategy is simple_byte
  7560  000D14  504F               	movf	??_isr2,w,c
  7561  000D16  0A00               	xorlw	0	; case 0
  7562  000D18  B4D8               	btfsc	status,2,c
  7563  000D1A  D009               	goto	i2l6963
  7564  000D1C  0A01               	xorlw	1	; case 1
  7565  000D1E  B4D8               	btfsc	status,2,c
  7566  000D20  D7A8               	goto	i2l282
  7567  000D22  0A0F               	xorlw	15	; case 14
  7568  000D24  B4D8               	btfsc	status,2,c
  7569  000D26  D7D1               	goto	i2l6943
  7570  000D28  0A19               	xorlw	25	; case 23
  7571  000D2A  B4D8               	btfsc	status,2,c
  7572  000D2C  D7AE               	goto	i2l6927
  7573  000D2E                     i2l6963:
  7574                           
  7575                           ;main.c: 581: c = 1;
  7576  000D2E  0E00               	movlw	0
  7577  000D30  0101               	movlb	1	; () banked
  7578  000D32  6F65               	movwf	(_c+1)& (0+255),b
  7579  000D34  0E01               	movlw	1
  7580  000D36  6F64               	movwf	_c& (0+255),b
  7581                           
  7582                           ;main.c: 582: }
  7583  000D38  D012               	goto	i2l6975
  7584  000D3A                     i2l6965:
  7585                           
  7586                           ; BSR set to: 1
  7587                           ;main.c: 584: else
  7588                           ;main.c: 585: {
  7589                           ;main.c: 586: Set_Timer2(0);
  7590  000D3A  0E00               	movlw	0
  7591  000D3C  6E02               	movwf	Set_Timer2@data_timer+1,c
  7592  000D3E  0E00               	movlw	0
  7593  000D40  6E01               	movwf	Set_Timer2@data_timer,c
  7594  000D42  EC48  F01A         	call	_Set_Timer2	;wreg free
  7595                           
  7596                           ;main.c: 587: dm = 0;
  7597  000D46  0E00               	movlw	0
  7598  000D48  0101               	movlb	1	; () banked
  7599  000D4A  6F5F               	movwf	(_dm+1)& (0+255),b
  7600  000D4C  0E00               	movlw	0
  7601  000D4E  6F5E               	movwf	_dm& (0+255),b
  7602                           
  7603                           ; BSR set to: 1
  7604                           ;main.c: 588: ig_pos = 1;
  7605  000D50  0E00               	movlw	0
  7606  000D52  0100               	movlb	0	; () banked
  7607  000D54  6FE4               	movwf	(_ig_pos+1)& (0+255),b
  7608  000D56  0E01               	movlw	1
  7609  000D58  6FE3               	movwf	_ig_pos& (0+255),b
  7610                           
  7611                           ; BSR set to: 0
  7612                           ;main.c: 589: (PIR1bits.TMR2IF = 0);
  7613  000D5A  929E               	bcf	3998,1,c	;volatile
  7614                           
  7615                           ; BSR set to: 0
  7616                           ;main.c: 590: (PIE1bits.TMR2IE = 1);
  7617  000D5C  829D               	bsf	3997,1,c	;volatile
  7618  000D5E                     i2l6975:
  7619                           
  7620                           ;main.c: 591: }
  7621                           ;main.c: 592: }
  7622                           ;main.c: 594: if(PIR2bits.TMR3IF && PIE2bits.TMR3IE){
  7623  000D5E  B2A1               	btfsc	4001,1,c	;volatile
  7624  000D60  A2A0               	btfss	4000,1,c	;volatile
  7625  000D62  D0B2               	goto	i2l305
  7626                           
  7627                           ;main.c: 595: (PIR2bits.TMR3IF = 0);
  7628  000D64  92A1               	bcf	4001,1,c	;volatile
  7629                           
  7630                           ;main.c: 596: (PIE2bits.TMR3IE = 0);
  7631  000D66  92A0               	bcf	4000,1,c	;volatile
  7632                           
  7633                           ;main.c: 599: switch (ij23_pos)
  7634  000D68  D092               	goto	i2l7029
  7635  000D6A                     i2l6981:
  7636                           
  7637                           ;main.c: 606: if (tempo_inj > 20)
  7638  000D6A  0100               	movlb	0	; () banked
  7639  000D6C  BFAA               	btfsc	(_tempo_inj+3)& (0+255),7,b
  7640  000D6E  D08A               	goto	i2l7025
  7641  000D70  0100               	movlb	0	; () banked
  7642  000D72  51AA               	movf	(_tempo_inj+3)& (0+255),w,b
  7643  000D74  0100               	movlb	0	; () banked
  7644  000D76  11A9               	iorwf	(_tempo_inj+2)& (0+255),w,b
  7645  000D78  0100               	movlb	0	; () banked
  7646  000D7A  11A8               	iorwf	(_tempo_inj+1)& (0+255),w,b
  7647  000D7C  E105               	bnz	i2u819_40
  7648  000D7E  0E15               	movlw	21
  7649  000D80  0100               	movlb	0	; () banked
  7650  000D82  5DA7               	subwf	_tempo_inj& (0+255),w,b
  7651  000D84  A0D8               	btfss	status,0,c
  7652  000D86  D07E               	goto	i2l7025
  7653  000D88                     i2u819_40:
  7654                           
  7655                           ; BSR set to: 0
  7656                           ;main.c: 607: {
  7657                           ;main.c: 609: LATDbits.LATD3 = 1;
  7658  000D88  868C               	bsf	3980,3,c	;volatile
  7659                           
  7660                           ; BSR set to: 0
  7661                           ;main.c: 612: Set_Timer3(tempo_inj);
  7662  000D8A  C0A7  F001         	movff	_tempo_inj,Set_Timer3@data_timer
  7663  000D8E  C0A8  F002         	movff	_tempo_inj+1,Set_Timer3@data_timer+1
  7664  000D92  EC2E  F01A         	call	_Set_Timer3	;wreg free
  7665                           
  7666                           ;main.c: 613: (PIR2bits.TMR3IF = 0);
  7667  000D96  92A1               	bcf	4001,1,c	;volatile
  7668                           
  7669                           ;main.c: 614: (PIE2bits.TMR3IE = 1);
  7670  000D98  82A0               	bsf	4000,1,c	;volatile
  7671                           
  7672                           ;main.c: 616: ij23_pos = 20;
  7673  000D9A  0E00               	movlw	0
  7674  000D9C  0100               	movlb	0	; () banked
  7675  000D9E  6FE0               	movwf	(_ij23_pos+1)& (0+255),b
  7676  000DA0  0E14               	movlw	20
  7677  000DA2  D01C               	goto	L15
  7678  000DA4                     i2l6995:
  7679                           
  7680                           ;main.c: 623: if (tempo_inj > 20)
  7681  000DA4  0100               	movlb	0	; () banked
  7682  000DA6  BFAA               	btfsc	(_tempo_inj+3)& (0+255),7,b
  7683  000DA8  D06D               	goto	i2l7025
  7684  000DAA  0100               	movlb	0	; () banked
  7685  000DAC  51AA               	movf	(_tempo_inj+3)& (0+255),w,b
  7686  000DAE  0100               	movlb	0	; () banked
  7687  000DB0  11A9               	iorwf	(_tempo_inj+2)& (0+255),w,b
  7688  000DB2  0100               	movlb	0	; () banked
  7689  000DB4  11A8               	iorwf	(_tempo_inj+1)& (0+255),w,b
  7690  000DB6  E105               	bnz	i2u820_40
  7691  000DB8  0E15               	movlw	21
  7692  000DBA  0100               	movlb	0	; () banked
  7693  000DBC  5DA7               	subwf	_tempo_inj& (0+255),w,b
  7694  000DBE  A0D8               	btfss	status,0,c
  7695  000DC0  D061               	goto	i2l7025
  7696  000DC2                     i2u820_40:
  7697                           
  7698                           ; BSR set to: 0
  7699                           ;main.c: 624: {
  7700                           ;main.c: 626: LATDbits.LATD4 = 1;
  7701  000DC2  888C               	bsf	3980,4,c	;volatile
  7702                           
  7703                           ; BSR set to: 0
  7704                           ;main.c: 629: Set_Timer3(tempo_inj);
  7705  000DC4  C0A7  F001         	movff	_tempo_inj,Set_Timer3@data_timer
  7706  000DC8  C0A8  F002         	movff	_tempo_inj+1,Set_Timer3@data_timer+1
  7707  000DCC  EC2E  F01A         	call	_Set_Timer3	;wreg free
  7708                           
  7709                           ;main.c: 630: (PIR2bits.TMR3IF = 0);
  7710  000DD0  92A1               	bcf	4001,1,c	;volatile
  7711                           
  7712                           ;main.c: 631: (PIE2bits.TMR3IE = 1);
  7713  000DD2  82A0               	bsf	4000,1,c	;volatile
  7714                           
  7715                           ;main.c: 633: ij23_pos = 30;
  7716  000DD4  0E00               	movlw	0
  7717  000DD6  0100               	movlb	0	; () banked
  7718  000DD8  6FE0               	movwf	(_ij23_pos+1)& (0+255),b
  7719  000DDA  0E1E               	movlw	30
  7720  000DDC                     L15:
  7721  000DDC  6FDF               	movwf	_ij23_pos& (0+255),b
  7722                           
  7723                           ; BSR set to: 0
  7724                           ;main.c: 636: break;
  7725  000DDE  D06F               	goto	i2l7031
  7726  000DE0                     i2l300:
  7727                           
  7728                           ;main.c: 640: LATDbits.LATD3 = 0;
  7729  000DE0  968C               	bcf	3980,3,c	;volatile
  7730                           
  7731                           ;main.c: 642: if ((rotacao >= 6) && (rotacao_ant >= 6))
  7732  000DE2  0100               	movlb	0	; () banked
  7733  000DE4  BFC0               	btfsc	(_rotacao+1)& (0+255),7,b
  7734  000DE6  D04E               	goto	i2l7025
  7735  000DE8  0100               	movlb	0	; () banked
  7736  000DEA  51C0               	movf	(_rotacao+1)& (0+255),w,b
  7737  000DEC  E105               	bnz	i2u821_40
  7738  000DEE  0E06               	movlw	6
  7739  000DF0  0100               	movlb	0	; () banked
  7740  000DF2  5DBF               	subwf	_rotacao& (0+255),w,b
  7741  000DF4  A0D8               	btfss	status,0,c
  7742  000DF6  D046               	goto	i2l7025
  7743  000DF8                     i2u821_40:
  7744                           
  7745                           ; BSR set to: 0
  7746  000DF8  0100               	movlb	0	; () banked
  7747  000DFA  BFBE               	btfsc	(_rotacao_ant+1)& (0+255),7,b
  7748  000DFC  D043               	goto	i2l7025
  7749  000DFE  0100               	movlb	0	; () banked
  7750  000E00  51BE               	movf	(_rotacao_ant+1)& (0+255),w,b
  7751  000E02  E105               	bnz	i2u822_40
  7752  000E04  0E06               	movlw	6
  7753  000E06  0100               	movlb	0	; () banked
  7754  000E08  5DBD               	subwf	_rotacao_ant& (0+255),w,b
  7755  000E0A  A0D8               	btfss	status,0,c
  7756  000E0C  D03B               	goto	i2l7025
  7757  000E0E                     i2u822_40:
  7758                           
  7759                           ; BSR set to: 0
  7760                           ;main.c: 643: volta23 = !volta23;
  7761  000E0E  0100               	movlb	0	; () banked
  7762  000E10  51DB               	movf	_volta23& (0+255),w,b
  7763  000E12  0100               	movlb	0	; () banked
  7764  000E14  11DC               	iorwf	(_volta23+1)& (0+255),w,b
  7765  000E16  B4D8               	btfsc	status,2,c
  7766  000E18  D031               	goto	i2u830_41
  7767  000E1A                     i2u823_40:
  7768  000E1A  0E00               	movlw	0
  7769  000E1C  D030               	goto	i2u831_40
  7770  000E1E                     i2l302:
  7771                           
  7772                           ;main.c: 650: LATDbits.LATD4 = 0;
  7773  000E1E  988C               	bcf	3980,4,c	;volatile
  7774                           
  7775                           ;main.c: 652: if ((rotacao >= 6) && (rotacao_ant >= 6))
  7776  000E20  0100               	movlb	0	; () banked
  7777  000E22  BFC0               	btfsc	(_rotacao+1)& (0+255),7,b
  7778  000E24  D02F               	goto	i2l7025
  7779  000E26  0100               	movlb	0	; () banked
  7780  000E28  51C0               	movf	(_rotacao+1)& (0+255),w,b
  7781  000E2A  E105               	bnz	i2u825_40
  7782  000E2C  0E06               	movlw	6
  7783  000E2E  0100               	movlb	0	; () banked
  7784  000E30  5DBF               	subwf	_rotacao& (0+255),w,b
  7785  000E32  A0D8               	btfss	status,0,c
  7786  000E34  D027               	goto	i2l7025
  7787  000E36                     i2u825_40:
  7788                           
  7789                           ; BSR set to: 0
  7790  000E36  0100               	movlb	0	; () banked
  7791  000E38  BFBE               	btfsc	(_rotacao_ant+1)& (0+255),7,b
  7792  000E3A  D024               	goto	i2l7025
  7793  000E3C  0100               	movlb	0	; () banked
  7794  000E3E  51BE               	movf	(_rotacao_ant+1)& (0+255),w,b
  7795  000E40  E105               	bnz	i2u826_40
  7796  000E42  0E06               	movlw	6
  7797  000E44  0100               	movlb	0	; () banked
  7798  000E46  5DBD               	subwf	_rotacao_ant& (0+255),w,b
  7799  000E48  A0D8               	btfss	status,0,c
  7800  000E4A  D01C               	goto	i2l7025
  7801  000E4C                     i2u826_40:
  7802                           
  7803                           ; BSR set to: 0
  7804                           ;main.c: 653: {
  7805                           ;main.c: 654: volta23 = !volta23;
  7806  000E4C  0100               	movlb	0	; () banked
  7807  000E4E  51DB               	movf	_volta23& (0+255),w,b
  7808  000E50  0100               	movlb	0	; () banked
  7809  000E52  11DC               	iorwf	(_volta23+1)& (0+255),w,b
  7810  000E54  A4D8               	btfss	status,2,c
  7811  000E56  D002               	goto	i2u827_40
  7812  000E58  0E01               	movlw	1
  7813  000E5A  D001               	goto	i2u828_40
  7814  000E5C                     i2u827_40:
  7815  000E5C  0E00               	movlw	0
  7816  000E5E                     i2u828_40:
  7817  000E5E  0100               	movlb	0	; () banked
  7818  000E60  6FDB               	movwf	_volta23& (0+255),b
  7819  000E62  6BDC               	clrf	(_volta23+1)& (0+255),b
  7820                           
  7821                           ;main.c: 658: if (sinal_fase == 0)
  7822  000E64  0100               	movlb	0	; () banked
  7823  000E66  51BB               	movf	_sinal_fase& (0+255),w,b
  7824  000E68  0100               	movlb	0	; () banked
  7825  000E6A  11BC               	iorwf	(_sinal_fase+1)& (0+255),w,b
  7826  000E6C  A4D8               	btfss	status,2,c
  7827  000E6E  D00A               	goto	i2l7025
  7828                           
  7829                           ; BSR set to: 0
  7830                           ;main.c: 659: volta23 = !volta23;
  7831  000E70  0100               	movlb	0	; () banked
  7832  000E72  51DB               	movf	_volta23& (0+255),w,b
  7833  000E74  0100               	movlb	0	; () banked
  7834  000E76  11DC               	iorwf	(_volta23+1)& (0+255),w,b
  7835  000E78  A4D8               	btfss	status,2,c
  7836  000E7A  D7CF               	goto	i2u823_40
  7837  000E7C                     i2u830_41:
  7838  000E7C  0E01               	movlw	1
  7839  000E7E                     i2u831_40:
  7840  000E7E  0100               	movlb	0	; () banked
  7841  000E80  6FDB               	movwf	_volta23& (0+255),b
  7842  000E82  6BDC               	clrf	(_volta23+1)& (0+255),b
  7843  000E84                     i2l7025:
  7844                           
  7845                           ; BSR set to: 0
  7846                           ;main.c: 660: }
  7847                           ;main.c: 662: ij23_pos = 0;
  7848  000E84  0E00               	movlw	0
  7849  000E86  0100               	movlb	0	; () banked
  7850  000E88  6FE0               	movwf	(_ij23_pos+1)& (0+255),b
  7851  000E8A  0E00               	movlw	0
  7852  000E8C  D7A7               	goto	L15
  7853  000E8E                     i2l7029:
  7854  000E8E  C0DF  F04F         	movff	_ij23_pos,??_isr2
  7855  000E92  C0E0  F050         	movff	_ij23_pos+1,??_isr2+1
  7856                           
  7857                           ; Switch on 2 bytes has been partitioned into a top level switch of size 1, and 1 sub-sw
      +                          itches
  7858                           ; Switch size 1, requested type "space"
  7859                           ; Number of cases is 1, Range of values is 0 to 0
  7860                           ; switch strategies available:
  7861                           ; Name         Instructions Cycles
  7862                           ; simple_byte            4     3 (average)
  7863                           ;	Chosen strategy is simple_byte
  7864  000E96  5050               	movf	??_isr2+1,w,c
  7865  000E98  0A00               	xorlw	0	; case 0
  7866  000E9A  A4D8               	btfss	status,2,c
  7867  000E9C  D010               	goto	i2l7031
  7868                           
  7869                           ; Switch size 1, requested type "space"
  7870                           ; Number of cases is 5, Range of values is 0 to 30
  7871                           ; switch strategies available:
  7872                           ; Name         Instructions Cycles
  7873                           ; simple_byte           16     9 (average)
  7874                           ;	Chosen strategy is simple_byte
  7875  000E9E  504F               	movf	??_isr2,w,c
  7876  000EA0  0A00               	xorlw	0	; case 0
  7877  000EA2  B4D8               	btfsc	status,2,c
  7878  000EA4  D00C               	goto	i2l7031
  7879  000EA6  0A02               	xorlw	2	; case 2
  7880  000EA8  B4D8               	btfsc	status,2,c
  7881  000EAA  D75F               	goto	i2l6981
  7882  000EAC  0A01               	xorlw	1	; case 3
  7883  000EAE  B4D8               	btfsc	status,2,c
  7884  000EB0  D779               	goto	i2l6995
  7885  000EB2  0A17               	xorlw	23	; case 20
  7886  000EB4  B4D8               	btfsc	status,2,c
  7887  000EB6  D794               	goto	i2l300
  7888  000EB8  0A0A               	xorlw	10	; case 30
  7889  000EBA  B4D8               	btfsc	status,2,c
  7890  000EBC  D7B0               	goto	i2l302
  7891  000EBE                     i2l7031:
  7892                           
  7893                           ;main.c: 666: d = 1;
  7894  000EBE  0E00               	movlw	0
  7895  000EC0  0101               	movlb	1	; () banked
  7896  000EC2  6F63               	movwf	(_d+1)& (0+255),b
  7897  000EC4  0E01               	movlw	1
  7898  000EC6  6F62               	movwf	_d& (0+255),b
  7899  000EC8                     i2l305:
  7900  000EC8  C05E  FFF5         	movff	??_isr2+15,tablat
  7901  000ECC  C05D  FFF8         	movff	??_isr2+14,tblptru
  7902  000ED0  C05C  FFF7         	movff	??_isr2+13,tblptrh
  7903  000ED4  C05B  FFF6         	movff	??_isr2+12,tblptrl
  7904  000ED8  C05A  FFF4         	movff	??_isr2+11,prodh
  7905  000EDC  C059  FFF3         	movff	??_isr2+10,prodl
  7906  000EE0  C058  FFDA         	movff	??_isr2+9,fsr2h
  7907  000EE4  C057  FFD9         	movff	??_isr2+8,fsr2l
  7908  000EE8  C056  FFE2         	movff	??_isr2+7,fsr1h
  7909  000EEC  C055  FFE1         	movff	??_isr2+6,fsr1l
  7910  000EF0  C054  FFEA         	movff	??_isr2+5,fsr0h
  7911  000EF4  C053  FFE9         	movff	??_isr2+4,fsr0l
  7912  000EF8  C052  FFFB         	movff	??_isr2+3,pclatu
  7913  000EFC  C051  FFFA         	movff	??_isr2+2,pclath
  7914  000F00  925F               	bcf	btemp,1,c	;clear compiler interrupt flag (level 2)
  7915  000F02  0011               	retfie		f
  7916  000F04                     __end_of_isr2:
  7917                           	opt stack 0
  7918                           stkptr	equ	0xFFC
  7919                           pclatu	equ	0xFFB
  7920                           pclath	equ	0xFFA
  7921                           tblptru	equ	0xFF8
  7922                           tblptrh	equ	0xFF7
  7923                           tblptrl	equ	0xFF6
  7924                           tablat	equ	0xFF5
  7925                           prodh	equ	0xFF4
  7926                           prodl	equ	0xFF3
  7927                           intcon	equ	0xFF2
  7928                           intcon2	equ	0xFF1
  7929                           postinc0	equ	0xFEE
  7930                           fsr0h	equ	0xFEA
  7931                           fsr0l	equ	0xFE9
  7932                           wreg	equ	0xFE8
  7933                           postdec1	equ	0xFE5
  7934                           fsr1h	equ	0xFE2
  7935                           fsr1l	equ	0xFE1
  7936                           bsr	equ	0xFE0
  7937                           fsr2h	equ	0xFDA
  7938                           fsr2l	equ	0xFD9
  7939                           status	equ	0xFD8
  7940                           
  7941 ;; *************** function i2_Set_Timer5 *****************
  7942 ;; Defined at:
  7943 ;;		line 112 in file "TIMERS_XC8.c"
  7944 ;; Parameters:    Size  Location     Type
  7945 ;;  data_timer      2    0[COMRAM] unsigned int 
  7946 ;; Auto vars:     Size  Location     Type
  7947 ;;		None
  7948 ;; Return value:  Size  Location     Type
  7949 ;;                  1    wreg      void 
  7950 ;; Registers used:
  7951 ;;		wreg, status,2
  7952 ;; Tracked objects:
  7953 ;;		On entry : 0/0
  7954 ;;		On exit  : 0/0
  7955 ;;		Unchanged: 0/0
  7956 ;; Data sizes:     COMRAM   BANK0   BANK1   BANK2   BANK3   BANK4   BANK5   BANK6   BANK7   BANK8   BANK9  BANK10  BANK1
      +1  BANK12  BANK13  BANK14  BANK15
  7957 ;;      Params:         2       0       0       0       0       0       0       0       0       0       0       0       
      +0       0       0       0       0
  7958 ;;      Locals:         0       0       0       0       0       0       0       0       0       0       0       0       
      +0       0       0       0       0
  7959 ;;      Temps:          0       0       0       0       0       0       0       0       0       0       0       0       
      +0       0       0       0       0
  7960 ;;      Totals:         2       0       0       0       0       0       0       0       0       0       0       0       
      +0       0       0       0       0
  7961 ;;Total ram usage:        2 bytes
  7962 ;; Hardware stack levels used:    1
  7963 ;; This function calls:
  7964 ;;		Nothing
  7965 ;; This function is called by:
  7966 ;;		_isr2
  7967 ;; This function uses a non-reentrant model
  7968 ;;
  7969                           
  7970                           	psect	text23
  7971  00343A                     __ptext23:
  7972                           	opt stack 0
  7973  00343A                     i2_Set_Timer5:
  7974                           	opt stack 25
  7975                           
  7976                           ;TIMERS_XC8.c: 114: TMR5H = data_timer >> 8;
  7977                           
  7978                           ;incstack = 0
  7979  00343A  5002               	movf	i2Set_Timer5@data_timer+1,w,c
  7980  00343C  010F               	movlb	15	; () banked
  7981  00343E  6F50               	movwf	80,b	;volatile
  7982                           
  7983                           ; BSR set to: 15
  7984                           ;TIMERS_XC8.c: 115: TMR5L = data_timer & 0x00FF;
  7985  003440  C001  FF4F         	movff	i2Set_Timer5@data_timer,3919	;volatile
  7986                           
  7987                           ; BSR set to: 15
  7988  003444  0012               	return		;funcret
  7989  003446                     __end_ofi2_Set_Timer5:
  7990                           	opt stack 0
  7991                           stkptr	equ	0xFFC
  7992                           pclatu	equ	0xFFB
  7993                           pclath	equ	0xFFA
  7994                           tblptru	equ	0xFF8
  7995                           tblptrh	equ	0xFF7
  7996                           tblptrl	equ	0xFF6
  7997                           tablat	equ	0xFF5
  7998                           prodh	equ	0xFF4
  7999                           prodl	equ	0xFF3
  8000                           intcon	equ	0xFF2
  8001                           intcon2	equ	0xFF1
  8002                           postinc0	equ	0xFEE
  8003                           fsr0h	equ	0xFEA
  8004                           fsr0l	equ	0xFE9
  8005                           wreg	equ	0xFE8
  8006                           postdec1	equ	0xFE5
  8007                           fsr1h	equ	0xFE2
  8008                           fsr1l	equ	0xFE1
  8009                           bsr	equ	0xFE0
  8010                           fsr2h	equ	0xFDA
  8011                           fsr2l	equ	0xFD9
  8012                           status	equ	0xFD8
  8013                           
  8014 ;; *************** function _conta_dente *****************
  8015 ;; Defined at:
  8016 ;;		line 697 in file "main.c"
  8017 ;; Parameters:    Size  Location     Type
  8018 ;;		None
  8019 ;; Auto vars:     Size  Location     Type
  8020 ;;		None
  8021 ;; Return value:  Size  Location     Type
  8022 ;;                  1    wreg      void 
  8023 ;; Registers used:
  8024 ;;		wreg, fsr2l, fsr2h, status,2, status,0, prodl, prodh, cstack
  8025 ;; Tracked objects:
  8026 ;;		On entry : 0/0
  8027 ;;		On exit  : 0/0
  8028 ;;		Unchanged: 0/0
  8029 ;; Data sizes:     COMRAM   BANK0   BANK1   BANK2   BANK3   BANK4   BANK5   BANK6   BANK7   BANK8   BANK9  BANK10  BANK1
      +1  BANK12  BANK13  BANK14  BANK15
  8030 ;;      Params:         0       0       0       0       0       0       0       0       0       0       0       0       
      +0       0       0       0       0
  8031 ;;      Locals:         0       0       0       0       0       0       0       0       0       0       0       0       
      +0       0       0       0       0
  8032 ;;      Temps:          4       0       0       0       0       0       0       0       0       0       0       0       
      +0       0       0       0       0
  8033 ;;      Totals:         4       0       0       0       0       0       0       0       0       0       0       0       
      +0       0       0       0       0
  8034 ;;Total ram usage:        4 bytes
  8035 ;; Hardware stack levels used:    1
  8036 ;; Hardware stack levels required when called:    3
  8037 ;; This function calls:
  8038 ;;		_Get_Timer1
  8039 ;;		_I2C_Leitura_Multiplos_Endereco
  8040 ;;		_Make_16
  8041 ;;		_Set_Timer0
  8042 ;;		_Set_Timer2
  8043 ;;		_Set_Timer3
  8044 ;;		___awdiv
  8045 ;;		i2_Set_Timer1
  8046 ;;		i2___fldiv
  8047 ;;		i2___flmul
  8048 ;;		i2___fltol
  8049 ;;		i2___xxtofl
  8050 ;; This function is called by:
  8051 ;;		_isr2
  8052 ;; This function uses a non-reentrant model
  8053 ;;
  8054                           
  8055                           	psect	text24
  8056  000116                     __ptext24:
  8057                           	opt stack 0
  8058  000116                     _conta_dente:
  8059                           	opt stack 22
  8060                           
  8061                           ;main.c: 699: dente++;
  8062                           
  8063                           ; BSR set to: 15
  8064                           ;incstack = 0
  8065  000116  0100               	movlb	0	; () banked
  8066  000118  4BE5               	infsnz	_dente& (0+255),f,b
  8067  00011A  2BE6               	incf	(_dente+1)& (0+255),f,b
  8068                           
  8069                           ; BSR set to: 0
  8070                           ;main.c: 700: if (dente == 3)
  8071  00011C  0E03               	movlw	3
  8072  00011E  0100               	movlb	0	; () banked
  8073  000120  19E5               	xorwf	_dente& (0+255),w,b
  8074  000122  0100               	movlb	0	; () banked
  8075  000124  11E6               	iorwf	(_dente+1)& (0+255),w,b
  8076  000126  A4D8               	btfss	status,2,c
  8077  000128  D046               	goto	i2l6513
  8078                           
  8079                           ; BSR set to: 0
  8080                           ;main.c: 701: {
  8081                           ;main.c: 702: periodo_peralta = Get_Timer1();
  8082  00012A  EC94  F019         	call	_Get_Timer1	;wreg free
  8083  00012E  C001  F16A         	movff	?_Get_Timer1,_periodo_peralta
  8084  000132  C002  F16B         	movff	?_Get_Timer1+1,_periodo_peralta+1
  8085  000136  0101               	movlb	1	; () banked
  8086  000138  6B6C               	clrf	(_periodo_peralta+2)& (0+255),b
  8087  00013A  6B6D               	clrf	(_periodo_peralta+3)& (0+255),b
  8088                           
  8089                           ; BSR set to: 1
  8090                           ;main.c: 703: rotacao_peralta = 1 / (periodo_peralta * 0.0000004);
  8091  00013C  0E95               	movlw	149
  8092  00013E  6E13               	movwf	i2___flmul@a,c
  8093  000140  0EBF               	movlw	191
  8094  000142  6E14               	movwf	i2___flmul@a+1,c
  8095  000144  0ED6               	movlw	214
  8096  000146  6E15               	movwf	i2___flmul@a+2,c
  8097  000148  0E34               	movlw	52
  8098  00014A  6E16               	movwf	i2___flmul@a+3,c
  8099  00014C  C16A  F001         	movff	_periodo_peralta,i2___xxtofl@val
  8100  000150  C16B  F002         	movff	_periodo_peralta+1,i2___xxtofl@val+1
  8101  000154  C16C  F003         	movff	_periodo_peralta+2,i2___xxtofl@val+2
  8102  000158  C16D  F004         	movff	_periodo_peralta+3,i2___xxtofl@val+3
  8103  00015C  0E01               	movlw	1
  8104  00015E  EC51  F016         	call	i2___xxtofl
  8105  000162  C001  F00F         	movff	?i2___xxtofl,i2___flmul@b
  8106  000166  C002  F010         	movff	?i2___xxtofl+1,i2___flmul@b+1
  8107  00016A  C003  F011         	movff	?i2___xxtofl+2,i2___flmul@b+2
  8108  00016E  C004  F012         	movff	?i2___xxtofl+3,i2___flmul@b+3
  8109  000172  EC76  F010         	call	i2___flmul	;wreg free
  8110  000176  C00F  F02C         	movff	?i2___flmul,i2___fldiv@a
  8111  00017A  C010  F02D         	movff	?i2___flmul+1,i2___fldiv@a+1
  8112  00017E  C011  F02E         	movff	?i2___flmul+2,i2___fldiv@a+2
  8113  000182  C012  F02F         	movff	?i2___flmul+3,i2___fldiv@a+3
  8114  000186  0E00               	movlw	0
  8115  000188  6E28               	movwf	i2___fldiv@b,c
  8116  00018A  0E00               	movlw	0
  8117  00018C  6E29               	movwf	i2___fldiv@b+1,c
  8118  00018E  0E80               	movlw	128
  8119  000190  6E2A               	movwf	i2___fldiv@b+2,c
  8120  000192  0E3F               	movlw	63
  8121  000194  6E2B               	movwf	i2___fldiv@b+3,c
  8122  000196  EC1E  F012         	call	i2___fldiv	;wreg free
  8123  00019A  C028  F041         	movff	?i2___fldiv,i2___fltol@f1
  8124  00019E  C029  F042         	movff	?i2___fldiv+1,i2___fltol@f1+1
  8125  0001A2  C02A  F043         	movff	?i2___fldiv+2,i2___fltol@f1+2
  8126  0001A6  C02B  F044         	movff	?i2___fldiv+3,i2___fltol@f1+3
  8127  0001AA  EC0C  F018         	call	i2___fltol	;wreg free
  8128  0001AE  C041  F0CB         	movff	?i2___fltol,_rotacao_peralta
  8129  0001B2  C042  F0CC         	movff	?i2___fltol+1,_rotacao_peralta+1
  8130  0001B6                     i2l6513:
  8131                           
  8132                           ;main.c: 704: }
  8133                           ;main.c: 705: Set_Timer1(0);
  8134  0001B6  0E00               	movlw	0
  8135  0001B8  6E02               	movwf	i2Set_Timer1@data_timer+1,c
  8136  0001BA  0E00               	movlw	0
  8137  0001BC  6E01               	movwf	i2Set_Timer1@data_timer,c
  8138  0001BE  EC29  F01A         	call	i2_Set_Timer1	;wreg free
  8139                           
  8140                           ;main.c: 708: if (falha_ok == 0) return;
  8141  0001C2  0101               	movlb	1	; () banked
  8142  0001C4  5154               	movf	_falha_ok& (0+255),w,b
  8143  0001C6  0101               	movlb	1	; () banked
  8144  0001C8  1155               	iorwf	(_falha_ok+1)& (0+255),w,b
  8145  0001CA  B4D8               	btfsc	status,2,c
  8146  0001CC  0012               	return	
  8147                           
  8148                           ; BSR set to: 1
  8149                           ;main.c: 716: if (dente == 3)
  8150                           
  8151                           ; BSR set to: 1
  8152                           
  8153                           ; BSR set to: 1
  8154  0001CE  0E03               	movlw	3
  8155  0001D0  0100               	movlb	0	; () banked
  8156  0001D2  19E5               	xorwf	_dente& (0+255),w,b
  8157  0001D4  0100               	movlb	0	; () banked
  8158  0001D6  11E6               	iorwf	(_dente+1)& (0+255),w,b
  8159  0001D8  A4D8               	btfss	status,2,c
  8160  0001DA  D02A               	goto	i2l6545
  8161                           
  8162                           ; BSR set to: 0
  8163                           ;main.c: 717: {
  8164                           ;main.c: 719: if(voltai2c == 0)
  8165  0001DC  0100               	movlb	0	; () banked
  8166  0001DE  51E7               	movf	_voltai2c& (0+255),w,b
  8167  0001E0  A4D8               	btfss	status,2,c
  8168  0001E2  D002               	goto	i2l6525
  8169                           
  8170                           ; BSR set to: 0
  8171                           ;main.c: 720: voltai2c = 1;
  8172  0001E4  0E01               	movlw	1
  8173  0001E6  D00C               	goto	L17
  8174  0001E8                     i2l6525:
  8175                           
  8176                           ; BSR set to: 0
  8177                           ;main.c: 721: else if(voltai2c == 1)
  8178  0001E8  0100               	movlb	0	; () banked
  8179  0001EA  05E7               	decf	_voltai2c& (0+255),w,b
  8180  0001EC  A4D8               	btfss	status,2,c
  8181  0001EE  D002               	goto	i2l6529
  8182                           
  8183                           ; BSR set to: 0
  8184                           ;main.c: 722: voltai2c = 2;
  8185  0001F0  0E02               	movlw	2
  8186  0001F2  D006               	goto	L17
  8187  0001F4                     i2l6529:
  8188                           
  8189                           ; BSR set to: 0
  8190                           ;main.c: 723: else if(voltai2c == 2)
  8191  0001F4  0E02               	movlw	2
  8192  0001F6  0100               	movlb	0	; () banked
  8193  0001F8  19E7               	xorwf	_voltai2c& (0+255),w,b
  8194  0001FA  A4D8               	btfss	status,2,c
  8195  0001FC  D004               	goto	i2l6533
  8196                           
  8197                           ; BSR set to: 0
  8198                           ;main.c: 724: voltai2c = 3;
  8199  0001FE  0E03               	movlw	3
  8200  000200                     L17:
  8201  000200  0100               	movlb	0	; () banked
  8202  000202  6FE7               	movwf	_voltai2c& (0+255),b
  8203  000204  D009               	goto	i2l6539
  8204  000206                     i2l6533:
  8205                           
  8206                           ; BSR set to: 0
  8207                           ;main.c: 725: else if(voltai2c == 3)
  8208  000206  0E03               	movlw	3
  8209  000208  0100               	movlb	0	; () banked
  8210  00020A  19E7               	xorwf	_voltai2c& (0+255),w,b
  8211  00020C  A4D8               	btfss	status,2,c
  8212  00020E  D004               	goto	i2l6539
  8213                           
  8214                           ; BSR set to: 0
  8215                           ;main.c: 726: {
  8216                           ;main.c: 727: voltai2c = 2;
  8217  000210  0E02               	movlw	2
  8218  000212  0100               	movlb	0	; () banked
  8219  000214  6FE7               	movwf	_voltai2c& (0+255),b
  8220                           
  8221                           ; BSR set to: 0
  8222                           ;main.c: 728: LATAbits.LATA2 = 1;
  8223  000216  8489               	bsf	3977,2,c	;volatile
  8224  000218                     i2l6539:
  8225                           
  8226                           ; BSR set to: 0
  8227                           ;main.c: 729: }
  8228                           ;main.c: 731: if (!PORTEbits.RE2)
  8229  000218  B484               	btfsc	3972,2,c	;volatile
  8230  00021A  D005               	goto	i2l6543
  8231                           
  8232                           ; BSR set to: 0
  8233                           ;main.c: 732: sinal_fase = 1;
  8234  00021C  0E00               	movlw	0
  8235  00021E  0100               	movlb	0	; () banked
  8236  000220  6FBC               	movwf	(_sinal_fase+1)& (0+255),b
  8237  000222  0E01               	movlw	1
  8238  000224  D004               	goto	L18
  8239  000226                     i2l6543:
  8240                           
  8241                           ; BSR set to: 0
  8242                           ;main.c: 733: else sinal_fase = 0;
  8243  000226  0E00               	movlw	0
  8244  000228  0100               	movlb	0	; () banked
  8245  00022A  6FBC               	movwf	(_sinal_fase+1)& (0+255),b
  8246  00022C  0E00               	movlw	0
  8247  00022E                     L18:
  8248  00022E  6FBB               	movwf	_sinal_fase& (0+255),b
  8249  000230                     i2l6545:
  8250                           
  8251                           ; BSR set to: 0
  8252                           ;main.c: 734: }
  8253                           ;main.c: 735: if (dente == 30)
  8254  000230  0E1E               	movlw	30
  8255  000232  0100               	movlb	0	; () banked
  8256  000234  19E5               	xorwf	_dente& (0+255),w,b
  8257  000236  0100               	movlb	0	; () banked
  8258  000238  11E6               	iorwf	(_dente+1)& (0+255),w,b
  8259  00023A  A4D8               	btfss	status,2,c
  8260  00023C  D2C0               	goto	i2l6705
  8261                           
  8262                           ; BSR set to: 0
  8263                           ;main.c: 736: {
  8264                           ;main.c: 738: ig_dente_14_ant = ig_dente_14;
  8265  00023E  C0D1  F0CF         	movff	_ig_dente_14,_ig_dente_14_ant
  8266  000242  C0D2  F0D0         	movff	_ig_dente_14+1,_ig_dente_14_ant+1
  8267                           
  8268                           ;main.c: 739: ig_dente_23_ant = ig_dente_23;
  8269  000246  C0D5  F0D3         	movff	_ig_dente_23,_ig_dente_23_ant
  8270  00024A  C0D6  F0D4         	movff	_ig_dente_23+1,_ig_dente_23_ant+1
  8271                           
  8272                           ;main.c: 740: ij_dente_14_ant = ij_dente_14;
  8273  00024E  C0C9  F0C7         	movff	_ij_dente_14,_ij_dente_14_ant
  8274  000252  C0CA  F0C8         	movff	_ij_dente_14+1,_ij_dente_14_ant+1
  8275                           
  8276                           ;main.c: 741: ij_dente_23_ant = ij_dente_23;
  8277  000256  C0C5  F0C3         	movff	_ij_dente_23,_ij_dente_23_ant
  8278  00025A  C0C6  F0C4         	movff	_ij_dente_23+1,_ij_dente_23_ant+1
  8279                           
  8280                           ;main.c: 742: rotacao_ant = rotacao;
  8281  00025E  C0BF  F0BD         	movff	_rotacao,_rotacao_ant
  8282  000262  C0C0  F0BE         	movff	_rotacao+1,_rotacao_ant+1
  8283                           
  8284                           ; BSR set to: 0
  8285                           ;main.c: 745: ig_dente_14 = 25;
  8286  000266  0E00               	movlw	0
  8287  000268  0100               	movlb	0	; () banked
  8288  00026A  6FD2               	movwf	(_ig_dente_14+1)& (0+255),b
  8289  00026C  0E19               	movlw	25
  8290  00026E  6FD1               	movwf	_ig_dente_14& (0+255),b
  8291                           
  8292                           ; BSR set to: 0
  8293                           ;main.c: 750: if (Chave_controle_geral == 1)
  8294  000270  0100               	movlb	0	; () banked
  8295  000272  A1E8               	btfss	(_Chave_controle_geral/(0+8))& (0+255),_Chave_controle_geral& (0+7),b
  8296  000274  D005               	goto	i2l328
  8297                           
  8298                           ; BSR set to: 0
  8299                           ;main.c: 751: {
  8300                           ;main.c: 752: ig_dente_14 = dente_subida_inteiro;
  8301  000276  C0CD  F0D1         	movff	_dente_subida_inteiro,_ig_dente_14
  8302  00027A  C0CE  F0D2         	movff	_dente_subida_inteiro+1,_ig_dente_14+1
  8303                           
  8304                           ;main.c: 754: }
  8305  00027E  D004               	goto	i2l6555
  8306  000280                     i2l328:
  8307                           
  8308                           ; BSR set to: 0
  8309                           ;main.c: 755: else
  8310                           ;main.c: 756: {
  8311                           ;main.c: 757: ig_dente_14 = buffer_read[0];
  8312  000280  C118  F0D1         	movff	_buffer_read,_ig_dente_14
  8313  000284  0100               	movlb	0	; () banked
  8314  000286  6BD2               	clrf	(_ig_dente_14+1)& (0+255),b
  8315  000288                     i2l6555:
  8316                           
  8317                           ; BSR set to: 0
  8318                           ;main.c: 759: }
  8319                           ;main.c: 762: if ((ig_dente_14 <= 1) || (ig_dente_14 >= 58))
  8320  000288  0100               	movlb	0	; () banked
  8321  00028A  BFD2               	btfsc	(_ig_dente_14+1)& (0+255),7,b
  8322  00028C  D013               	goto	i2l6559
  8323  00028E  0100               	movlb	0	; () banked
  8324  000290  51D2               	movf	(_ig_dente_14+1)& (0+255),w,b
  8325  000292  E105               	bnz	i2u736_40
  8326  000294  0E02               	movlw	2
  8327  000296  0100               	movlb	0	; () banked
  8328  000298  5DD1               	subwf	_ig_dente_14& (0+255),w,b
  8329  00029A  A0D8               	btfss	status,0,c
  8330  00029C  D00B               	goto	i2l6559
  8331  00029E                     i2u736_40:
  8332                           
  8333                           ; BSR set to: 0
  8334  00029E  0100               	movlb	0	; () banked
  8335  0002A0  BFD2               	btfsc	(_ig_dente_14+1)& (0+255),7,b
  8336  0002A2  D013               	goto	i2l6561
  8337  0002A4  0100               	movlb	0	; () banked
  8338  0002A6  51D2               	movf	(_ig_dente_14+1)& (0+255),w,b
  8339  0002A8  E105               	bnz	i2l6559
  8340  0002AA  0E3A               	movlw	58
  8341  0002AC  0100               	movlb	0	; () banked
  8342  0002AE  5DD1               	subwf	_ig_dente_14& (0+255),w,b
  8343  0002B0  A0D8               	btfss	status,0,c
  8344  0002B2  D00B               	goto	i2l6561
  8345  0002B4                     i2l6559:
  8346                           
  8347                           ; BSR set to: 0
  8348                           ;main.c: 763: {
  8349                           ;main.c: 768: ig_dente_14 = 1;
  8350  0002B4  0E00               	movlw	0
  8351  0002B6  0100               	movlb	0	; () banked
  8352  0002B8  6FD2               	movwf	(_ig_dente_14+1)& (0+255),b
  8353  0002BA  0E01               	movlw	1
  8354  0002BC  6FD1               	movwf	_ig_dente_14& (0+255),b
  8355                           
  8356                           ;main.c: 769: ig_dente_23 = 31;
  8357  0002BE  0E00               	movlw	0
  8358  0002C0  0100               	movlb	0	; () banked
  8359  0002C2  6FD6               	movwf	(_ig_dente_23+1)& (0+255),b
  8360  0002C4  0E1F               	movlw	31
  8361  0002C6  6FD5               	movwf	_ig_dente_23& (0+255),b
  8362                           
  8363                           ;main.c: 770: }
  8364  0002C8  D01A               	goto	i2l333
  8365  0002CA                     i2l6561:
  8366                           
  8367                           ; BSR set to: 0
  8368                           ;main.c: 771: else
  8369                           ;main.c: 772: {
  8370                           ;main.c: 773: ig_dente_23 = ig_dente_14 + 30;
  8371  0002CA  0E1E               	movlw	30
  8372  0002CC  0100               	movlb	0	; () banked
  8373  0002CE  25D1               	addwf	_ig_dente_14& (0+255),w,b
  8374  0002D0  0100               	movlb	0	; () banked
  8375  0002D2  6FD5               	movwf	_ig_dente_23& (0+255),b
  8376  0002D4  0E00               	movlw	0
  8377  0002D6  0100               	movlb	0	; () banked
  8378  0002D8  21D2               	addwfc	(_ig_dente_14+1)& (0+255),w,b
  8379  0002DA  0100               	movlb	0	; () banked
  8380  0002DC  6FD6               	movwf	(_ig_dente_23+1)& (0+255),b
  8381                           
  8382                           ;main.c: 774: if (ig_dente_23 > 60) ig_dente_23 -= 60;
  8383  0002DE  0100               	movlb	0	; () banked
  8384  0002E0  BFD6               	btfsc	(_ig_dente_23+1)& (0+255),7,b
  8385  0002E2  D00D               	goto	i2l333
  8386  0002E4  0100               	movlb	0	; () banked
  8387  0002E6  51D6               	movf	(_ig_dente_23+1)& (0+255),w,b
  8388  0002E8  E105               	bnz	i2u738_40
  8389  0002EA  0E3D               	movlw	61
  8390  0002EC  0100               	movlb	0	; () banked
  8391  0002EE  5DD5               	subwf	_ig_dente_23& (0+255),w,b
  8392  0002F0  A0D8               	btfss	status,0,c
  8393  0002F2  D005               	goto	i2l333
  8394  0002F4                     i2u738_40:
  8395                           
  8396                           ; BSR set to: 0
  8397  0002F4  0100               	movlb	0	; () banked
  8398  0002F6  0EC4               	movlw	196
  8399  0002F8  27D5               	addwf	_ig_dente_23& (0+255),f,b
  8400  0002FA  0EFF               	movlw	255
  8401  0002FC  23D6               	addwfc	(_ig_dente_23+1)& (0+255),f,b
  8402  0002FE                     i2l333:
  8403                           
  8404                           ; BSR set to: 0
  8405                           ;main.c: 775: }
  8406                           ;main.c: 778: if (cutoff == 1)
  8407  0002FE  0100               	movlb	0	; () banked
  8408  000300  05B9               	decf	_cutoff& (0+255),w,b
  8409  000302  0100               	movlb	0	; () banked
  8410  000304  11BA               	iorwf	(_cutoff+1)& (0+255),w,b
  8411  000306  A4D8               	btfss	status,2,c
  8412  000308  D009               	goto	i2l335
  8413                           
  8414                           ; BSR set to: 0
  8415                           ;main.c: 779: {
  8416                           ;main.c: 780: ij_dente_14 = 255;
  8417  00030A  0E00               	movlw	0
  8418  00030C  0100               	movlb	0	; () banked
  8419  00030E  6FCA               	movwf	(_ij_dente_14+1)& (0+255),b
  8420  000310  69C9               	setf	_ij_dente_14& (0+255),b
  8421                           
  8422                           ;main.c: 781: ij_dente_23 = 255;
  8423  000312  0E00               	movlw	0
  8424  000314  0100               	movlb	0	; () banked
  8425  000316  6FC6               	movwf	(_ij_dente_23+1)& (0+255),b
  8426  000318  69C5               	setf	_ij_dente_23& (0+255),b
  8427                           
  8428                           ;main.c: 782: }
  8429  00031A  D004               	goto	i2l6567
  8430  00031C                     i2l335:
  8431                           
  8432                           ; BSR set to: 0
  8433                           ;main.c: 783: else
  8434                           ;main.c: 784: {
  8435                           ;main.c: 785: ij_dente_14 = buffer_read[4];
  8436  00031C  C11C  F0C9         	movff	_buffer_read+4,_ij_dente_14
  8437  000320  0100               	movlb	0	; () banked
  8438  000322  6BCA               	clrf	(_ij_dente_14+1)& (0+255),b
  8439  000324                     i2l6567:
  8440                           
  8441                           ; BSR set to: 0
  8442                           ;main.c: 786: }
  8443                           ;main.c: 788: if (((ij_dente_14 <= 1) || (ij_dente_14 >= 58)) && cutoff == 0)
  8444  000324  0100               	movlb	0	; () banked
  8445  000326  BFCA               	btfsc	(_ij_dente_14+1)& (0+255),7,b
  8446  000328  D013               	goto	i2l6571
  8447  00032A  0100               	movlb	0	; () banked
  8448  00032C  51CA               	movf	(_ij_dente_14+1)& (0+255),w,b
  8449  00032E  E105               	bnz	i2u740_40
  8450  000330  0E02               	movlw	2
  8451  000332  0100               	movlb	0	; () banked
  8452  000334  5DC9               	subwf	_ij_dente_14& (0+255),w,b
  8453  000336  A0D8               	btfss	status,0,c
  8454  000338  D00B               	goto	i2l6571
  8455  00033A                     i2u740_40:
  8456                           
  8457                           ; BSR set to: 0
  8458  00033A  0100               	movlb	0	; () banked
  8459  00033C  BFCA               	btfsc	(_ij_dente_14+1)& (0+255),7,b
  8460  00033E  D019               	goto	i2l6575
  8461  000340  0100               	movlb	0	; () banked
  8462  000342  51CA               	movf	(_ij_dente_14+1)& (0+255),w,b
  8463  000344  E105               	bnz	i2l6571
  8464  000346  0E3A               	movlw	58
  8465  000348  0100               	movlb	0	; () banked
  8466  00034A  5DC9               	subwf	_ij_dente_14& (0+255),w,b
  8467  00034C  A0D8               	btfss	status,0,c
  8468  00034E  D011               	goto	i2l6575
  8469  000350                     i2l6571:
  8470                           
  8471                           ; BSR set to: 0
  8472  000350  0100               	movlb	0	; () banked
  8473  000352  51B9               	movf	_cutoff& (0+255),w,b
  8474  000354  0100               	movlb	0	; () banked
  8475  000356  11BA               	iorwf	(_cutoff+1)& (0+255),w,b
  8476  000358  A4D8               	btfss	status,2,c
  8477  00035A  D00B               	goto	i2l6575
  8478                           
  8479                           ; BSR set to: 0
  8480                           ;main.c: 789: {
  8481                           ;main.c: 797: ij_dente_14 = 1;
  8482  00035C  0E00               	movlw	0
  8483  00035E  0100               	movlb	0	; () banked
  8484  000360  6FCA               	movwf	(_ij_dente_14+1)& (0+255),b
  8485  000362  0E01               	movlw	1
  8486  000364  6FC9               	movwf	_ij_dente_14& (0+255),b
  8487                           
  8488                           ;main.c: 798: ij_dente_23 = 31;
  8489  000366  0E00               	movlw	0
  8490  000368  0100               	movlb	0	; () banked
  8491  00036A  6FC6               	movwf	(_ij_dente_23+1)& (0+255),b
  8492  00036C  0E1F               	movlw	31
  8493  00036E  6FC5               	movwf	_ij_dente_23& (0+255),b
  8494                           
  8495                           ;main.c: 800: }
  8496  000370  D025               	goto	i2l6583
  8497  000372                     i2l6575:
  8498                           
  8499                           ; BSR set to: 0
  8500                           ;main.c: 801: else
  8501                           ;main.c: 802: if (cutoff == 0)
  8502  000372  0100               	movlb	0	; () banked
  8503  000374  51B9               	movf	_cutoff& (0+255),w,b
  8504  000376  0100               	movlb	0	; () banked
  8505  000378  11BA               	iorwf	(_cutoff+1)& (0+255),w,b
  8506  00037A  A4D8               	btfss	status,2,c
  8507  00037C  D01F               	goto	i2l6583
  8508                           
  8509                           ; BSR set to: 0
  8510                           ;main.c: 803: {
  8511                           ;main.c: 804: ij_dente_23 = ij_dente_14 + 30;
  8512  00037E  0E1E               	movlw	30
  8513  000380  0100               	movlb	0	; () banked
  8514  000382  25C9               	addwf	_ij_dente_14& (0+255),w,b
  8515  000384  0100               	movlb	0	; () banked
  8516  000386  6FC5               	movwf	_ij_dente_23& (0+255),b
  8517  000388  0E00               	movlw	0
  8518  00038A  0100               	movlb	0	; () banked
  8519  00038C  21CA               	addwfc	(_ij_dente_14+1)& (0+255),w,b
  8520  00038E  0100               	movlb	0	; () banked
  8521  000390  6FC6               	movwf	(_ij_dente_23+1)& (0+255),b
  8522                           
  8523                           ;main.c: 805: if (ij_dente_23 > 60) ij_dente_23 -= 60;
  8524  000392  0100               	movlb	0	; () banked
  8525  000394  BFC6               	btfsc	(_ij_dente_23+1)& (0+255),7,b
  8526  000396  D00D               	goto	i2l6581
  8527  000398  0100               	movlb	0	; () banked
  8528  00039A  51C6               	movf	(_ij_dente_23+1)& (0+255),w,b
  8529  00039C  E105               	bnz	i2u744_40
  8530  00039E  0E3D               	movlw	61
  8531  0003A0  0100               	movlb	0	; () banked
  8532  0003A2  5DC5               	subwf	_ij_dente_23& (0+255),w,b
  8533  0003A4  A0D8               	btfss	status,0,c
  8534  0003A6  D005               	goto	i2l6581
  8535  0003A8                     i2u744_40:
  8536                           
  8537                           ; BSR set to: 0
  8538  0003A8  0100               	movlb	0	; () banked
  8539  0003AA  0EC4               	movlw	196
  8540  0003AC  27C5               	addwf	_ij_dente_23& (0+255),f,b
  8541  0003AE  0EFF               	movlw	255
  8542  0003B0  23C6               	addwfc	(_ij_dente_23+1)& (0+255),f,b
  8543  0003B2                     i2l6581:
  8544                           
  8545                           ; BSR set to: 0
  8546                           ;main.c: 807: cutoff = 0;
  8547  0003B2  0E00               	movlw	0
  8548  0003B4  0100               	movlb	0	; () banked
  8549  0003B6  6FBA               	movwf	(_cutoff+1)& (0+255),b
  8550  0003B8  0E00               	movlw	0
  8551  0003BA  6FB9               	movwf	_cutoff& (0+255),b
  8552  0003BC                     i2l6583:
  8553                           
  8554                           ; BSR set to: 0
  8555                           ;main.c: 809: }
  8556                           ;main.c: 810: if(voltai2c == 3)
  8557  0003BC  0E03               	movlw	3
  8558  0003BE  0100               	movlb	0	; () banked
  8559  0003C0  19E7               	xorwf	_voltai2c& (0+255),w,b
  8560  0003C2  A4D8               	btfss	status,2,c
  8561  0003C4  D00D               	goto	i2l6591
  8562                           
  8563                           ; BSR set to: 0
  8564                           ;main.c: 811: {
  8565                           ;main.c: 813: LATAbits.LATA2 = 0;
  8566  0003C6  9489               	bcf	3977,2,c	;volatile
  8567                           
  8568                           ; BSR set to: 0
  8569                           ;main.c: 814: I2C_Leitura_Multiplos_Endereco(0x30, 11, 0x60);
  8570  0003C8  0E0B               	movlw	11
  8571  0003CA  6E03               	movwf	I2C_Leitura_Multiplos_Endereco@cont_b,c
  8572  0003CC  0E60               	movlw	96
  8573  0003CE  6E04               	movwf	I2C_Leitura_Multiplos_Endereco@endereco,c
  8574  0003D0  0E30               	movlw	48
  8575  0003D2  ECBC  F018         	call	_I2C_Leitura_Multiplos_Endereco
  8576                           
  8577                           ;main.c: 815: Flag_I2c = 1;
  8578  0003D6  0E00               	movlw	0
  8579  0003D8  0101               	movlb	1	; () banked
  8580  0003DA  6F4D               	movwf	(_Flag_I2c+1)& (0+255),b
  8581  0003DC  0E01               	movlw	1
  8582  0003DE  6F4C               	movwf	_Flag_I2c& (0+255),b
  8583  0003E0                     i2l6591:
  8584                           
  8585                           ;main.c: 816: }
  8586                           ;main.c: 818: if (Flag_I2c)
  8587  0003E0  0101               	movlb	1	; () banked
  8588  0003E2  514C               	movf	_Flag_I2c& (0+255),w,b
  8589  0003E4  0101               	movlb	1	; () banked
  8590  0003E6  114D               	iorwf	(_Flag_I2c+1)& (0+255),w,b
  8591  0003E8  B4D8               	btfsc	status,2,c
  8592  0003EA  D083               	goto	i2l6611
  8593                           
  8594                           ; BSR set to: 1
  8595                           ;main.c: 819: {
  8596                           ;main.c: 821: if (Chave_controle_geral == 1)
  8597  0003EC  0100               	movlb	0	; () banked
  8598  0003EE  A1E8               	btfss	(_Chave_controle_geral/(0+8))& (0+255),_Chave_controle_geral& (0+7),b
  8599  0003F0  D005               	goto	i2l345
  8600                           
  8601                           ; BSR set to: 0
  8602                           ;main.c: 822: {
  8603                           ;main.c: 823: ig_tmr_disparo = ig_tmr_disparo_controle;
  8604  0003F2  C0D7  F0D9         	movff	_ig_tmr_disparo_controle,_ig_tmr_disparo
  8605  0003F6  C0D8  F0DA         	movff	_ig_tmr_disparo_controle+1,_ig_tmr_disparo+1
  8606                           
  8607                           ;main.c: 824: }
  8608  0003FA  D004               	goto	i2l6597
  8609  0003FC                     i2l345:
  8610                           
  8611                           ; BSR set to: 0
  8612                           ;main.c: 825: else
  8613                           ;main.c: 826: {
  8614                           ;main.c: 827: ig_tmr_disparo = buffer_read[8];
  8615  0003FC  C120  F0D9         	movff	_buffer_read+8,_ig_tmr_disparo
  8616  000400  0100               	movlb	0	; () banked
  8617  000402  6BDA               	clrf	(_ig_tmr_disparo+1)& (0+255),b
  8618  000404                     i2l6597:
  8619                           
  8620                           ; BSR set to: 0
  8621                           ;main.c: 828: }
  8622                           ;main.c: 833: ij_tmr_disparo = 65535 - Make_16(buffer_read[5], buffer_read[6]);
  8623  000404  C11E  F001         	movff	_buffer_read+6,Make_16@data2
  8624  000408  0101               	movlb	1	; () banked
  8625  00040A  511D               	movf	(_buffer_read+5)& (0+255),w,b
  8626  00040C  ECB2  F019         	call	_Make_16
  8627  000410  5001               	movf	?_Make_16,w,c
  8628  000412  6E4B               	movwf	??_conta_dente& (0+255),c
  8629  000414  5002               	movf	?_Make_16+1,w,c
  8630  000416  6E4C               	movwf	(??_conta_dente+1)& (0+255),c
  8631  000418  6A4D               	clrf	(??_conta_dente+2)& (0+255),c
  8632  00041A  6A4E               	clrf	(??_conta_dente+3)& (0+255),c
  8633  00041C  1E4B               	comf	??_conta_dente,f,c
  8634  00041E  1E4C               	comf	??_conta_dente+1,f,c
  8635  000420  1E4D               	comf	??_conta_dente+2,f,c
  8636  000422  1E4E               	comf	??_conta_dente+3,f,c
  8637  000424  2A4B               	incf	??_conta_dente,f,c
  8638  000426  0E00               	movlw	0
  8639  000428  224C               	addwfc	??_conta_dente+1,f,c
  8640  00042A  224D               	addwfc	??_conta_dente+2,f,c
  8641  00042C  224E               	addwfc	??_conta_dente+3,f,c
  8642  00042E  0EFF               	movlw	255
  8643  000430  244B               	addwf	??_conta_dente,w,c
  8644  000432  0100               	movlb	0	; () banked
  8645  000434  6FB3               	movwf	_ij_tmr_disparo& (0+255),b
  8646  000436  0EFF               	movlw	255
  8647  000438  204C               	addwfc	??_conta_dente+1,w,c
  8648  00043A  0100               	movlb	0	; () banked
  8649  00043C  6FB4               	movwf	(_ij_tmr_disparo+1)& (0+255),b
  8650  00043E  0E00               	movlw	0
  8651  000440  204D               	addwfc	??_conta_dente+2,w,c
  8652  000442  0100               	movlb	0	; () banked
  8653  000444  6FB5               	movwf	(_ij_tmr_disparo+2)& (0+255),b
  8654  000446  0E00               	movlw	0
  8655  000448  204E               	addwfc	??_conta_dente+3,w,c
  8656  00044A  0100               	movlb	0	; () banked
  8657  00044C  6FB6               	movwf	(_ij_tmr_disparo+3)& (0+255),b
  8658                           
  8659                           ; BSR set to: 0
  8660                           ;main.c: 834: tempo_bob = buffer_read[7];
  8661  00044E  C11F  F0C1         	movff	_buffer_read+7,_tempo_bob
  8662  000452  0100               	movlb	0	; () banked
  8663  000454  6BC2               	clrf	(_tempo_bob+1)& (0+255),b
  8664                           
  8665                           ;main.c: 835: tempo_inj = 65535 - Make_16(buffer_read[1], buffer_read[2]);
  8666  000456  C11A  F001         	movff	_buffer_read+2,Make_16@data2
  8667  00045A  0101               	movlb	1	; () banked
  8668  00045C  5119               	movf	(_buffer_read+1)& (0+255),w,b
  8669  00045E  ECB2  F019         	call	_Make_16
  8670  000462  5001               	movf	?_Make_16,w,c
  8671  000464  6E4B               	movwf	??_conta_dente& (0+255),c
  8672  000466  5002               	movf	?_Make_16+1,w,c
  8673  000468  6E4C               	movwf	(??_conta_dente+1)& (0+255),c
  8674  00046A  6A4D               	clrf	(??_conta_dente+2)& (0+255),c
  8675  00046C  6A4E               	clrf	(??_conta_dente+3)& (0+255),c
  8676  00046E  1E4B               	comf	??_conta_dente,f,c
  8677  000470  1E4C               	comf	??_conta_dente+1,f,c
  8678  000472  1E4D               	comf	??_conta_dente+2,f,c
  8679  000474  1E4E               	comf	??_conta_dente+3,f,c
  8680  000476  2A4B               	incf	??_conta_dente,f,c
  8681  000478  0E00               	movlw	0
  8682  00047A  224C               	addwfc	??_conta_dente+1,f,c
  8683  00047C  224D               	addwfc	??_conta_dente+2,f,c
  8684  00047E  224E               	addwfc	??_conta_dente+3,f,c
  8685  000480  0EFF               	movlw	255
  8686  000482  244B               	addwf	??_conta_dente,w,c
  8687  000484  0100               	movlb	0	; () banked
  8688  000486  6FA7               	movwf	_tempo_inj& (0+255),b
  8689  000488  0EFF               	movlw	255
  8690  00048A  204C               	addwfc	??_conta_dente+1,w,c
  8691  00048C  0100               	movlb	0	; () banked
  8692  00048E  6FA8               	movwf	(_tempo_inj+1)& (0+255),b
  8693  000490  0E00               	movlw	0
  8694  000492  204D               	addwfc	??_conta_dente+2,w,c
  8695  000494  0100               	movlb	0	; () banked
  8696  000496  6FA9               	movwf	(_tempo_inj+2)& (0+255),b
  8697  000498  0E00               	movlw	0
  8698  00049A  204E               	addwfc	??_conta_dente+3,w,c
  8699  00049C  0100               	movlb	0	; () banked
  8700  00049E  6FAA               	movwf	(_tempo_inj+3)& (0+255),b
  8701                           
  8702                           ;main.c: 837: rotacao = rotacao_peralta / 100;
  8703  0004A0  C0CB  F001         	movff	_rotacao_peralta,___awdiv@dividend
  8704  0004A4  C0CC  F002         	movff	_rotacao_peralta+1,___awdiv@dividend+1
  8705  0004A8  0E00               	movlw	0
  8706  0004AA  6E04               	movwf	___awdiv@divisor+1,c
  8707  0004AC  0E64               	movlw	100
  8708  0004AE  6E03               	movwf	___awdiv@divisor,c
  8709  0004B0  EC7A  F018         	call	___awdiv	;wreg free
  8710  0004B4  C001  F0BF         	movff	?___awdiv,_rotacao
  8711  0004B8  C002  F0C0         	movff	?___awdiv+1,_rotacao+1
  8712                           
  8713                           ;main.c: 838: ij_dente_14_extra = buffer_read[9];
  8714  0004BC  C121  F152         	movff	_buffer_read+9,_ij_dente_14_extra
  8715  0004C0  0101               	movlb	1	; () banked
  8716  0004C2  6B53               	clrf	(_ij_dente_14_extra+1)& (0+255),b
  8717                           
  8718                           ; BSR set to: 1
  8719                           ;main.c: 839: ij_dente_23_extra = ij_dente_14_extra + 30;
  8720  0004C4  0E1E               	movlw	30
  8721  0004C6  0101               	movlb	1	; () banked
  8722  0004C8  2552               	addwf	_ij_dente_14_extra& (0+255),w,b
  8723  0004CA  0101               	movlb	1	; () banked
  8724  0004CC  6F50               	movwf	_ij_dente_23_extra& (0+255),b
  8725  0004CE  0E00               	movlw	0
  8726  0004D0  0101               	movlb	1	; () banked
  8727  0004D2  2153               	addwfc	(_ij_dente_14_extra+1)& (0+255),w,b
  8728  0004D4  0101               	movlb	1	; () banked
  8729  0004D6  6F51               	movwf	(_ij_dente_23_extra+1)& (0+255),b
  8730                           
  8731                           ; BSR set to: 1
  8732                           ;main.c: 840: Set_Vent = buffer_read[10];
  8733  0004D8  C122  F0B7         	movff	_buffer_read+10,_Set_Vent
  8734  0004DC  0100               	movlb	0	; () banked
  8735  0004DE  6BB8               	clrf	(_Set_Vent+1)& (0+255),b
  8736                           
  8737                           ; BSR set to: 0
  8738                           ;main.c: 841: estado_controle_ml = buffer_read[3];
  8739  0004E0  C11B  F15C         	movff	_buffer_read+3,_estado_controle_ml
  8740  0004E4  0101               	movlb	1	; () banked
  8741  0004E6  6B5D               	clrf	(_estado_controle_ml+1)& (0+255),b
  8742                           
  8743                           ; BSR set to: 1
  8744                           ;main.c: 843: Flag_I2c = 0;
  8745  0004E8  0E00               	movlw	0
  8746  0004EA  0101               	movlb	1	; () banked
  8747  0004EC  6F4D               	movwf	(_Flag_I2c+1)& (0+255),b
  8748  0004EE  0E00               	movlw	0
  8749  0004F0  6F4C               	movwf	_Flag_I2c& (0+255),b
  8750  0004F2                     i2l6611:
  8751                           
  8752                           ; BSR set to: 1
  8753                           ;main.c: 844: }
  8754                           ;main.c: 848: if (Set_Vent >= 78)
  8755  0004F2  0100               	movlb	0	; () banked
  8756  0004F4  51B8               	movf	(_Set_Vent+1)& (0+255),w,b
  8757  0004F6  E105               	bnz	i2u748_40
  8758  0004F8  0E4E               	movlw	78
  8759  0004FA  0100               	movlb	0	; () banked
  8760  0004FC  5DB7               	subwf	_Set_Vent& (0+255),w,b
  8761  0004FE  A0D8               	btfss	status,0,c
  8762  000500  D002               	goto	i2l6615
  8763  000502                     i2u748_40:
  8764                           
  8765                           ; BSR set to: 0
  8766                           ;main.c: 849: {
  8767                           ;main.c: 850: LATBbits.LATB4 = 1;
  8768  000502  888A               	bsf	3978,4,c	;volatile
  8769                           
  8770                           ;main.c: 851: }
  8771  000504  D008               	goto	i2l6619
  8772  000506                     i2l6615:
  8773                           
  8774                           ; BSR set to: 0
  8775                           ;main.c: 852: else if (Set_Vent <= 72)
  8776  000506  0100               	movlb	0	; () banked
  8777  000508  51B8               	movf	(_Set_Vent+1)& (0+255),w,b
  8778  00050A  E105               	bnz	i2l6619
  8779  00050C  0E49               	movlw	73
  8780  00050E  0100               	movlb	0	; () banked
  8781  000510  5DB7               	subwf	_Set_Vent& (0+255),w,b
  8782  000512  A0D8               	btfss	status,0,c
  8783                           
  8784                           ; BSR set to: 0
  8785                           ;main.c: 853: {
  8786                           ;main.c: 854: LATBbits.LATB4 = 0;
  8787  000514  988A               	bcf	3978,4,c	;volatile
  8788  000516                     i2l6619:
  8789                           
  8790                           ; BSR set to: 0
  8791                           ;main.c: 855: }
  8792                           ;main.c: 858: if (rotacao < 6 && rotacao_ant < 6)
  8793  000516  0100               	movlb	0	; () banked
  8794  000518  BFC0               	btfsc	(_rotacao+1)& (0+255),7,b
  8795  00051A  D008               	goto	i2l6621
  8796  00051C  0100               	movlb	0	; () banked
  8797  00051E  51C0               	movf	(_rotacao+1)& (0+255),w,b
  8798  000520  E12E               	bnz	i2l6629
  8799  000522  0E06               	movlw	6
  8800  000524  0100               	movlb	0	; () banked
  8801  000526  5DBF               	subwf	_rotacao& (0+255),w,b
  8802  000528  B0D8               	btfsc	status,0,c
  8803  00052A  D029               	goto	i2l6629
  8804  00052C                     i2l6621:
  8805                           
  8806                           ; BSR set to: 0
  8807  00052C  0100               	movlb	0	; () banked
  8808  00052E  BFBE               	btfsc	(_rotacao_ant+1)& (0+255),7,b
  8809  000530  D008               	goto	i2l6623
  8810  000532  0100               	movlb	0	; () banked
  8811  000534  51BE               	movf	(_rotacao_ant+1)& (0+255),w,b
  8812  000536  E123               	bnz	i2l6629
  8813  000538  0E06               	movlw	6
  8814  00053A  0100               	movlb	0	; () banked
  8815  00053C  5DBD               	subwf	_rotacao_ant& (0+255),w,b
  8816  00053E  B0D8               	btfsc	status,0,c
  8817  000540  D01E               	goto	i2l6629
  8818  000542                     i2l6623:
  8819                           
  8820                           ; BSR set to: 0
  8821                           ;main.c: 859: {
  8822                           ;main.c: 860: if (sinal_fase == 1)
  8823  000542  0100               	movlb	0	; () banked
  8824  000544  05BB               	decf	_sinal_fase& (0+255),w,b
  8825  000546  0100               	movlb	0	; () banked
  8826  000548  11BC               	iorwf	(_sinal_fase+1)& (0+255),w,b
  8827  00054A  A4D8               	btfss	status,2,c
  8828  00054C  D00A               	goto	i2l6627
  8829                           
  8830                           ; BSR set to: 0
  8831                           ;main.c: 861: {
  8832                           ;main.c: 862: volta14 = 255;
  8833  00054E  0E00               	movlw	0
  8834  000550  0100               	movlb	0	; () banked
  8835  000552  6FDE               	movwf	(_volta14+1)& (0+255),b
  8836  000554  69DD               	setf	_volta14& (0+255),b
  8837                           
  8838                           ;main.c: 864: volta23 = 0;
  8839  000556  0E00               	movlw	0
  8840  000558  0100               	movlb	0	; () banked
  8841  00055A  6FDC               	movwf	(_volta23+1)& (0+255),b
  8842  00055C  0E00               	movlw	0
  8843  00055E  6FDB               	movwf	_volta23& (0+255),b
  8844                           
  8845                           ;main.c: 865: }
  8846  000560  D009               	goto	i2l352
  8847  000562                     i2l6627:
  8848                           
  8849                           ; BSR set to: 0
  8850                           ;main.c: 866: else
  8851                           ;main.c: 867: {
  8852                           ;main.c: 868: volta14 = 0;
  8853  000562  0E00               	movlw	0
  8854  000564  0100               	movlb	0	; () banked
  8855  000566  6FDE               	movwf	(_volta14+1)& (0+255),b
  8856  000568  0E00               	movlw	0
  8857  00056A  6FDD               	movwf	_volta14& (0+255),b
  8858                           
  8859                           ;main.c: 870: volta23 = 255;
  8860  00056C  0E00               	movlw	0
  8861  00056E  0100               	movlb	0	; () banked
  8862  000570  6FDC               	movwf	(_volta23+1)& (0+255),b
  8863  000572  69DB               	setf	_volta23& (0+255),b
  8864  000574                     i2l352:
  8865                           
  8866                           ; BSR set to: 0
  8867                           ;main.c: 871: }
  8868                           ;main.c: 872: fase_ok = 1;
  8869  000574  0E00               	movlw	0
  8870  000576  0101               	movlb	1	; () banked
  8871  000578  6F57               	movwf	(_fase_ok+1)& (0+255),b
  8872  00057A  0E01               	movlw	1
  8873  00057C  6F56               	movwf	_fase_ok& (0+255),b
  8874  00057E                     i2l6629:
  8875                           
  8876                           ;main.c: 873: }
  8877                           ;main.c: 877: if ((ig_dente_14 < 30) && (ig_dente_14_ant >= 30) && ((ig_dente_14_ant - i
      +                          g_dente_14) < 30))
  8878  00057E  0100               	movlb	0	; () banked
  8879  000580  BFD2               	btfsc	(_ig_dente_14+1)& (0+255),7,b
  8880  000582  D008               	goto	i2l6631
  8881  000584  0100               	movlb	0	; () banked
  8882  000586  51D2               	movf	(_ig_dente_14+1)& (0+255),w,b
  8883  000588  E146               	bnz	i2l6649
  8884  00058A  0E1E               	movlw	30
  8885  00058C  0100               	movlb	0	; () banked
  8886  00058E  5DD1               	subwf	_ig_dente_14& (0+255),w,b
  8887  000590  B0D8               	btfsc	status,0,c
  8888  000592  D041               	goto	i2l6649
  8889  000594                     i2l6631:
  8890                           
  8891                           ; BSR set to: 0
  8892  000594  0100               	movlb	0	; () banked
  8893  000596  BFD0               	btfsc	(_ig_dente_14_ant+1)& (0+255),7,b
  8894  000598  D03E               	goto	i2l6649
  8895  00059A  0100               	movlb	0	; () banked
  8896  00059C  51D0               	movf	(_ig_dente_14_ant+1)& (0+255),w,b
  8897  00059E  E105               	bnz	i2u754_40
  8898  0005A0  0E1E               	movlw	30
  8899  0005A2  0100               	movlb	0	; () banked
  8900  0005A4  5DCF               	subwf	_ig_dente_14_ant& (0+255),w,b
  8901  0005A6  A0D8               	btfss	status,0,c
  8902  0005A8  D036               	goto	i2l6649
  8903  0005AA                     i2u754_40:
  8904                           
  8905                           ; BSR set to: 0
  8906  0005AA  C0D1  F04B         	movff	_ig_dente_14,??_conta_dente
  8907  0005AE  C0D2  F04C         	movff	_ig_dente_14+1,??_conta_dente+1
  8908  0005B2  1E4B               	comf	??_conta_dente,f,c
  8909  0005B4  1E4C               	comf	??_conta_dente+1,f,c
  8910  0005B6  4A4B               	infsnz	??_conta_dente,f,c
  8911  0005B8  2A4C               	incf	??_conta_dente+1,f,c
  8912  0005BA  0100               	movlb	0	; () banked
  8913  0005BC  51CF               	movf	_ig_dente_14_ant& (0+255),w,b
  8914  0005BE  264B               	addwf	??_conta_dente,f,c
  8915  0005C0  0100               	movlb	0	; () banked
  8916  0005C2  51D0               	movf	(_ig_dente_14_ant+1)& (0+255),w,b
  8917  0005C4  224C               	addwfc	??_conta_dente+1,f,c
  8918  0005C6  BE4C               	btfsc	??_conta_dente+1,7,c
  8919  0005C8  D006               	goto	i2l6635
  8920  0005CA  504C               	movf	??_conta_dente+1,w,c
  8921  0005CC  E124               	bnz	i2l6649
  8922  0005CE  0E1E               	movlw	30
  8923  0005D0  5C4B               	subwf	??_conta_dente,w,c
  8924  0005D2  B0D8               	btfsc	status,0,c
  8925  0005D4  D020               	goto	i2l6649
  8926  0005D6                     i2l6635:
  8927                           
  8928                           ; BSR set to: 0
  8929                           ;main.c: 878: {
  8930                           ;main.c: 880: if (ig_tmr_disparo > 1 && ig_pos == 0)
  8931  0005D6  0100               	movlb	0	; () banked
  8932  0005D8  BFDA               	btfsc	(_ig_tmr_disparo+1)& (0+255),7,b
  8933  0005DA  D01D               	goto	i2l6649
  8934  0005DC  0100               	movlb	0	; () banked
  8935  0005DE  51DA               	movf	(_ig_tmr_disparo+1)& (0+255),w,b
  8936  0005E0  E105               	bnz	i2u756_40
  8937  0005E2  0E02               	movlw	2
  8938  0005E4  0100               	movlb	0	; () banked
  8939  0005E6  5DD9               	subwf	_ig_tmr_disparo& (0+255),w,b
  8940  0005E8  A0D8               	btfss	status,0,c
  8941  0005EA  D015               	goto	i2l6649
  8942  0005EC                     i2u756_40:
  8943                           
  8944                           ; BSR set to: 0
  8945  0005EC  0100               	movlb	0	; () banked
  8946  0005EE  51E3               	movf	_ig_pos& (0+255),w,b
  8947  0005F0  0100               	movlb	0	; () banked
  8948  0005F2  11E4               	iorwf	(_ig_pos+1)& (0+255),w,b
  8949  0005F4  A4D8               	btfss	status,2,c
  8950  0005F6  D00F               	goto	i2l6649
  8951                           
  8952                           ; BSR set to: 0
  8953                           ;main.c: 881: {
  8954                           ;main.c: 883: PR2 = ig_tmr_disparo;
  8955  0005F8  C0D9  FFBB         	movff	_ig_tmr_disparo,4027	;volatile
  8956                           
  8957                           ; BSR set to: 0
  8958                           ;main.c: 884: Set_Timer2(0);
  8959  0005FC  0E00               	movlw	0
  8960  0005FE  6E02               	movwf	Set_Timer2@data_timer+1,c
  8961  000600  0E00               	movlw	0
  8962  000602  6E01               	movwf	Set_Timer2@data_timer,c
  8963  000604  EC48  F01A         	call	_Set_Timer2	;wreg free
  8964                           
  8965                           ;main.c: 885: (PIR1bits.TMR2IF = 0);
  8966  000608  929E               	bcf	3998,1,c	;volatile
  8967                           
  8968                           ;main.c: 886: (PIE1bits.TMR2IE = 1);
  8969  00060A  829D               	bsf	3997,1,c	;volatile
  8970                           
  8971                           ;main.c: 889: ig_pos = 14;
  8972  00060C  0E00               	movlw	0
  8973  00060E  0100               	movlb	0	; () banked
  8974  000610  6FE4               	movwf	(_ig_pos+1)& (0+255),b
  8975  000612  0E0E               	movlw	14
  8976  000614  6FE3               	movwf	_ig_pos& (0+255),b
  8977  000616                     i2l6649:
  8978                           
  8979                           ; BSR set to: 0
  8980                           ;main.c: 890: }
  8981                           ;main.c: 891: }
  8982                           ;main.c: 894: if ((ig_dente_23 < 30) && (ig_dente_23_ant >= 30) && ((ig_dente_23_ant - i
      +                          g_dente_23) < 30))
  8983  000616  0100               	movlb	0	; () banked
  8984  000618  BFD6               	btfsc	(_ig_dente_23+1)& (0+255),7,b
  8985  00061A  D008               	goto	i2l6651
  8986  00061C  0100               	movlb	0	; () banked
  8987  00061E  51D6               	movf	(_ig_dente_23+1)& (0+255),w,b
  8988  000620  E146               	bnz	i2l6669
  8989  000622  0E1E               	movlw	30
  8990  000624  0100               	movlb	0	; () banked
  8991  000626  5DD5               	subwf	_ig_dente_23& (0+255),w,b
  8992  000628  B0D8               	btfsc	status,0,c
  8993  00062A  D041               	goto	i2l6669
  8994  00062C                     i2l6651:
  8995                           
  8996                           ; BSR set to: 0
  8997  00062C  0100               	movlb	0	; () banked
  8998  00062E  BFD4               	btfsc	(_ig_dente_23_ant+1)& (0+255),7,b
  8999  000630  D03E               	goto	i2l6669
  9000  000632  0100               	movlb	0	; () banked
  9001  000634  51D4               	movf	(_ig_dente_23_ant+1)& (0+255),w,b
  9002  000636  E105               	bnz	i2u759_40
  9003  000638  0E1E               	movlw	30
  9004  00063A  0100               	movlb	0	; () banked
  9005  00063C  5DD3               	subwf	_ig_dente_23_ant& (0+255),w,b
  9006  00063E  A0D8               	btfss	status,0,c
  9007  000640  D036               	goto	i2l6669
  9008  000642                     i2u759_40:
  9009                           
  9010                           ; BSR set to: 0
  9011  000642  C0D5  F04B         	movff	_ig_dente_23,??_conta_dente
  9012  000646  C0D6  F04C         	movff	_ig_dente_23+1,??_conta_dente+1
  9013  00064A  1E4B               	comf	??_conta_dente,f,c
  9014  00064C  1E4C               	comf	??_conta_dente+1,f,c
  9015  00064E  4A4B               	infsnz	??_conta_dente,f,c
  9016  000650  2A4C               	incf	??_conta_dente+1,f,c
  9017  000652  0100               	movlb	0	; () banked
  9018  000654  51D3               	movf	_ig_dente_23_ant& (0+255),w,b
  9019  000656  264B               	addwf	??_conta_dente,f,c
  9020  000658  0100               	movlb	0	; () banked
  9021  00065A  51D4               	movf	(_ig_dente_23_ant+1)& (0+255),w,b
  9022  00065C  224C               	addwfc	??_conta_dente+1,f,c
  9023  00065E  BE4C               	btfsc	??_conta_dente+1,7,c
  9024  000660  D006               	goto	i2l6655
  9025  000662  504C               	movf	??_conta_dente+1,w,c
  9026  000664  E124               	bnz	i2l6669
  9027  000666  0E1E               	movlw	30
  9028  000668  5C4B               	subwf	??_conta_dente,w,c
  9029  00066A  B0D8               	btfsc	status,0,c
  9030  00066C  D020               	goto	i2l6669
  9031  00066E                     i2l6655:
  9032                           
  9033                           ; BSR set to: 0
  9034                           ;main.c: 895: {
  9035                           ;main.c: 897: if (ig_tmr_disparo > 1 && ig_pos == 0)
  9036  00066E  0100               	movlb	0	; () banked
  9037  000670  BFDA               	btfsc	(_ig_tmr_disparo+1)& (0+255),7,b
  9038  000672  D01D               	goto	i2l6669
  9039  000674  0100               	movlb	0	; () banked
  9040  000676  51DA               	movf	(_ig_tmr_disparo+1)& (0+255),w,b
  9041  000678  E105               	bnz	i2u761_40
  9042  00067A  0E02               	movlw	2
  9043  00067C  0100               	movlb	0	; () banked
  9044  00067E  5DD9               	subwf	_ig_tmr_disparo& (0+255),w,b
  9045  000680  A0D8               	btfss	status,0,c
  9046  000682  D015               	goto	i2l6669
  9047  000684                     i2u761_40:
  9048                           
  9049                           ; BSR set to: 0
  9050  000684  0100               	movlb	0	; () banked
  9051  000686  51E3               	movf	_ig_pos& (0+255),w,b
  9052  000688  0100               	movlb	0	; () banked
  9053  00068A  11E4               	iorwf	(_ig_pos+1)& (0+255),w,b
  9054  00068C  A4D8               	btfss	status,2,c
  9055  00068E  D00F               	goto	i2l6669
  9056                           
  9057                           ; BSR set to: 0
  9058                           ;main.c: 898: {
  9059                           ;main.c: 900: PR2 = ig_tmr_disparo;
  9060  000690  C0D9  FFBB         	movff	_ig_tmr_disparo,4027	;volatile
  9061                           
  9062                           ; BSR set to: 0
  9063                           ;main.c: 901: Set_Timer2(0);
  9064  000694  0E00               	movlw	0
  9065  000696  6E02               	movwf	Set_Timer2@data_timer+1,c
  9066  000698  0E00               	movlw	0
  9067  00069A  6E01               	movwf	Set_Timer2@data_timer,c
  9068  00069C  EC48  F01A         	call	_Set_Timer2	;wreg free
  9069                           
  9070                           ;main.c: 902: (PIR1bits.TMR2IF = 0);
  9071  0006A0  929E               	bcf	3998,1,c	;volatile
  9072                           
  9073                           ;main.c: 903: (PIE1bits.TMR2IE = 1);
  9074  0006A2  829D               	bsf	3997,1,c	;volatile
  9075                           
  9076                           ;main.c: 904: ig_pos = 23;
  9077  0006A4  0E00               	movlw	0
  9078  0006A6  0100               	movlb	0	; () banked
  9079  0006A8  6FE4               	movwf	(_ig_pos+1)& (0+255),b
  9080  0006AA  0E17               	movlw	23
  9081  0006AC  6FE3               	movwf	_ig_pos& (0+255),b
  9082  0006AE                     i2l6669:
  9083                           
  9084                           ; BSR set to: 0
  9085                           ;main.c: 905: }
  9086                           ;main.c: 906: }
  9087                           ;main.c: 909: if ((ij_dente_14 < 30) && (ij_dente_14_ant >= 30) && ((ij_dente_14_ant - i
      +                          j_dente_14) < 30))
  9088  0006AE  0100               	movlb	0	; () banked
  9089  0006B0  BFCA               	btfsc	(_ij_dente_14+1)& (0+255),7,b
  9090  0006B2  D008               	goto	i2l6671
  9091  0006B4  0100               	movlb	0	; () banked
  9092  0006B6  51CA               	movf	(_ij_dente_14+1)& (0+255),w,b
  9093  0006B8  E13E               	bnz	i2l6687
  9094  0006BA  0E1E               	movlw	30
  9095  0006BC  0100               	movlb	0	; () banked
  9096  0006BE  5DC9               	subwf	_ij_dente_14& (0+255),w,b
  9097  0006C0  B0D8               	btfsc	status,0,c
  9098  0006C2  D039               	goto	i2l6687
  9099  0006C4                     i2l6671:
  9100                           
  9101                           ; BSR set to: 0
  9102  0006C4  0100               	movlb	0	; () banked
  9103  0006C6  BFC8               	btfsc	(_ij_dente_14_ant+1)& (0+255),7,b
  9104  0006C8  D036               	goto	i2l6687
  9105  0006CA  0100               	movlb	0	; () banked
  9106  0006CC  51C8               	movf	(_ij_dente_14_ant+1)& (0+255),w,b
  9107  0006CE  E105               	bnz	i2u764_40
  9108  0006D0  0E1E               	movlw	30
  9109  0006D2  0100               	movlb	0	; () banked
  9110  0006D4  5DC7               	subwf	_ij_dente_14_ant& (0+255),w,b
  9111  0006D6  A0D8               	btfss	status,0,c
  9112  0006D8  D02E               	goto	i2l6687
  9113  0006DA                     i2u764_40:
  9114                           
  9115                           ; BSR set to: 0
  9116  0006DA  C0C9  F04B         	movff	_ij_dente_14,??_conta_dente
  9117  0006DE  C0CA  F04C         	movff	_ij_dente_14+1,??_conta_dente+1
  9118  0006E2  1E4B               	comf	??_conta_dente,f,c
  9119  0006E4  1E4C               	comf	??_conta_dente+1,f,c
  9120  0006E6  4A4B               	infsnz	??_conta_dente,f,c
  9121  0006E8  2A4C               	incf	??_conta_dente+1,f,c
  9122  0006EA  0100               	movlb	0	; () banked
  9123  0006EC  51C7               	movf	_ij_dente_14_ant& (0+255),w,b
  9124  0006EE  264B               	addwf	??_conta_dente,f,c
  9125  0006F0  0100               	movlb	0	; () banked
  9126  0006F2  51C8               	movf	(_ij_dente_14_ant+1)& (0+255),w,b
  9127  0006F4  224C               	addwfc	??_conta_dente+1,f,c
  9128  0006F6  BE4C               	btfsc	??_conta_dente+1,7,c
  9129  0006F8  D006               	goto	i2l6675
  9130  0006FA  504C               	movf	??_conta_dente+1,w,c
  9131  0006FC  E11C               	bnz	i2l6687
  9132  0006FE  0E1E               	movlw	30
  9133  000700  5C4B               	subwf	??_conta_dente,w,c
  9134  000702  B0D8               	btfsc	status,0,c
  9135  000704  D018               	goto	i2l6687
  9136  000706                     i2l6675:
  9137                           
  9138                           ; BSR set to: 0
  9139                           ;main.c: 910: {
  9140                           ;main.c: 911: Set_Timer0(ij_tmr_disparo);
  9141  000706  C0B3  F001         	movff	_ij_tmr_disparo,Set_Timer0@data_timer
  9142  00070A  C0B4  F002         	movff	_ij_tmr_disparo+1,Set_Timer0@data_timer+1
  9143  00070E  EC33  F01A         	call	_Set_Timer0	;wreg free
  9144                           
  9145                           ;main.c: 912: (INTCONbits.TMR0IF = 0);
  9146  000712  94F2               	bcf	intcon,2,c	;volatile
  9147                           
  9148                           ;main.c: 913: (INTCONbits.TMR0IE = 1);
  9149  000714  8AF2               	bsf	intcon,5,c	;volatile
  9150                           
  9151                           ;main.c: 914: if (!volta14) ij14_pos = 1;
  9152  000716  0100               	movlb	0	; () banked
  9153  000718  51DD               	movf	_volta14& (0+255),w,b
  9154  00071A  0100               	movlb	0	; () banked
  9155  00071C  11DE               	iorwf	(_volta14+1)& (0+255),w,b
  9156  00071E  A4D8               	btfss	status,2,c
  9157  000720  D005               	goto	i2l6685
  9158                           
  9159                           ; BSR set to: 0
  9160  000722  0E00               	movlw	0
  9161  000724  0100               	movlb	0	; () banked
  9162  000726  6FE2               	movwf	(_ij14_pos+1)& (0+255),b
  9163  000728  0E01               	movlw	1
  9164  00072A  D004               	goto	L19
  9165  00072C                     i2l6685:
  9166                           
  9167                           ; BSR set to: 0
  9168                           ;main.c: 915: else ij14_pos = 4;
  9169  00072C  0E00               	movlw	0
  9170  00072E  0100               	movlb	0	; () banked
  9171  000730  6FE2               	movwf	(_ij14_pos+1)& (0+255),b
  9172  000732  0E04               	movlw	4
  9173  000734                     L19:
  9174  000734  6FE1               	movwf	_ij14_pos& (0+255),b
  9175  000736                     i2l6687:
  9176                           
  9177                           ; BSR set to: 0
  9178                           ;main.c: 916: }
  9179                           ;main.c: 918: if ((ij_dente_23 < 30) && (ij_dente_23_ant >= 30) && ((ij_dente_23_ant - i
      +                          j_dente_23) < 30))
  9180  000736  0100               	movlb	0	; () banked
  9181  000738  BFC6               	btfsc	(_ij_dente_23+1)& (0+255),7,b
  9182  00073A  D008               	goto	i2l6689
  9183  00073C  0100               	movlb	0	; () banked
  9184  00073E  51C6               	movf	(_ij_dente_23+1)& (0+255),w,b
  9185  000740  E13E               	bnz	i2l6705
  9186  000742  0E1E               	movlw	30
  9187  000744  0100               	movlb	0	; () banked
  9188  000746  5DC5               	subwf	_ij_dente_23& (0+255),w,b
  9189  000748  B0D8               	btfsc	status,0,c
  9190  00074A  D039               	goto	i2l6705
  9191  00074C                     i2l6689:
  9192                           
  9193                           ; BSR set to: 0
  9194  00074C  0100               	movlb	0	; () banked
  9195  00074E  BFC4               	btfsc	(_ij_dente_23_ant+1)& (0+255),7,b
  9196  000750  D036               	goto	i2l6705
  9197  000752  0100               	movlb	0	; () banked
  9198  000754  51C4               	movf	(_ij_dente_23_ant+1)& (0+255),w,b
  9199  000756  E105               	bnz	i2u768_40
  9200  000758  0E1E               	movlw	30
  9201  00075A  0100               	movlb	0	; () banked
  9202  00075C  5DC3               	subwf	_ij_dente_23_ant& (0+255),w,b
  9203  00075E  A0D8               	btfss	status,0,c
  9204  000760  D02E               	goto	i2l6705
  9205  000762                     i2u768_40:
  9206                           
  9207                           ; BSR set to: 0
  9208  000762  C0C5  F04B         	movff	_ij_dente_23,??_conta_dente
  9209  000766  C0C6  F04C         	movff	_ij_dente_23+1,??_conta_dente+1
  9210  00076A  1E4B               	comf	??_conta_dente,f,c
  9211  00076C  1E4C               	comf	??_conta_dente+1,f,c
  9212  00076E  4A4B               	infsnz	??_conta_dente,f,c
  9213  000770  2A4C               	incf	??_conta_dente+1,f,c
  9214  000772  0100               	movlb	0	; () banked
  9215  000774  51C3               	movf	_ij_dente_23_ant& (0+255),w,b
  9216  000776  264B               	addwf	??_conta_dente,f,c
  9217  000778  0100               	movlb	0	; () banked
  9218  00077A  51C4               	movf	(_ij_dente_23_ant+1)& (0+255),w,b
  9219  00077C  224C               	addwfc	??_conta_dente+1,f,c
  9220  00077E  BE4C               	btfsc	??_conta_dente+1,7,c
  9221  000780  D006               	goto	i2l6693
  9222  000782  504C               	movf	??_conta_dente+1,w,c
  9223  000784  E11C               	bnz	i2l6705
  9224  000786  0E1E               	movlw	30
  9225  000788  5C4B               	subwf	??_conta_dente,w,c
  9226  00078A  B0D8               	btfsc	status,0,c
  9227  00078C  D018               	goto	i2l6705
  9228  00078E                     i2l6693:
  9229                           
  9230                           ; BSR set to: 0
  9231                           ;main.c: 919: {
  9232                           ;main.c: 920: Set_Timer3(ij_tmr_disparo);
  9233  00078E  C0B3  F001         	movff	_ij_tmr_disparo,Set_Timer3@data_timer
  9234  000792  C0B4  F002         	movff	_ij_tmr_disparo+1,Set_Timer3@data_timer+1
  9235  000796  EC2E  F01A         	call	_Set_Timer3	;wreg free
  9236                           
  9237                           ;main.c: 921: (PIR2bits.TMR3IF = 0);
  9238  00079A  92A1               	bcf	4001,1,c	;volatile
  9239                           
  9240                           ;main.c: 922: (PIE2bits.TMR3IE = 1);
  9241  00079C  82A0               	bsf	4000,1,c	;volatile
  9242                           
  9243                           ;main.c: 923: if (!volta23) ij23_pos = 3;
  9244  00079E  0100               	movlb	0	; () banked
  9245  0007A0  51DB               	movf	_volta23& (0+255),w,b
  9246  0007A2  0100               	movlb	0	; () banked
  9247  0007A4  11DC               	iorwf	(_volta23+1)& (0+255),w,b
  9248  0007A6  A4D8               	btfss	status,2,c
  9249  0007A8  D005               	goto	i2l6703
  9250                           
  9251                           ; BSR set to: 0
  9252  0007AA  0E00               	movlw	0
  9253  0007AC  0100               	movlb	0	; () banked
  9254  0007AE  6FE0               	movwf	(_ij23_pos+1)& (0+255),b
  9255  0007B0  0E03               	movlw	3
  9256  0007B2  D004               	goto	L20
  9257  0007B4                     i2l6703:
  9258                           
  9259                           ; BSR set to: 0
  9260                           ;main.c: 924: else ij23_pos = 2;
  9261  0007B4  0E00               	movlw	0
  9262  0007B6  0100               	movlb	0	; () banked
  9263  0007B8  6FE0               	movwf	(_ij23_pos+1)& (0+255),b
  9264  0007BA  0E02               	movlw	2
  9265  0007BC                     L20:
  9266  0007BC  6FDF               	movwf	_ij23_pos& (0+255),b
  9267  0007BE                     i2l6705:
  9268                           
  9269                           ; BSR set to: 0
  9270                           ;main.c: 925: }
  9271                           ;main.c: 926: }
  9272                           ;main.c: 928: if ((dente == ig_dente_14) && (ig_pos == 0))
  9273  0007BE  0100               	movlb	0	; () banked
  9274  0007C0  51D1               	movf	_ig_dente_14& (0+255),w,b
  9275  0007C2  0100               	movlb	0	; () banked
  9276  0007C4  19E5               	xorwf	_dente& (0+255),w,b
  9277  0007C6  E125               	bnz	i2l6721
  9278  0007C8  0100               	movlb	0	; () banked
  9279  0007CA  51D2               	movf	(_ig_dente_14+1)& (0+255),w,b
  9280  0007CC  0100               	movlb	0	; () banked
  9281  0007CE  19E6               	xorwf	(_dente+1)& (0+255),w,b
  9282  0007D0  A4D8               	btfss	status,2,c
  9283  0007D2  D01F               	goto	i2l6721
  9284                           
  9285                           ; BSR set to: 0
  9286  0007D4  0100               	movlb	0	; () banked
  9287  0007D6  51E3               	movf	_ig_pos& (0+255),w,b
  9288  0007D8  0100               	movlb	0	; () banked
  9289  0007DA  11E4               	iorwf	(_ig_pos+1)& (0+255),w,b
  9290  0007DC  A4D8               	btfss	status,2,c
  9291  0007DE  D019               	goto	i2l6721
  9292                           
  9293                           ; BSR set to: 0
  9294                           ;main.c: 929: {
  9295                           ;main.c: 930: if (ig_tmr_disparo >= 1)
  9296  0007E0  0100               	movlb	0	; () banked
  9297  0007E2  BFDA               	btfsc	(_ig_tmr_disparo+1)& (0+255),7,b
  9298  0007E4  D016               	goto	i2l6721
  9299  0007E6  0100               	movlb	0	; () banked
  9300  0007E8  51DA               	movf	(_ig_tmr_disparo+1)& (0+255),w,b
  9301  0007EA  E104               	bnz	i2u773_40
  9302  0007EC  0100               	movlb	0	; () banked
  9303  0007EE  05D9               	decf	_ig_tmr_disparo& (0+255),w,b
  9304  0007F0  A0D8               	btfss	status,0,c
  9305  0007F2  D00F               	goto	i2l6721
  9306  0007F4                     i2u773_40:
  9307                           
  9308                           ; BSR set to: 0
  9309                           ;main.c: 931: {
  9310                           ;main.c: 933: PR2 = ig_tmr_disparo;
  9311  0007F4  C0D9  FFBB         	movff	_ig_tmr_disparo,4027	;volatile
  9312                           
  9313                           ; BSR set to: 0
  9314                           ;main.c: 934: Set_Timer2(0);
  9315  0007F8  0E00               	movlw	0
  9316  0007FA  6E02               	movwf	Set_Timer2@data_timer+1,c
  9317  0007FC  0E00               	movlw	0
  9318  0007FE  6E01               	movwf	Set_Timer2@data_timer,c
  9319  000800  EC48  F01A         	call	_Set_Timer2	;wreg free
  9320                           
  9321                           ;main.c: 935: (PIR1bits.TMR2IF = 0);
  9322  000804  929E               	bcf	3998,1,c	;volatile
  9323                           
  9324                           ;main.c: 936: (PIE1bits.TMR2IE = 1);
  9325  000806  829D               	bsf	3997,1,c	;volatile
  9326                           
  9327                           ;main.c: 939: ig_pos = 14;
  9328  000808  0E00               	movlw	0
  9329  00080A  0100               	movlb	0	; () banked
  9330  00080C  6FE4               	movwf	(_ig_pos+1)& (0+255),b
  9331  00080E  0E0E               	movlw	14
  9332  000810  6FE3               	movwf	_ig_pos& (0+255),b
  9333  000812                     i2l6721:
  9334                           
  9335                           ; BSR set to: 0
  9336                           ;main.c: 940: }
  9337                           ;main.c: 941: }
  9338                           ;main.c: 943: if ((dente == ig_dente_23) && (ig_pos == 0))
  9339  000812  0100               	movlb	0	; () banked
  9340  000814  51D5               	movf	_ig_dente_23& (0+255),w,b
  9341  000816  0100               	movlb	0	; () banked
  9342  000818  19E5               	xorwf	_dente& (0+255),w,b
  9343  00081A  E125               	bnz	i2l6737
  9344  00081C  0100               	movlb	0	; () banked
  9345  00081E  51D6               	movf	(_ig_dente_23+1)& (0+255),w,b
  9346  000820  0100               	movlb	0	; () banked
  9347  000822  19E6               	xorwf	(_dente+1)& (0+255),w,b
  9348  000824  A4D8               	btfss	status,2,c
  9349  000826  D01F               	goto	i2l6737
  9350                           
  9351                           ; BSR set to: 0
  9352  000828  0100               	movlb	0	; () banked
  9353  00082A  51E3               	movf	_ig_pos& (0+255),w,b
  9354  00082C  0100               	movlb	0	; () banked
  9355  00082E  11E4               	iorwf	(_ig_pos+1)& (0+255),w,b
  9356  000830  A4D8               	btfss	status,2,c
  9357  000832  D019               	goto	i2l6737
  9358                           
  9359                           ; BSR set to: 0
  9360                           ;main.c: 944: {
  9361                           ;main.c: 945: if (ig_tmr_disparo >= 1)
  9362  000834  0100               	movlb	0	; () banked
  9363  000836  BFDA               	btfsc	(_ig_tmr_disparo+1)& (0+255),7,b
  9364  000838  D016               	goto	i2l6737
  9365  00083A  0100               	movlb	0	; () banked
  9366  00083C  51DA               	movf	(_ig_tmr_disparo+1)& (0+255),w,b
  9367  00083E  E104               	bnz	i2u776_40
  9368  000840  0100               	movlb	0	; () banked
  9369  000842  05D9               	decf	_ig_tmr_disparo& (0+255),w,b
  9370  000844  A0D8               	btfss	status,0,c
  9371  000846  D00F               	goto	i2l6737
  9372  000848                     i2u776_40:
  9373                           
  9374                           ; BSR set to: 0
  9375                           ;main.c: 946: {
  9376                           ;main.c: 948: PR2 = ig_tmr_disparo;
  9377  000848  C0D9  FFBB         	movff	_ig_tmr_disparo,4027	;volatile
  9378                           
  9379                           ; BSR set to: 0
  9380                           ;main.c: 949: Set_Timer2(0);
  9381  00084C  0E00               	movlw	0
  9382  00084E  6E02               	movwf	Set_Timer2@data_timer+1,c
  9383  000850  0E00               	movlw	0
  9384  000852  6E01               	movwf	Set_Timer2@data_timer,c
  9385  000854  EC48  F01A         	call	_Set_Timer2	;wreg free
  9386                           
  9387                           ;main.c: 950: (PIR1bits.TMR2IF = 0);
  9388  000858  929E               	bcf	3998,1,c	;volatile
  9389                           
  9390                           ;main.c: 951: (PIE1bits.TMR2IE = 1);
  9391  00085A  829D               	bsf	3997,1,c	;volatile
  9392                           
  9393                           ;main.c: 952: ig_pos = 23;
  9394  00085C  0E00               	movlw	0
  9395  00085E  0100               	movlb	0	; () banked
  9396  000860  6FE4               	movwf	(_ig_pos+1)& (0+255),b
  9397  000862  0E17               	movlw	23
  9398  000864  6FE3               	movwf	_ig_pos& (0+255),b
  9399  000866                     i2l6737:
  9400                           
  9401                           ; BSR set to: 0
  9402                           ;main.c: 953: }
  9403                           ;main.c: 954: }
  9404                           ;main.c: 957: if (rotacao > 65 || fase_ok == 0) return;
  9405  000866  0100               	movlb	0	; () banked
  9406  000868  BFC0               	btfsc	(_rotacao+1)& (0+255),7,b
  9407  00086A  D008               	goto	i2l6739
  9408  00086C  0100               	movlb	0	; () banked
  9409  00086E  51C0               	movf	(_rotacao+1)& (0+255),w,b
  9410  000870  E161               	bnz	i2l316
  9411  000872  0E42               	movlw	66
  9412  000874  0100               	movlb	0	; () banked
  9413  000876  5DBF               	subwf	_rotacao& (0+255),w,b
  9414  000878  B0D8               	btfsc	status,0,c
  9415  00087A  0012               	return	
  9416  00087C                     i2l6739:
  9417                           
  9418                           ; BSR set to: 0
  9419  00087C  0101               	movlb	1	; () banked
  9420  00087E  5156               	movf	_fase_ok& (0+255),w,b
  9421  000880  0101               	movlb	1	; () banked
  9422  000882  1157               	iorwf	(_fase_ok+1)& (0+255),w,b
  9423  000884  B4D8               	btfsc	status,2,c
  9424  000886  0012               	return	
  9425                           
  9426                           ; BSR set to: 1
  9427                           ;main.c: 958: if (PORTBbits.RB1 == 0) return;
  9428                           
  9429                           ; BSR set to: 1
  9430  000888  A281               	btfss	3969,1,c	;volatile
  9431  00088A  0012               	return	
  9432                           
  9433                           ; BSR set to: 1
  9434                           ;main.c: 986: if ((dente == ij_dente_14) && (ij14_pos == 0))
  9435                           
  9436                           ; BSR set to: 1
  9437                           
  9438                           ; BSR set to: 1
  9439  00088C  0100               	movlb	0	; () banked
  9440  00088E  51C9               	movf	_ij_dente_14& (0+255),w,b
  9441  000890  0100               	movlb	0	; () banked
  9442  000892  19E5               	xorwf	_dente& (0+255),w,b
  9443  000894  E124               	bnz	i2l6759
  9444  000896  0100               	movlb	0	; () banked
  9445  000898  51CA               	movf	(_ij_dente_14+1)& (0+255),w,b
  9446  00089A  0100               	movlb	0	; () banked
  9447  00089C  19E6               	xorwf	(_dente+1)& (0+255),w,b
  9448  00089E  A4D8               	btfss	status,2,c
  9449  0008A0  D01E               	goto	i2l6759
  9450                           
  9451                           ; BSR set to: 0
  9452  0008A2  0100               	movlb	0	; () banked
  9453  0008A4  51E1               	movf	_ij14_pos& (0+255),w,b
  9454  0008A6  0100               	movlb	0	; () banked
  9455  0008A8  11E2               	iorwf	(_ij14_pos+1)& (0+255),w,b
  9456  0008AA  A4D8               	btfss	status,2,c
  9457  0008AC  D018               	goto	i2l6759
  9458                           
  9459                           ; BSR set to: 0
  9460                           ;main.c: 987: {
  9461                           ;main.c: 988: Set_Timer0(ij_tmr_disparo);
  9462  0008AE  C0B3  F001         	movff	_ij_tmr_disparo,Set_Timer0@data_timer
  9463  0008B2  C0B4  F002         	movff	_ij_tmr_disparo+1,Set_Timer0@data_timer+1
  9464  0008B6  EC33  F01A         	call	_Set_Timer0	;wreg free
  9465                           
  9466                           ;main.c: 989: (INTCONbits.TMR0IF = 0);
  9467  0008BA  94F2               	bcf	intcon,2,c	;volatile
  9468                           
  9469                           ;main.c: 990: (INTCONbits.TMR0IE = 1);
  9470  0008BC  8AF2               	bsf	intcon,5,c	;volatile
  9471                           
  9472                           ;main.c: 991: if (!volta14) ij14_pos = 1;
  9473  0008BE  0100               	movlb	0	; () banked
  9474  0008C0  51DD               	movf	_volta14& (0+255),w,b
  9475  0008C2  0100               	movlb	0	; () banked
  9476  0008C4  11DE               	iorwf	(_volta14+1)& (0+255),w,b
  9477  0008C6  A4D8               	btfss	status,2,c
  9478  0008C8  D005               	goto	i2l6757
  9479                           
  9480                           ; BSR set to: 0
  9481  0008CA  0E00               	movlw	0
  9482  0008CC  0100               	movlb	0	; () banked
  9483  0008CE  6FE2               	movwf	(_ij14_pos+1)& (0+255),b
  9484  0008D0  0E01               	movlw	1
  9485  0008D2  D004               	goto	L21
  9486  0008D4                     i2l6757:
  9487                           
  9488                           ; BSR set to: 0
  9489                           ;main.c: 992: else ij14_pos = 4;
  9490  0008D4  0E00               	movlw	0
  9491  0008D6  0100               	movlb	0	; () banked
  9492  0008D8  6FE2               	movwf	(_ij14_pos+1)& (0+255),b
  9493  0008DA  0E04               	movlw	4
  9494  0008DC                     L21:
  9495  0008DC  6FE1               	movwf	_ij14_pos& (0+255),b
  9496  0008DE                     i2l6759:
  9497                           
  9498                           ; BSR set to: 0
  9499                           ;main.c: 995: }
  9500                           ;main.c: 997: if ((dente == ij_dente_23) && (ij23_pos == 0))
  9501  0008DE  0100               	movlb	0	; () banked
  9502  0008E0  51C5               	movf	_ij_dente_23& (0+255),w,b
  9503  0008E2  0100               	movlb	0	; () banked
  9504  0008E4  19E5               	xorwf	_dente& (0+255),w,b
  9505  0008E6  E126               	bnz	i2l316
  9506  0008E8  0100               	movlb	0	; () banked
  9507  0008EA  51C6               	movf	(_ij_dente_23+1)& (0+255),w,b
  9508  0008EC  0100               	movlb	0	; () banked
  9509  0008EE  19E6               	xorwf	(_dente+1)& (0+255),w,b
  9510  0008F0  A4D8               	btfss	status,2,c
  9511  0008F2  0012               	return	
  9512                           
  9513                           ; BSR set to: 0
  9514  0008F4  0100               	movlb	0	; () banked
  9515  0008F6  51DF               	movf	_ij23_pos& (0+255),w,b
  9516  0008F8  0100               	movlb	0	; () banked
  9517  0008FA  11E0               	iorwf	(_ij23_pos+1)& (0+255),w,b
  9518  0008FC  A4D8               	btfss	status,2,c
  9519  0008FE  0012               	return	
  9520                           
  9521                           ; BSR set to: 0
  9522                           ;main.c: 998: {
  9523                           ;main.c: 999: Set_Timer3(ij_tmr_disparo);
  9524  000900  C0B3  F001         	movff	_ij_tmr_disparo,Set_Timer3@data_timer
  9525  000904  C0B4  F002         	movff	_ij_tmr_disparo+1,Set_Timer3@data_timer+1
  9526  000908  EC2E  F01A         	call	_Set_Timer3	;wreg free
  9527                           
  9528                           ;main.c: 1000: (PIR2bits.TMR3IF = 0);
  9529  00090C  92A1               	bcf	4001,1,c	;volatile
  9530                           
  9531                           ;main.c: 1001: (PIE2bits.TMR3IE = 1);
  9532  00090E  82A0               	bsf	4000,1,c	;volatile
  9533                           
  9534                           ;main.c: 1002: if (!volta23) ij23_pos = 3;
  9535  000910  0100               	movlb	0	; () banked
  9536  000912  51DB               	movf	_volta23& (0+255),w,b
  9537  000914  0100               	movlb	0	; () banked
  9538  000916  11DC               	iorwf	(_volta23+1)& (0+255),w,b
  9539  000918  A4D8               	btfss	status,2,c
  9540  00091A  D006               	goto	i2l6773
  9541                           
  9542                           ; BSR set to: 0
  9543  00091C  0E00               	movlw	0
  9544  00091E  0100               	movlb	0	; () banked
  9545  000920  6FE0               	movwf	(_ij23_pos+1)& (0+255),b
  9546  000922  0E03               	movlw	3
  9547  000924  6FDF               	movwf	_ij23_pos& (0+255),b
  9548  000926  0012               	return	
  9549  000928                     i2l6773:
  9550                           
  9551                           ; BSR set to: 0
  9552                           ;main.c: 1003: else ij23_pos = 2;
  9553  000928  0E00               	movlw	0
  9554  00092A  0100               	movlb	0	; () banked
  9555  00092C  6FE0               	movwf	(_ij23_pos+1)& (0+255),b
  9556  00092E  0E02               	movlw	2
  9557  000930  6FDF               	movwf	_ij23_pos& (0+255),b
  9558                           
  9559                           ; BSR set to: 0
  9560  000932  0012               	return	
  9561  000934                     i2l316:
  9562  000934  0012               	return		;funcret
  9563  000936                     __end_of_conta_dente:
  9564                           	opt stack 0
  9565                           stkptr	equ	0xFFC
  9566                           pclatu	equ	0xFFB
  9567                           pclath	equ	0xFFA
  9568                           tblptru	equ	0xFF8
  9569                           tblptrh	equ	0xFF7
  9570                           tblptrl	equ	0xFF6
  9571                           tablat	equ	0xFF5
  9572                           prodh	equ	0xFF4
  9573                           prodl	equ	0xFF3
  9574                           intcon	equ	0xFF2
  9575                           intcon2	equ	0xFF1
  9576                           postinc0	equ	0xFEE
  9577                           fsr0h	equ	0xFEA
  9578                           fsr0l	equ	0xFE9
  9579                           wreg	equ	0xFE8
  9580                           postdec1	equ	0xFE5
  9581                           fsr1h	equ	0xFE2
  9582                           fsr1l	equ	0xFE1
  9583                           bsr	equ	0xFE0
  9584                           fsr2h	equ	0xFDA
  9585                           fsr2l	equ	0xFD9
  9586                           status	equ	0xFD8
  9587                           
  9588 ;; *************** function i2___xxtofl *****************
  9589 ;; Defined at:
  9590 ;;		line 10 in file "C:\Program Files (x86)\Microchip\xc8\v1.42\sources\common\xxtofl.c"
  9591 ;; Parameters:    Size  Location     Type
  9592 ;;  sign            1    wreg     unsigned char 
  9593 ;;  val             4    0[COMRAM] long 
  9594 ;; Auto vars:     Size  Location     Type
  9595 ;;  sign            1    8[COMRAM] unsigned char 
  9596 ;;  __xxtofl        4   10[COMRAM] unsigned long 
  9597 ;;  __xxtofl        1    9[COMRAM] unsigned char 
  9598 ;; Return value:  Size  Location     Type
  9599 ;;                  4    0[COMRAM] unsigned char 
  9600 ;; Registers used:
  9601 ;;		wreg, status,2, status,0
  9602 ;; Tracked objects:
  9603 ;;		On entry : 0/0
  9604 ;;		On exit  : 0/0
  9605 ;;		Unchanged: 0/0
  9606 ;; Data sizes:     COMRAM   BANK0   BANK1   BANK2   BANK3   BANK4   BANK5   BANK6   BANK7   BANK8   BANK9  BANK10  BANK1
      +1  BANK12  BANK13  BANK14  BANK15
  9607 ;;      Params:         4       0       0       0       0       0       0       0       0       0       0       0       
      +0       0       0       0       0
  9608 ;;      Locals:         6       0       0       0       0       0       0       0       0       0       0       0       
      +0       0       0       0       0
  9609 ;;      Temps:          4       0       0       0       0       0       0       0       0       0       0       0       
      +0       0       0       0       0
  9610 ;;      Totals:        14       0       0       0       0       0       0       0       0       0       0       0       
      +0       0       0       0       0
  9611 ;;Total ram usage:       14 bytes
  9612 ;; Hardware stack levels used:    1
  9613 ;; This function calls:
  9614 ;;		Nothing
  9615 ;; This function is called by:
  9616 ;;		_conta_dente
  9617 ;; This function uses a non-reentrant model
  9618 ;;
  9619                           
  9620                           	psect	text25
  9621  002CA2                     __ptext25:
  9622                           	opt stack 0
  9623  002CA2                     i2___xxtofl:
  9624                           	opt stack 24
  9625                           
  9626                           ;incstack = 0
  9627                           ;i2___xxtofl@sign stored from wreg
  9628  002CA2  6E09               	movwf	i2___xxtofl@sign,c
  9629  002CA4  5009               	movf	i2___xxtofl@sign,w,c
  9630  002CA6  A4D8               	btfss	status,2,c
  9631  002CA8  AE04               	btfss	i2___xxtofl@val+3,7,c
  9632  002CAA  D01A               	goto	i2l1335
  9633  002CAC  C001  F005         	movff	i2___xxtofl@val,??i2___xxtofl
  9634  002CB0  C002  F006         	movff	i2___xxtofl@val+1,??i2___xxtofl+1
  9635  002CB4  C003  F007         	movff	i2___xxtofl@val+2,??i2___xxtofl+2
  9636  002CB8  C004  F008         	movff	i2___xxtofl@val+3,??i2___xxtofl+3
  9637  002CBC  1E05               	comf	??i2___xxtofl,f,c
  9638  002CBE  1E06               	comf	??i2___xxtofl+1,f,c
  9639  002CC0  1E07               	comf	??i2___xxtofl+2,f,c
  9640  002CC2  1E08               	comf	??i2___xxtofl+3,f,c
  9641  002CC4  2A05               	incf	??i2___xxtofl,f,c
  9642  002CC6  0E00               	movlw	0
  9643  002CC8  2206               	addwfc	??i2___xxtofl+1,f,c
  9644  002CCA  2207               	addwfc	??i2___xxtofl+2,f,c
  9645  002CCC  2208               	addwfc	??i2___xxtofl+3,f,c
  9646  002CCE  C005  F00B         	movff	??i2___xxtofl,i2___xxtofl@arg
  9647  002CD2  C006  F00C         	movff	??i2___xxtofl+1,i2___xxtofl@arg+1
  9648  002CD6  C007  F00D         	movff	??i2___xxtofl+2,i2___xxtofl@arg+2
  9649  002CDA  C008  F00E         	movff	??i2___xxtofl+3,i2___xxtofl@arg+3
  9650  002CDE  D008               	goto	i2l4651
  9651  002CE0                     i2l1335:
  9652  002CE0  C001  F00B         	movff	i2___xxtofl@val,i2___xxtofl@arg
  9653  002CE4  C002  F00C         	movff	i2___xxtofl@val+1,i2___xxtofl@arg+1
  9654  002CE8  C003  F00D         	movff	i2___xxtofl@val+2,i2___xxtofl@arg+2
  9655  002CEC  C004  F00E         	movff	i2___xxtofl@val+3,i2___xxtofl@arg+3
  9656  002CF0                     i2l4651:
  9657  002CF0  5001               	movf	i2___xxtofl@val,w,c
  9658  002CF2  1002               	iorwf	i2___xxtofl@val+1,w,c
  9659  002CF4  1003               	iorwf	i2___xxtofl@val+2,w,c
  9660  002CF6  1004               	iorwf	i2___xxtofl@val+3,w,c
  9661  002CF8  A4D8               	btfss	status,2,c
  9662  002CFA  D009               	goto	i2l4657
  9663  002CFC  0E00               	movlw	0
  9664  002CFE  6E01               	movwf	?i2___xxtofl,c
  9665  002D00  0E00               	movlw	0
  9666  002D02  6E02               	movwf	?i2___xxtofl+1,c
  9667  002D04  0E00               	movlw	0
  9668  002D06  6E03               	movwf	?i2___xxtofl+2,c
  9669  002D08  0E00               	movlw	0
  9670  002D0A  6E04               	movwf	?i2___xxtofl+3,c
  9671  002D0C  0012               	return	
  9672  002D0E                     i2l4657:
  9673  002D0E  0E96               	movlw	150
  9674  002D10  6E0A               	movwf	i2___xxtofl@exp,c
  9675  002D12  D006               	goto	i2l4661
  9676  002D14                     i2l4659:
  9677  002D14  2A0A               	incf	i2___xxtofl@exp,f,c
  9678  002D16  90D8               	bcf	status,0,c
  9679  002D18  320E               	rrcf	i2___xxtofl@arg+3,f,c
  9680  002D1A  320D               	rrcf	i2___xxtofl@arg+2,f,c
  9681  002D1C  320C               	rrcf	i2___xxtofl@arg+1,f,c
  9682  002D1E  320B               	rrcf	i2___xxtofl@arg,f,c
  9683  002D20                     i2l4661:
  9684  002D20  0E00               	movlw	0
  9685  002D22  140B               	andwf	i2___xxtofl@arg,w,c
  9686  002D24  6E05               	movwf	??i2___xxtofl& (0+255),c
  9687  002D26  0E00               	movlw	0
  9688  002D28  140C               	andwf	i2___xxtofl@arg+1,w,c
  9689  002D2A  6E06               	movwf	(??i2___xxtofl+1)& (0+255),c
  9690  002D2C  0E00               	movlw	0
  9691  002D2E  140D               	andwf	i2___xxtofl@arg+2,w,c
  9692  002D30  6E07               	movwf	(??i2___xxtofl+2)& (0+255),c
  9693  002D32  0EFE               	movlw	254
  9694  002D34  140E               	andwf	i2___xxtofl@arg+3,w,c
  9695  002D36  6E08               	movwf	(??i2___xxtofl+3)& (0+255),c
  9696  002D38  5005               	movf	??i2___xxtofl,w,c
  9697  002D3A  1006               	iorwf	??i2___xxtofl+1,w,c
  9698  002D3C  1007               	iorwf	??i2___xxtofl+2,w,c
  9699  002D3E  1008               	iorwf	??i2___xxtofl+3,w,c
  9700  002D40  B4D8               	btfsc	status,2,c
  9701  002D42  D00D               	goto	i2l1342
  9702  002D44  D7E7               	goto	i2l4659
  9703  002D46                     i2l4663:
  9704  002D46  2A0A               	incf	i2___xxtofl@exp,f,c
  9705  002D48  0E01               	movlw	1
  9706  002D4A  260B               	addwf	i2___xxtofl@arg,f,c
  9707  002D4C  0E00               	movlw	0
  9708  002D4E  220C               	addwfc	i2___xxtofl@arg+1,f,c
  9709  002D50  220D               	addwfc	i2___xxtofl@arg+2,f,c
  9710  002D52  220E               	addwfc	i2___xxtofl@arg+3,f,c
  9711  002D54  90D8               	bcf	status,0,c
  9712  002D56  320E               	rrcf	i2___xxtofl@arg+3,f,c
  9713  002D58  320D               	rrcf	i2___xxtofl@arg+2,f,c
  9714  002D5A  320C               	rrcf	i2___xxtofl@arg+1,f,c
  9715  002D5C  320B               	rrcf	i2___xxtofl@arg,f,c
  9716  002D5E                     i2l1342:
  9717  002D5E  0E00               	movlw	0
  9718  002D60  140B               	andwf	i2___xxtofl@arg,w,c
  9719  002D62  6E05               	movwf	??i2___xxtofl& (0+255),c
  9720  002D64  0E00               	movlw	0
  9721  002D66  140C               	andwf	i2___xxtofl@arg+1,w,c
  9722  002D68  6E06               	movwf	(??i2___xxtofl+1)& (0+255),c
  9723  002D6A  0E00               	movlw	0
  9724  002D6C  140D               	andwf	i2___xxtofl@arg+2,w,c
  9725  002D6E  6E07               	movwf	(??i2___xxtofl+2)& (0+255),c
  9726  002D70  0EFF               	movlw	255
  9727  002D72  140E               	andwf	i2___xxtofl@arg+3,w,c
  9728  002D74  6E08               	movwf	(??i2___xxtofl+3)& (0+255),c
  9729  002D76  5005               	movf	??i2___xxtofl,w,c
  9730  002D78  1006               	iorwf	??i2___xxtofl+1,w,c
  9731  002D7A  1007               	iorwf	??i2___xxtofl+2,w,c
  9732  002D7C  1008               	iorwf	??i2___xxtofl+3,w,c
  9733  002D7E  B4D8               	btfsc	status,2,c
  9734  002D80  D007               	goto	i2l4671
  9735  002D82  D7E1               	goto	i2l4663
  9736  002D84                     i2l4669:
  9737  002D84  060A               	decf	i2___xxtofl@exp,f,c
  9738  002D86  90D8               	bcf	status,0,c
  9739  002D88  360B               	rlcf	i2___xxtofl@arg,f,c
  9740  002D8A  360C               	rlcf	i2___xxtofl@arg+1,f,c
  9741  002D8C  360D               	rlcf	i2___xxtofl@arg+2,f,c
  9742  002D8E  360E               	rlcf	i2___xxtofl@arg+3,f,c
  9743  002D90                     i2l4671:
  9744  002D90  BE0D               	btfsc	i2___xxtofl@arg+2,7,c
  9745  002D92  D003               	goto	i2l1349
  9746  002D94  0E02               	movlw	2
  9747  002D96  600A               	cpfslt	i2___xxtofl@exp,c
  9748  002D98  D7F5               	goto	i2l4669
  9749  002D9A                     i2l1349:
  9750  002D9A  B00A               	btfsc	i2___xxtofl@exp,0,c
  9751  002D9C  D008               	goto	i2l1350
  9752  002D9E  0EFF               	movlw	255
  9753  002DA0  160B               	andwf	i2___xxtofl@arg,f,c
  9754  002DA2  0EFF               	movlw	255
  9755  002DA4  160C               	andwf	i2___xxtofl@arg+1,f,c
  9756  002DA6  0E7F               	movlw	127
  9757  002DA8  160D               	andwf	i2___xxtofl@arg+2,f,c
  9758  002DAA  0EFF               	movlw	255
  9759  002DAC  160E               	andwf	i2___xxtofl@arg+3,f,c
  9760  002DAE                     i2l1350:
  9761  002DAE  90D8               	bcf	status,0,c
  9762  002DB0  320A               	rrcf	i2___xxtofl@exp,f,c
  9763  002DB2  C00A  F005         	movff	i2___xxtofl@exp,??i2___xxtofl
  9764  002DB6  6A06               	clrf	(??i2___xxtofl+1)& (0+255),c
  9765  002DB8  6A07               	clrf	(??i2___xxtofl+2)& (0+255),c
  9766  002DBA  6A08               	clrf	(??i2___xxtofl+3)& (0+255),c
  9767  002DBC  C005  F008         	movff	??i2___xxtofl,??i2___xxtofl+3
  9768  002DC0  6A07               	clrf	??i2___xxtofl+2,c
  9769  002DC2  6A06               	clrf	??i2___xxtofl+1,c
  9770  002DC4  6A05               	clrf	??i2___xxtofl,c
  9771  002DC6  5005               	movf	??i2___xxtofl,w,c
  9772  002DC8  120B               	iorwf	i2___xxtofl@arg,f,c
  9773  002DCA  5006               	movf	??i2___xxtofl+1,w,c
  9774  002DCC  120C               	iorwf	i2___xxtofl@arg+1,f,c
  9775  002DCE  5007               	movf	??i2___xxtofl+2,w,c
  9776  002DD0  120D               	iorwf	i2___xxtofl@arg+2,f,c
  9777  002DD2  5008               	movf	??i2___xxtofl+3,w,c
  9778  002DD4  120E               	iorwf	i2___xxtofl@arg+3,f,c
  9779  002DD6  5009               	movf	i2___xxtofl@sign,w,c
  9780  002DD8  A4D8               	btfss	status,2,c
  9781  002DDA  AE04               	btfss	i2___xxtofl@val+3,7,c
  9782  002DDC  D001               	goto	i2l4683
  9783  002DDE  8E0E               	bsf	i2___xxtofl@arg+3,7,c
  9784  002DE0                     i2l4683:
  9785  002DE0  C00B  F001         	movff	i2___xxtofl@arg,?i2___xxtofl
  9786  002DE4  C00C  F002         	movff	i2___xxtofl@arg+1,?i2___xxtofl+1
  9787  002DE8  C00D  F003         	movff	i2___xxtofl@arg+2,?i2___xxtofl+2
  9788  002DEC  C00E  F004         	movff	i2___xxtofl@arg+3,?i2___xxtofl+3
  9789  002DF0  0012               	return	
  9790  002DF2                     __end_ofi2___xxtofl:
  9791                           	opt stack 0
  9792                           stkptr	equ	0xFFC
  9793                           pclatu	equ	0xFFB
  9794                           pclath	equ	0xFFA
  9795                           tblptru	equ	0xFF8
  9796                           tblptrh	equ	0xFF7
  9797                           tblptrl	equ	0xFF6
  9798                           tablat	equ	0xFF5
  9799                           prodh	equ	0xFF4
  9800                           prodl	equ	0xFF3
  9801                           intcon	equ	0xFF2
  9802                           intcon2	equ	0xFF1
  9803                           postinc0	equ	0xFEE
  9804                           fsr0h	equ	0xFEA
  9805                           fsr0l	equ	0xFE9
  9806                           wreg	equ	0xFE8
  9807                           postdec1	equ	0xFE5
  9808                           fsr1h	equ	0xFE2
  9809                           fsr1l	equ	0xFE1
  9810                           bsr	equ	0xFE0
  9811                           fsr2h	equ	0xFDA
  9812                           fsr2l	equ	0xFD9
  9813                           status	equ	0xFD8
  9814                           
  9815 ;; *************** function i2___fltol *****************
  9816 ;; Defined at:
  9817 ;;		line 43 in file "C:\Program Files (x86)\Microchip\xc8\v1.42\sources\common\fltol.c"
  9818 ;; Parameters:    Size  Location     Type
  9819 ;;  f1              4   64[COMRAM] unsigned char 
  9820 ;; Auto vars:     Size  Location     Type
  9821 ;;  __fltol         1   73[COMRAM] unsigned char 
  9822 ;;  __fltol         1   72[COMRAM] unsigned char 
  9823 ;; Return value:  Size  Location     Type
  9824 ;;                  4   64[COMRAM] long 
  9825 ;; Registers used:
  9826 ;;		wreg, status,2, status,0
  9827 ;; Tracked objects:
  9828 ;;		On entry : 0/0
  9829 ;;		On exit  : 0/0
  9830 ;;		Unchanged: 0/0
  9831 ;; Data sizes:     COMRAM   BANK0   BANK1   BANK2   BANK3   BANK4   BANK5   BANK6   BANK7   BANK8   BANK9  BANK10  BANK1
      +1  BANK12  BANK13  BANK14  BANK15
  9832 ;;      Params:         4       0       0       0       0       0       0       0       0       0       0       0       
      +0       0       0       0       0
  9833 ;;      Locals:         2       0       0       0       0       0       0       0       0       0       0       0       
      +0       0       0       0       0
  9834 ;;      Temps:          4       0       0       0       0       0       0       0       0       0       0       0       
      +0       0       0       0       0
  9835 ;;      Totals:        10       0       0       0       0       0       0       0       0       0       0       0       
      +0       0       0       0       0
  9836 ;;Total ram usage:       10 bytes
  9837 ;; Hardware stack levels used:    1
  9838 ;; This function calls:
  9839 ;;		Nothing
  9840 ;; This function is called by:
  9841 ;;		_conta_dente
  9842 ;; This function uses a non-reentrant model
  9843 ;;
  9844                           
  9845                           	psect	text26
  9846  003018                     __ptext26:
  9847                           	opt stack 0
  9848  003018                     i2___fltol:
  9849                           	opt stack 24
  9850                           
  9851                           ;incstack = 0
  9852  003018  3443               	rlcf	i2___fltol@f1+2,w,c
  9853  00301A  3444               	rlcf	i2___fltol@f1+3,w,c
  9854  00301C  6E4A               	movwf	i2___fltol@exp1,c
  9855  00301E  504A               	movf	i2___fltol@exp1,w,c
  9856  003020  A4D8               	btfss	status,2,c
  9857  003022  D009               	goto	i2l4341
  9858  003024  0E00               	movlw	0
  9859  003026  6E41               	movwf	?i2___fltol,c
  9860  003028  0E00               	movlw	0
  9861  00302A  6E42               	movwf	?i2___fltol+1,c
  9862  00302C  0E00               	movlw	0
  9863  00302E  6E43               	movwf	?i2___fltol+2,c
  9864  003030  0E00               	movlw	0
  9865  003032  6E44               	movwf	?i2___fltol+3,c
  9866  003034  0012               	return	
  9867  003036                     i2l4341:
  9868  003036  C041  F045         	movff	i2___fltol@f1,??i2___fltol
  9869  00303A  C042  F046         	movff	i2___fltol@f1+1,??i2___fltol+1
  9870  00303E  C043  F047         	movff	i2___fltol@f1+2,??i2___fltol+2
  9871  003042  C044  F048         	movff	i2___fltol@f1+3,??i2___fltol+3
  9872  003046  0E20               	movlw	32
  9873  003048  D005               	goto	i2u411_40
  9874  00304A                     i2u411_45:
  9875  00304A  90D8               	bcf	status,0,c
  9876  00304C  3248               	rrcf	??i2___fltol+3,f,c
  9877  00304E  3247               	rrcf	??i2___fltol+2,f,c
  9878  003050  3246               	rrcf	??i2___fltol+1,f,c
  9879  003052  3245               	rrcf	??i2___fltol,f,c
  9880  003054                     i2u411_40:
  9881  003054  2EE8               	decfsz	wreg,f,c
  9882  003056  D7F9               	goto	i2u411_45
  9883  003058  5045               	movf	??i2___fltol,w,c
  9884  00305A  6E49               	movwf	i2___fltol@sign1,c
  9885  00305C  8E43               	bsf	i2___fltol@f1+2,7,c
  9886  00305E  0EFF               	movlw	255
  9887  003060  1641               	andwf	i2___fltol@f1,f,c
  9888  003062  0EFF               	movlw	255
  9889  003064  1642               	andwf	i2___fltol@f1+1,f,c
  9890  003066  0EFF               	movlw	255
  9891  003068  1643               	andwf	i2___fltol@f1+2,f,c
  9892  00306A  0E00               	movlw	0
  9893  00306C  1644               	andwf	i2___fltol@f1+3,f,c
  9894  00306E  0E96               	movlw	150
  9895  003070  5E4A               	subwf	i2___fltol@exp1,f,c
  9896  003072  AE4A               	btfss	i2___fltol@exp1,7,c
  9897  003074  D016               	goto	i2l4361
  9898  003076  504A               	movf	i2___fltol@exp1,w,c
  9899  003078  0A80               	xorlw	128
  9900  00307A  0F97               	addlw	151
  9901  00307C  B0D8               	btfsc	status,0,c
  9902  00307E  D009               	goto	i2l4357
  9903  003080  0E00               	movlw	0
  9904  003082  6E41               	movwf	?i2___fltol,c
  9905  003084  0E00               	movlw	0
  9906  003086  6E42               	movwf	?i2___fltol+1,c
  9907  003088  0E00               	movlw	0
  9908  00308A  6E43               	movwf	?i2___fltol+2,c
  9909  00308C  0E00               	movlw	0
  9910  00308E  6E44               	movwf	?i2___fltol+3,c
  9911  003090  0012               	return	
  9912  003092                     i2l4357:
  9913  003092  90D8               	bcf	status,0,c
  9914  003094  3244               	rrcf	i2___fltol@f1+3,f,c
  9915  003096  3243               	rrcf	i2___fltol@f1+2,f,c
  9916  003098  3242               	rrcf	i2___fltol@f1+1,f,c
  9917  00309A  3241               	rrcf	i2___fltol@f1,f,c
  9918  00309C  3E4A               	incfsz	i2___fltol@exp1,f,c
  9919  00309E  D7F9               	goto	i2l4357
  9920  0030A0  D015               	goto	i2l4371
  9921  0030A2                     i2l4361:
  9922  0030A2  0E1F               	movlw	31
  9923  0030A4  644A               	cpfsgt	i2___fltol@exp1,c
  9924  0030A6  D00F               	goto	i2l4369
  9925  0030A8  0E00               	movlw	0
  9926  0030AA  6E41               	movwf	?i2___fltol,c
  9927  0030AC  0E00               	movlw	0
  9928  0030AE  6E42               	movwf	?i2___fltol+1,c
  9929  0030B0  0E00               	movlw	0
  9930  0030B2  6E43               	movwf	?i2___fltol+2,c
  9931  0030B4  0E00               	movlw	0
  9932  0030B6  6E44               	movwf	?i2___fltol+3,c
  9933  0030B8  0012               	return	
  9934  0030BA                     i2l4367:
  9935  0030BA  90D8               	bcf	status,0,c
  9936  0030BC  3641               	rlcf	i2___fltol@f1,f,c
  9937  0030BE  3642               	rlcf	i2___fltol@f1+1,f,c
  9938  0030C0  3643               	rlcf	i2___fltol@f1+2,f,c
  9939  0030C2  3644               	rlcf	i2___fltol@f1+3,f,c
  9940  0030C4  064A               	decf	i2___fltol@exp1,f,c
  9941  0030C6                     i2l4369:
  9942  0030C6  504A               	movf	i2___fltol@exp1,w,c
  9943  0030C8  A4D8               	btfss	status,2,c
  9944  0030CA  D7F7               	goto	i2l4367
  9945  0030CC                     i2l4371:
  9946  0030CC  5049               	movf	i2___fltol@sign1,w,c
  9947  0030CE  B4D8               	btfsc	status,2,c
  9948  0030D0  D008               	goto	i2l4375
  9949  0030D2  1E44               	comf	i2___fltol@f1+3,f,c
  9950  0030D4  1E43               	comf	i2___fltol@f1+2,f,c
  9951  0030D6  1E42               	comf	i2___fltol@f1+1,f,c
  9952  0030D8  6C41               	negf	i2___fltol@f1,c
  9953  0030DA  0E00               	movlw	0
  9954  0030DC  2242               	addwfc	i2___fltol@f1+1,f,c
  9955  0030DE  2243               	addwfc	i2___fltol@f1+2,f,c
  9956  0030E0  2244               	addwfc	i2___fltol@f1+3,f,c
  9957  0030E2                     i2l4375:
  9958  0030E2  C041  F041         	movff	i2___fltol@f1,?i2___fltol
  9959  0030E6  C042  F042         	movff	i2___fltol@f1+1,?i2___fltol+1
  9960  0030EA  C043  F043         	movff	i2___fltol@f1+2,?i2___fltol+2
  9961  0030EE  C044  F044         	movff	i2___fltol@f1+3,?i2___fltol+3
  9962  0030F2  0012               	return	
  9963  0030F4                     __end_ofi2___fltol:
  9964                           	opt stack 0
  9965                           stkptr	equ	0xFFC
  9966                           pclatu	equ	0xFFB
  9967                           pclath	equ	0xFFA
  9968                           tblptru	equ	0xFF8
  9969                           tblptrh	equ	0xFF7
  9970                           tblptrl	equ	0xFF6
  9971                           tablat	equ	0xFF5
  9972                           prodh	equ	0xFF4
  9973                           prodl	equ	0xFF3
  9974                           intcon	equ	0xFF2
  9975                           intcon2	equ	0xFF1
  9976                           postinc0	equ	0xFEE
  9977                           fsr0h	equ	0xFEA
  9978                           fsr0l	equ	0xFE9
  9979                           wreg	equ	0xFE8
  9980                           postdec1	equ	0xFE5
  9981                           fsr1h	equ	0xFE2
  9982                           fsr1l	equ	0xFE1
  9983                           bsr	equ	0xFE0
  9984                           fsr2h	equ	0xFDA
  9985                           fsr2l	equ	0xFD9
  9986                           status	equ	0xFD8
  9987                           
  9988 ;; *************** function i2___flmul *****************
  9989 ;; Defined at:
  9990 ;;		line 8 in file "C:\Program Files (x86)\Microchip\xc8\v1.42\sources\common\sprcmul.c"
  9991 ;; Parameters:    Size  Location     Type
  9992 ;;  b               4   14[COMRAM] long 
  9993 ;;  a               4   18[COMRAM] long 
  9994 ;; Auto vars:     Size  Location     Type
  9995 ;;  __flmul         4   33[COMRAM] struct .
  9996 ;;  __flmul         4   28[COMRAM] unsigned long 
  9997 ;;  __flmul         2   37[COMRAM] struct .
  9998 ;;  __flmul         1   32[COMRAM] unsigned char 
  9999 ;;  __flmul         1   27[COMRAM] unsigned char 
 10000 ;;  __flmul         1   26[COMRAM] unsigned char 
 10001 ;; Return value:  Size  Location     Type
 10002 ;;                  4   14[COMRAM] unsigned char 
 10003 ;; Registers used:
 10004 ;;		wreg, status,2, status,0, prodl, prodh
 10005 ;; Tracked objects:
 10006 ;;		On entry : 0/0
 10007 ;;		On exit  : 0/0
 10008 ;;		Unchanged: 0/0
 10009 ;; Data sizes:     COMRAM   BANK0   BANK1   BANK2   BANK3   BANK4   BANK5   BANK6   BANK7   BANK8   BANK9  BANK10  BANK1
      +1  BANK12  BANK13  BANK14  BANK15
 10010 ;;      Params:         8       0       0       0       0       0       0       0       0       0       0       0       
      +0       0       0       0       0
 10011 ;;      Locals:        13       0       0       0       0       0       0       0       0       0       0       0       
      +0       0       0       0       0
 10012 ;;      Temps:          4       0       0       0       0       0       0       0       0       0       0       0       
      +0       0       0       0       0
 10013 ;;      Totals:        25       0       0       0       0       0       0       0       0       0       0       0       
      +0       0       0       0       0
 10014 ;;Total ram usage:       25 bytes
 10015 ;; Hardware stack levels used:    1
 10016 ;; This function calls:
 10017 ;;		Nothing
 10018 ;; This function is called by:
 10019 ;;		_conta_dente
 10020 ;; This function uses a non-reentrant model
 10021 ;;
 10022                           
 10023                           	psect	text27
 10024  0020EC                     __ptext27:
 10025                           	opt stack 0
 10026  0020EC                     i2___flmul:
 10027                           	opt stack 24
 10028                           
 10029                           ;incstack = 0
 10030  0020EC  5012               	movf	i2___flmul@b+3,w,c
 10031  0020EE  0B80               	andlw	128
 10032  0020F0  6E1B               	movwf	i2___flmul@sign,c
 10033  0020F2  5012               	movf	i2___flmul@b+3,w,c
 10034  0020F4  2412               	addwf	i2___flmul@b+3,w,c
 10035  0020F6  6E21               	movwf	i2___flmul@bexp,c
 10036  0020F8  BE11               	btfsc	i2___flmul@b+2,7,c
 10037  0020FA  8021               	bsf	i2___flmul@bexp,0,c
 10038  0020FC  5021               	movf	i2___flmul@bexp,w,c
 10039  0020FE  B4D8               	btfsc	status,2,c
 10040  002100  D00D               	goto	i2l6389
 10041  002102  2821               	incf	i2___flmul@bexp,w,c
 10042  002104  A4D8               	btfss	status,2,c
 10043  002106  D008               	goto	i2l6387
 10044  002108  0E00               	movlw	0
 10045  00210A  6E0F               	movwf	i2___flmul@b,c
 10046  00210C  0E00               	movlw	0
 10047  00210E  6E10               	movwf	i2___flmul@b+1,c
 10048  002110  0E00               	movlw	0
 10049  002112  6E11               	movwf	i2___flmul@b+2,c
 10050  002114  0E00               	movlw	0
 10051  002116  6E12               	movwf	i2___flmul@b+3,c
 10052  002118                     i2l6387:
 10053  002118  8E11               	bsf	i2___flmul@b+2,7,c
 10054  00211A  D008               	goto	i2l6391
 10055  00211C                     i2l6389:
 10056  00211C  0E00               	movlw	0
 10057  00211E  6E0F               	movwf	i2___flmul@b,c
 10058  002120  0E00               	movlw	0
 10059  002122  6E10               	movwf	i2___flmul@b+1,c
 10060  002124  0E00               	movlw	0
 10061  002126  6E11               	movwf	i2___flmul@b+2,c
 10062  002128  0E00               	movlw	0
 10063  00212A  6E12               	movwf	i2___flmul@b+3,c
 10064  00212C                     i2l6391:
 10065  00212C  5016               	movf	i2___flmul@a+3,w,c
 10066  00212E  0B80               	andlw	128
 10067  002130  1A1B               	xorwf	i2___flmul@sign,f,c
 10068  002132  5016               	movf	i2___flmul@a+3,w,c
 10069  002134  2416               	addwf	i2___flmul@a+3,w,c
 10070  002136  6E1C               	movwf	i2___flmul@aexp,c
 10071  002138  BE15               	btfsc	i2___flmul@a+2,7,c
 10072  00213A  801C               	bsf	i2___flmul@aexp,0,c
 10073  00213C  501C               	movf	i2___flmul@aexp,w,c
 10074  00213E  B4D8               	btfsc	status,2,c
 10075  002140  D00D               	goto	i2l6407
 10076  002142  281C               	incf	i2___flmul@aexp,w,c
 10077  002144  A4D8               	btfss	status,2,c
 10078  002146  D008               	goto	i2l6405
 10079  002148  0E00               	movlw	0
 10080  00214A  6E13               	movwf	i2___flmul@a,c
 10081  00214C  0E00               	movlw	0
 10082  00214E  6E14               	movwf	i2___flmul@a+1,c
 10083  002150  0E00               	movlw	0
 10084  002152  6E15               	movwf	i2___flmul@a+2,c
 10085  002154  0E00               	movlw	0
 10086  002156  6E16               	movwf	i2___flmul@a+3,c
 10087  002158                     i2l6405:
 10088  002158  8E15               	bsf	i2___flmul@a+2,7,c
 10089  00215A  D008               	goto	i2l1313
 10090  00215C                     i2l6407:
 10091  00215C  0E00               	movlw	0
 10092  00215E  6E13               	movwf	i2___flmul@a,c
 10093  002160  0E00               	movlw	0
 10094  002162  6E14               	movwf	i2___flmul@a+1,c
 10095  002164  0E00               	movlw	0
 10096  002166  6E15               	movwf	i2___flmul@a+2,c
 10097  002168  0E00               	movlw	0
 10098  00216A  6E16               	movwf	i2___flmul@a+3,c
 10099  00216C                     i2l1313:
 10100  00216C  501C               	movf	i2___flmul@aexp,w,c
 10101  00216E  B4D8               	btfsc	status,2,c
 10102  002170  D003               	goto	i2l6411
 10103  002172  5021               	movf	i2___flmul@bexp,w,c
 10104  002174  A4D8               	btfss	status,2,c
 10105  002176  D009               	goto	i2l6415
 10106  002178                     i2l6411:
 10107  002178  0E00               	movlw	0
 10108  00217A  6E0F               	movwf	?i2___flmul,c
 10109  00217C  0E00               	movlw	0
 10110  00217E  6E10               	movwf	?i2___flmul+1,c
 10111  002180  0E00               	movlw	0
 10112  002182  6E11               	movwf	?i2___flmul+2,c
 10113  002184  0E00               	movlw	0
 10114  002186  6E12               	movwf	?i2___flmul+3,c
 10115  002188  0012               	return	
 10116  00218A                     i2l6415:
 10117  00218A  5015               	movf	i2___flmul@a+2,w,c
 10118  00218C  020F               	mulwf	i2___flmul@b,c
 10119  00218E  CFF3 F026          	movff	prodl,i2___flmul@temp
 10120  002192  CFF4 F027          	movff	prodh,i2___flmul@temp+1
 10121  002196  5026               	movf	i2___flmul@temp,w,c
 10122  002198  6E1D               	movwf	i2___flmul@grs,c
 10123  00219A  6A1E               	clrf	i2___flmul@grs+1,c
 10124  00219C  6A1F               	clrf	i2___flmul@grs+2,c
 10125  00219E  6A20               	clrf	i2___flmul@grs+3,c
 10126  0021A0  5027               	movf	i2___flmul@temp+1,w,c
 10127  0021A2  6E22               	movwf	i2___flmul@prod,c
 10128  0021A4  6A23               	clrf	i2___flmul@prod+1,c
 10129  0021A6  6A24               	clrf	i2___flmul@prod+2,c
 10130  0021A8  6A25               	clrf	i2___flmul@prod+3,c
 10131  0021AA  5014               	movf	i2___flmul@a+1,w,c
 10132  0021AC  0210               	mulwf	i2___flmul@b+1,c
 10133  0021AE  CFF3 F026          	movff	prodl,i2___flmul@temp
 10134  0021B2  CFF4 F027          	movff	prodh,i2___flmul@temp+1
 10135  0021B6  5026               	movf	i2___flmul@temp,w,c
 10136  0021B8  261D               	addwf	i2___flmul@grs,f,c
 10137  0021BA  0E00               	movlw	0
 10138  0021BC  221E               	addwfc	i2___flmul@grs+1,f,c
 10139  0021BE  221F               	addwfc	i2___flmul@grs+2,f,c
 10140  0021C0  2220               	addwfc	i2___flmul@grs+3,f,c
 10141  0021C2  5027               	movf	i2___flmul@temp+1,w,c
 10142  0021C4  2622               	addwf	i2___flmul@prod,f,c
 10143  0021C6  0E00               	movlw	0
 10144  0021C8  2223               	addwfc	i2___flmul@prod+1,f,c
 10145  0021CA  2224               	addwfc	i2___flmul@prod+2,f,c
 10146  0021CC  2225               	addwfc	i2___flmul@prod+3,f,c
 10147  0021CE  5013               	movf	i2___flmul@a,w,c
 10148  0021D0  0211               	mulwf	i2___flmul@b+2,c
 10149  0021D2  CFF3 F026          	movff	prodl,i2___flmul@temp
 10150  0021D6  CFF4 F027          	movff	prodh,i2___flmul@temp+1
 10151  0021DA  5026               	movf	i2___flmul@temp,w,c
 10152  0021DC  261D               	addwf	i2___flmul@grs,f,c
 10153  0021DE  0E00               	movlw	0
 10154  0021E0  221E               	addwfc	i2___flmul@grs+1,f,c
 10155  0021E2  221F               	addwfc	i2___flmul@grs+2,f,c
 10156  0021E4  2220               	addwfc	i2___flmul@grs+3,f,c
 10157  0021E6  5027               	movf	i2___flmul@temp+1,w,c
 10158  0021E8  2622               	addwf	i2___flmul@prod,f,c
 10159  0021EA  0E00               	movlw	0
 10160  0021EC  2223               	addwfc	i2___flmul@prod+1,f,c
 10161  0021EE  2224               	addwfc	i2___flmul@prod+2,f,c
 10162  0021F0  2225               	addwfc	i2___flmul@prod+3,f,c
 10163  0021F2  C01F  F020         	movff	i2___flmul@grs+2,i2___flmul@grs+3
 10164  0021F6  C01E  F01F         	movff	i2___flmul@grs+1,i2___flmul@grs+2
 10165  0021FA  C01D  F01E         	movff	i2___flmul@grs,i2___flmul@grs+1
 10166  0021FE  6A1D               	clrf	i2___flmul@grs,c
 10167  002200  5013               	movf	i2___flmul@a,w,c
 10168  002202  0210               	mulwf	i2___flmul@b+1,c
 10169  002204  CFF3 F026          	movff	prodl,i2___flmul@temp
 10170  002208  CFF4 F027          	movff	prodh,i2___flmul@temp+1
 10171  00220C  5026               	movf	i2___flmul@temp,w,c
 10172  00220E  261D               	addwf	i2___flmul@grs,f,c
 10173  002210  5027               	movf	i2___flmul@temp+1,w,c
 10174  002212  221E               	addwfc	i2___flmul@grs+1,f,c
 10175  002214  0E00               	movlw	0
 10176  002216  221F               	addwfc	i2___flmul@grs+2,f,c
 10177  002218  0E00               	movlw	0
 10178  00221A  2220               	addwfc	i2___flmul@grs+3,f,c
 10179  00221C  5014               	movf	i2___flmul@a+1,w,c
 10180  00221E  020F               	mulwf	i2___flmul@b,c
 10181  002220  CFF3 F026          	movff	prodl,i2___flmul@temp
 10182  002224  CFF4 F027          	movff	prodh,i2___flmul@temp+1
 10183  002228  5026               	movf	i2___flmul@temp,w,c
 10184  00222A  261D               	addwf	i2___flmul@grs,f,c
 10185  00222C  5027               	movf	i2___flmul@temp+1,w,c
 10186  00222E  221E               	addwfc	i2___flmul@grs+1,f,c
 10187  002230  0E00               	movlw	0
 10188  002232  221F               	addwfc	i2___flmul@grs+2,f,c
 10189  002234  0E00               	movlw	0
 10190  002236  2220               	addwfc	i2___flmul@grs+3,f,c
 10191  002238  C01F  F020         	movff	i2___flmul@grs+2,i2___flmul@grs+3
 10192  00223C  C01E  F01F         	movff	i2___flmul@grs+1,i2___flmul@grs+2
 10193  002240  C01D  F01E         	movff	i2___flmul@grs,i2___flmul@grs+1
 10194  002244  6A1D               	clrf	i2___flmul@grs,c
 10195  002246  5013               	movf	i2___flmul@a,w,c
 10196  002248  020F               	mulwf	i2___flmul@b,c
 10197  00224A  CFF3 F026          	movff	prodl,i2___flmul@temp
 10198  00224E  CFF4 F027          	movff	prodh,i2___flmul@temp+1
 10199  002252  5026               	movf	i2___flmul@temp,w,c
 10200  002254  261D               	addwf	i2___flmul@grs,f,c
 10201  002256  5027               	movf	i2___flmul@temp+1,w,c
 10202  002258  221E               	addwfc	i2___flmul@grs+1,f,c
 10203  00225A  0E00               	movlw	0
 10204  00225C  221F               	addwfc	i2___flmul@grs+2,f,c
 10205  00225E  0E00               	movlw	0
 10206  002260  2220               	addwfc	i2___flmul@grs+3,f,c
 10207  002262  5015               	movf	i2___flmul@a+2,w,c
 10208  002264  0210               	mulwf	i2___flmul@b+1,c
 10209  002266  CFF3 F026          	movff	prodl,i2___flmul@temp
 10210  00226A  CFF4 F027          	movff	prodh,i2___flmul@temp+1
 10211  00226E  5026               	movf	i2___flmul@temp,w,c
 10212  002270  2622               	addwf	i2___flmul@prod,f,c
 10213  002272  5027               	movf	i2___flmul@temp+1,w,c
 10214  002274  2223               	addwfc	i2___flmul@prod+1,f,c
 10215  002276  0E00               	movlw	0
 10216  002278  2224               	addwfc	i2___flmul@prod+2,f,c
 10217  00227A  0E00               	movlw	0
 10218  00227C  2225               	addwfc	i2___flmul@prod+3,f,c
 10219  00227E  5014               	movf	i2___flmul@a+1,w,c
 10220  002280  0211               	mulwf	i2___flmul@b+2,c
 10221  002282  CFF3 F026          	movff	prodl,i2___flmul@temp
 10222  002286  CFF4 F027          	movff	prodh,i2___flmul@temp+1
 10223  00228A  5026               	movf	i2___flmul@temp,w,c
 10224  00228C  2622               	addwf	i2___flmul@prod,f,c
 10225  00228E  5027               	movf	i2___flmul@temp+1,w,c
 10226  002290  2223               	addwfc	i2___flmul@prod+1,f,c
 10227  002292  0E00               	movlw	0
 10228  002294  2224               	addwfc	i2___flmul@prod+2,f,c
 10229  002296  0E00               	movlw	0
 10230  002298  2225               	addwfc	i2___flmul@prod+3,f,c
 10231  00229A  5015               	movf	i2___flmul@a+2,w,c
 10232  00229C  0211               	mulwf	i2___flmul@b+2,c
 10233  00229E  CFF3 F026          	movff	prodl,i2___flmul@temp
 10234  0022A2  CFF4 F027          	movff	prodh,i2___flmul@temp+1
 10235  0022A6  5026               	movf	i2___flmul@temp,w,c
 10236  0022A8  6E17               	movwf	??i2___flmul& (0+255),c
 10237  0022AA  5027               	movf	i2___flmul@temp+1,w,c
 10238  0022AC  6E18               	movwf	(??i2___flmul+1)& (0+255),c
 10239  0022AE  6A19               	clrf	(??i2___flmul+2)& (0+255),c
 10240  0022B0  6A1A               	clrf	(??i2___flmul+3)& (0+255),c
 10241  0022B2  C019  F01A         	movff	??i2___flmul+2,??i2___flmul+3
 10242  0022B6  C018  F019         	movff	??i2___flmul+1,??i2___flmul+2
 10243  0022BA  C017  F018         	movff	??i2___flmul,??i2___flmul+1
 10244  0022BE  6A17               	clrf	??i2___flmul,c
 10245  0022C0  5017               	movf	??i2___flmul,w,c
 10246  0022C2  2622               	addwf	i2___flmul@prod,f,c
 10247  0022C4  5018               	movf	??i2___flmul+1,w,c
 10248  0022C6  2223               	addwfc	i2___flmul@prod+1,f,c
 10249  0022C8  5019               	movf	??i2___flmul+2,w,c
 10250  0022CA  2224               	addwfc	i2___flmul@prod+2,f,c
 10251  0022CC  501A               	movf	??i2___flmul+3,w,c
 10252  0022CE  2225               	addwfc	i2___flmul@prod+3,f,c
 10253  0022D0  C01D  F017         	movff	i2___flmul@grs,??i2___flmul
 10254  0022D4  C01E  F018         	movff	i2___flmul@grs+1,??i2___flmul+1
 10255  0022D8  C01F  F019         	movff	i2___flmul@grs+2,??i2___flmul+2
 10256  0022DC  C020  F01A         	movff	i2___flmul@grs+3,??i2___flmul+3
 10257  0022E0  0E19               	movlw	25
 10258  0022E2  D005               	goto	i2u715_40
 10259  0022E4                     i2u715_45:
 10260  0022E4  90D8               	bcf	status,0,c
 10261  0022E6  321A               	rrcf	??i2___flmul+3,f,c
 10262  0022E8  3219               	rrcf	??i2___flmul+2,f,c
 10263  0022EA  3218               	rrcf	??i2___flmul+1,f,c
 10264  0022EC  3217               	rrcf	??i2___flmul,f,c
 10265  0022EE                     i2u715_40:
 10266  0022EE  2EE8               	decfsz	wreg,f,c
 10267  0022F0  D7F9               	goto	i2u715_45
 10268  0022F2  5017               	movf	??i2___flmul,w,c
 10269  0022F4  2622               	addwf	i2___flmul@prod,f,c
 10270  0022F6  5018               	movf	??i2___flmul+1,w,c
 10271  0022F8  2223               	addwfc	i2___flmul@prod+1,f,c
 10272  0022FA  5019               	movf	??i2___flmul+2,w,c
 10273  0022FC  2224               	addwfc	i2___flmul@prod+2,f,c
 10274  0022FE  501A               	movf	??i2___flmul+3,w,c
 10275  002300  2225               	addwfc	i2___flmul@prod+3,f,c
 10276  002302  C01F  F020         	movff	i2___flmul@grs+2,i2___flmul@grs+3
 10277  002306  C01E  F01F         	movff	i2___flmul@grs+1,i2___flmul@grs+2
 10278  00230A  C01D  F01E         	movff	i2___flmul@grs,i2___flmul@grs+1
 10279  00230E  6A1D               	clrf	i2___flmul@grs,c
 10280  002310  501C               	movf	i2___flmul@aexp,w,c
 10281  002312  C021  F017         	movff	i2___flmul@bexp,??i2___flmul
 10282  002316  6A18               	clrf	(??i2___flmul+1)& (0+255),c
 10283  002318  2617               	addwf	??i2___flmul,f,c
 10284  00231A  0E00               	movlw	0
 10285  00231C  2218               	addwfc	??i2___flmul+1,f,c
 10286  00231E  0E82               	movlw	130
 10287  002320  2417               	addwf	??i2___flmul,w,c
 10288  002322  6E26               	movwf	i2___flmul@temp,c
 10289  002324  0EFF               	movlw	255
 10290  002326  2018               	addwfc	??i2___flmul+1,w,c
 10291  002328  6E27               	movwf	i2___flmul@temp+1,c
 10292  00232A  D00F               	goto	i2l6463
 10293  00232C                     i2l6457:
 10294  00232C  90D8               	bcf	status,0,c
 10295  00232E  3622               	rlcf	i2___flmul@prod,f,c
 10296  002330  3623               	rlcf	i2___flmul@prod+1,f,c
 10297  002332  3624               	rlcf	i2___flmul@prod+2,f,c
 10298  002334  3625               	rlcf	i2___flmul@prod+3,f,c
 10299  002336  BE20               	btfsc	i2___flmul@grs+3,7,c
 10300  002338  8022               	bsf	i2___flmul@prod,0,c
 10301  00233A  90D8               	bcf	status,0,c
 10302  00233C  361D               	rlcf	i2___flmul@grs,f,c
 10303  00233E  361E               	rlcf	i2___flmul@grs+1,f,c
 10304  002340  361F               	rlcf	i2___flmul@grs+2,f,c
 10305  002342  3620               	rlcf	i2___flmul@grs+3,f,c
 10306  002344  0626               	decf	i2___flmul@temp,f,c
 10307  002346  A0D8               	btfss	status,0,c
 10308  002348  0627               	decf	i2___flmul@temp+1,f,c
 10309  00234A                     i2l6463:
 10310  00234A  AE24               	btfss	i2___flmul@prod+2,7,c
 10311  00234C  D7EF               	goto	i2l6457
 10312  00234E  0E00               	movlw	0
 10313  002350  6E1C               	movwf	i2___flmul@aexp,c
 10314  002352  AE20               	btfss	i2___flmul@grs+3,7,c
 10315  002354  D016               	goto	i2l1322
 10316  002356  0EFF               	movlw	255
 10317  002358  141D               	andwf	i2___flmul@grs,w,c
 10318  00235A  6E17               	movwf	??i2___flmul& (0+255),c
 10319  00235C  0EFF               	movlw	255
 10320  00235E  141E               	andwf	i2___flmul@grs+1,w,c
 10321  002360  6E18               	movwf	(??i2___flmul+1)& (0+255),c
 10322  002362  0EFF               	movlw	255
 10323  002364  141F               	andwf	i2___flmul@grs+2,w,c
 10324  002366  6E19               	movwf	(??i2___flmul+2)& (0+255),c
 10325  002368  0E7F               	movlw	127
 10326  00236A  1420               	andwf	i2___flmul@grs+3,w,c
 10327  00236C  6E1A               	movwf	(??i2___flmul+3)& (0+255),c
 10328  00236E  5017               	movf	??i2___flmul,w,c
 10329  002370  1018               	iorwf	??i2___flmul+1,w,c
 10330  002372  1019               	iorwf	??i2___flmul+2,w,c
 10331  002374  101A               	iorwf	??i2___flmul+3,w,c
 10332  002376  A4D8               	btfss	status,2,c
 10333  002378  D002               	goto	i2l6473
 10334  00237A  A022               	btfss	i2___flmul@prod,0,c
 10335  00237C  D002               	goto	i2l1322
 10336  00237E                     i2l6473:
 10337  00237E  0E01               	movlw	1
 10338  002380  6E1C               	movwf	i2___flmul@aexp,c
 10339  002382                     i2l1322:
 10340  002382  501C               	movf	i2___flmul@aexp,w,c
 10341  002384  B4D8               	btfsc	status,2,c
 10342  002386  D01F               	goto	i2l6483
 10343  002388  0E01               	movlw	1
 10344  00238A  2622               	addwf	i2___flmul@prod,f,c
 10345  00238C  0E00               	movlw	0
 10346  00238E  2223               	addwfc	i2___flmul@prod+1,f,c
 10347  002390  2224               	addwfc	i2___flmul@prod+2,f,c
 10348  002392  2225               	addwfc	i2___flmul@prod+3,f,c
 10349  002394  A025               	btfss	i2___flmul@prod+3,0,c
 10350  002396  D017               	goto	i2l6483
 10351  002398  C022  F017         	movff	i2___flmul@prod,??i2___flmul
 10352  00239C  C023  F018         	movff	i2___flmul@prod+1,??i2___flmul+1
 10353  0023A0  C024  F019         	movff	i2___flmul@prod+2,??i2___flmul+2
 10354  0023A4  C025  F01A         	movff	i2___flmul@prod+3,??i2___flmul+3
 10355  0023A8  341A               	rlcf	??i2___flmul+3,w,c
 10356  0023AA  321A               	rrcf	??i2___flmul+3,f,c
 10357  0023AC  3219               	rrcf	??i2___flmul+2,f,c
 10358  0023AE  3218               	rrcf	??i2___flmul+1,f,c
 10359  0023B0  3217               	rrcf	??i2___flmul,f,c
 10360  0023B2  C017  F022         	movff	??i2___flmul,i2___flmul@prod
 10361  0023B6  C018  F023         	movff	??i2___flmul+1,i2___flmul@prod+1
 10362  0023BA  C019  F024         	movff	??i2___flmul+2,i2___flmul@prod+2
 10363  0023BE  C01A  F025         	movff	??i2___flmul+3,i2___flmul@prod+3
 10364  0023C2  4A26               	infsnz	i2___flmul@temp,f,c
 10365  0023C4  2A27               	incf	i2___flmul@temp+1,f,c
 10366  0023C6                     i2l6483:
 10367  0023C6  BE27               	btfsc	i2___flmul@temp+1,7,c
 10368  0023C8  D00D               	goto	i2l6487
 10369  0023CA  5027               	movf	i2___flmul@temp+1,w,c
 10370  0023CC  E103               	bnz	i2u723_40
 10371  0023CE  2826               	incf	i2___flmul@temp,w,c
 10372  0023D0  A0D8               	btfss	status,0,c
 10373  0023D2  D008               	goto	i2l6487
 10374  0023D4                     i2u723_40:
 10375  0023D4  0E00               	movlw	0
 10376  0023D6  6E22               	movwf	i2___flmul@prod,c
 10377  0023D8  0E00               	movlw	0
 10378  0023DA  6E23               	movwf	i2___flmul@prod+1,c
 10379  0023DC  0E80               	movlw	128
 10380  0023DE  6E24               	movwf	i2___flmul@prod+2,c
 10381  0023E0  0E7F               	movlw	127
 10382  0023E2  D020               	goto	L22
 10383  0023E4                     i2l6487:
 10384  0023E4  BE27               	btfsc	i2___flmul@temp+1,7,c
 10385  0023E6  D005               	goto	i2l6489
 10386  0023E8  5027               	movf	i2___flmul@temp+1,w,c
 10387  0023EA  E10E               	bnz	i2l1330
 10388  0023EC  0426               	decf	i2___flmul@temp,w,c
 10389  0023EE  B0D8               	btfsc	status,0,c
 10390  0023F0  D00B               	goto	i2l1330
 10391  0023F2                     i2l6489:
 10392  0023F2  0E00               	movlw	0
 10393  0023F4  6E22               	movwf	i2___flmul@prod,c
 10394  0023F6  0E00               	movlw	0
 10395  0023F8  6E23               	movwf	i2___flmul@prod+1,c
 10396  0023FA  0E00               	movlw	0
 10397  0023FC  6E24               	movwf	i2___flmul@prod+2,c
 10398  0023FE  0E00               	movlw	0
 10399  002400  6E25               	movwf	i2___flmul@prod+3,c
 10400  002402  0E00               	movlw	0
 10401  002404  6E1B               	movwf	i2___flmul@sign,c
 10402  002406  D00F               	goto	i2l6499
 10403  002408                     i2l1330:
 10404  002408  C026  F021         	movff	i2___flmul@temp,i2___flmul@bexp
 10405  00240C  0EFF               	movlw	255
 10406  00240E  1622               	andwf	i2___flmul@prod,f,c
 10407  002410  0EFF               	movlw	255
 10408  002412  1623               	andwf	i2___flmul@prod+1,f,c
 10409  002414  0E7F               	movlw	127
 10410  002416  1624               	andwf	i2___flmul@prod+2,f,c
 10411  002418  0E00               	movlw	0
 10412  00241A  1625               	andwf	i2___flmul@prod+3,f,c
 10413  00241C  B021               	btfsc	i2___flmul@bexp,0,c
 10414  00241E  8E24               	bsf	i2___flmul@prod+2,7,c
 10415  002420  90D8               	bcf	status,0,c
 10416  002422  3021               	rrcf	i2___flmul@bexp,w,c
 10417  002424                     L22:
 10418  002424  6E25               	movwf	i2___flmul@prod+3,c
 10419  002426                     i2l6499:
 10420  002426  501B               	movf	i2___flmul@sign,w,c
 10421  002428  1225               	iorwf	i2___flmul@prod+3,f,c
 10422  00242A  C022  F00F         	movff	i2___flmul@prod,?i2___flmul
 10423  00242E  C023  F010         	movff	i2___flmul@prod+1,?i2___flmul+1
 10424  002432  C024  F011         	movff	i2___flmul@prod+2,?i2___flmul+2
 10425  002436  C025  F012         	movff	i2___flmul@prod+3,?i2___flmul+3
 10426  00243A  0012               	return	
 10427  00243C                     __end_ofi2___flmul:
 10428                           	opt stack 0
 10429                           stkptr	equ	0xFFC
 10430                           pclatu	equ	0xFFB
 10431                           pclath	equ	0xFFA
 10432                           tblptru	equ	0xFF8
 10433                           tblptrh	equ	0xFF7
 10434                           tblptrl	equ	0xFF6
 10435                           tablat	equ	0xFF5
 10436                           prodh	equ	0xFF4
 10437                           prodl	equ	0xFF3
 10438                           intcon	equ	0xFF2
 10439                           intcon2	equ	0xFF1
 10440                           postinc0	equ	0xFEE
 10441                           fsr0h	equ	0xFEA
 10442                           fsr0l	equ	0xFE9
 10443                           wreg	equ	0xFE8
 10444                           postdec1	equ	0xFE5
 10445                           fsr1h	equ	0xFE2
 10446                           fsr1l	equ	0xFE1
 10447                           bsr	equ	0xFE0
 10448                           fsr2h	equ	0xFDA
 10449                           fsr2l	equ	0xFD9
 10450                           status	equ	0xFD8
 10451                           
 10452 ;; *************** function i2___fldiv *****************
 10453 ;; Defined at:
 10454 ;;		line 11 in file "C:\Program Files (x86)\Microchip\xc8\v1.42\sources\common\sprcdiv.c"
 10455 ;; Parameters:    Size  Location     Type
 10456 ;;  b               4   39[COMRAM] unsigned char 
 10457 ;;  a               4   43[COMRAM] unsigned char 
 10458 ;; Auto vars:     Size  Location     Type
 10459 ;;  __fldiv         4   58[COMRAM] unsigned long 
 10460 ;;  __fldiv         4   52[COMRAM] unsigned long 
 10461 ;;  __fldiv         2   56[COMRAM] int 
 10462 ;;  __fldiv         1   63[COMRAM] unsigned char 
 10463 ;;  __fldiv         1   62[COMRAM] unsigned char 
 10464 ;;  __fldiv         1   51[COMRAM] unsigned char 
 10465 ;; Return value:  Size  Location     Type
 10466 ;;                  4   39[COMRAM] unsigned char 
 10467 ;; Registers used:
 10468 ;;		wreg, status,2, status,0
 10469 ;; Tracked objects:
 10470 ;;		On entry : 0/0
 10471 ;;		On exit  : 0/0
 10472 ;;		Unchanged: 0/0
 10473 ;; Data sizes:     COMRAM   BANK0   BANK1   BANK2   BANK3   BANK4   BANK5   BANK6   BANK7   BANK8   BANK9  BANK10  BANK1
      +1  BANK12  BANK13  BANK14  BANK15
 10474 ;;      Params:         8       0       0       0       0       0       0       0       0       0       0       0       
      +0       0       0       0       0
 10475 ;;      Locals:        13       0       0       0       0       0       0       0       0       0       0       0       
      +0       0       0       0       0
 10476 ;;      Temps:          4       0       0       0       0       0       0       0       0       0       0       0       
      +0       0       0       0       0
 10477 ;;      Totals:        25       0       0       0       0       0       0       0       0       0       0       0       
      +0       0       0       0       0
 10478 ;;Total ram usage:       25 bytes
 10479 ;; Hardware stack levels used:    1
 10480 ;; This function calls:
 10481 ;;		Nothing
 10482 ;; This function is called by:
 10483 ;;		_conta_dente
 10484 ;; This function uses a non-reentrant model
 10485 ;;
 10486                           
 10487                           	psect	text28
 10488  00243C                     __ptext28:
 10489                           	opt stack 0
 10490  00243C                     i2___fldiv:
 10491                           	opt stack 24
 10492                           
 10493                           ;incstack = 0
 10494  00243C  502B               	movf	i2___fldiv@b+3,w,c
 10495  00243E  0B80               	andlw	128
 10496  002440  6E34               	movwf	i2___fldiv@sign,c
 10497  002442  502B               	movf	i2___fldiv@b+3,w,c
 10498  002444  242B               	addwf	i2___fldiv@b+3,w,c
 10499  002446  6E3F               	movwf	i2___fldiv@bexp,c
 10500  002448  BE2A               	btfsc	i2___fldiv@b+2,7,c
 10501  00244A  803F               	bsf	i2___fldiv@bexp,0,c
 10502  00244C  503F               	movf	i2___fldiv@bexp,w,c
 10503  00244E  B4D8               	btfsc	status,2,c
 10504  002450  D00D               	goto	i2l4395
 10505  002452  283F               	incf	i2___fldiv@bexp,w,c
 10506  002454  A4D8               	btfss	status,2,c
 10507  002456  D008               	goto	i2l4391
 10508  002458  0E00               	movlw	0
 10509  00245A  6E28               	movwf	i2___fldiv@b,c
 10510  00245C  0E00               	movlw	0
 10511  00245E  6E29               	movwf	i2___fldiv@b+1,c
 10512  002460  0E00               	movlw	0
 10513  002462  6E2A               	movwf	i2___fldiv@b+2,c
 10514  002464  0E00               	movlw	0
 10515  002466  6E2B               	movwf	i2___fldiv@b+3,c
 10516  002468                     i2l4391:
 10517  002468  8E2A               	bsf	i2___fldiv@b+2,7,c
 10518  00246A  D006               	goto	L23
 10519  00246C                     i2l4395:
 10520  00246C  0E00               	movlw	0
 10521  00246E  6E28               	movwf	i2___fldiv@b,c
 10522  002470  0E00               	movlw	0
 10523  002472  6E29               	movwf	i2___fldiv@b+1,c
 10524  002474  0E00               	movlw	0
 10525  002476  6E2A               	movwf	i2___fldiv@b+2,c
 10526  002478                     L23:
 10527  002478  0E00               	movlw	0
 10528  00247A  6E2B               	movwf	i2___fldiv@b+3,c
 10529  00247C  502F               	movf	i2___fldiv@a+3,w,c
 10530  00247E  0B80               	andlw	128
 10531  002480  1A34               	xorwf	i2___fldiv@sign,f,c
 10532  002482  502F               	movf	i2___fldiv@a+3,w,c
 10533  002484  242F               	addwf	i2___fldiv@a+3,w,c
 10534  002486  6E40               	movwf	i2___fldiv@aexp,c
 10535  002488  BE2E               	btfsc	i2___fldiv@a+2,7,c
 10536  00248A  8040               	bsf	i2___fldiv@aexp,0,c
 10537  00248C  5040               	movf	i2___fldiv@aexp,w,c
 10538  00248E  B4D8               	btfsc	status,2,c
 10539  002490  D00D               	goto	i2l4415
 10540  002492  2840               	incf	i2___fldiv@aexp,w,c
 10541  002494  A4D8               	btfss	status,2,c
 10542  002496  D008               	goto	i2l4411
 10543  002498  0E00               	movlw	0
 10544  00249A  6E2C               	movwf	i2___fldiv@a,c
 10545  00249C  0E00               	movlw	0
 10546  00249E  6E2D               	movwf	i2___fldiv@a+1,c
 10547  0024A0  0E00               	movlw	0
 10548  0024A2  6E2E               	movwf	i2___fldiv@a+2,c
 10549  0024A4  0E00               	movlw	0
 10550  0024A6  6E2F               	movwf	i2___fldiv@a+3,c
 10551  0024A8                     i2l4411:
 10552  0024A8  8E2E               	bsf	i2___fldiv@a+2,7,c
 10553  0024AA  D006               	goto	L24
 10554  0024AC                     i2l4415:
 10555  0024AC  0E00               	movlw	0
 10556  0024AE  6E2C               	movwf	i2___fldiv@a,c
 10557  0024B0  0E00               	movlw	0
 10558  0024B2  6E2D               	movwf	i2___fldiv@a+1,c
 10559  0024B4  0E00               	movlw	0
 10560  0024B6  6E2E               	movwf	i2___fldiv@a+2,c
 10561  0024B8                     L24:
 10562  0024B8  0E00               	movlw	0
 10563  0024BA  6E2F               	movwf	i2___fldiv@a+3,c
 10564  0024BC  502C               	movf	i2___fldiv@a,w,c
 10565  0024BE  102D               	iorwf	i2___fldiv@a+1,w,c
 10566  0024C0  102E               	iorwf	i2___fldiv@a+2,w,c
 10567  0024C2  102F               	iorwf	i2___fldiv@a+3,w,c
 10568  0024C4  A4D8               	btfss	status,2,c
 10569  0024C6  D015               	goto	i2l4427
 10570  0024C8  0E00               	movlw	0
 10571  0024CA  6E28               	movwf	i2___fldiv@b,c
 10572  0024CC  0E00               	movlw	0
 10573  0024CE  6E29               	movwf	i2___fldiv@b+1,c
 10574  0024D0  0E00               	movlw	0
 10575  0024D2  6E2A               	movwf	i2___fldiv@b+2,c
 10576  0024D4  0E00               	movlw	0
 10577  0024D6  6E2B               	movwf	i2___fldiv@b+3,c
 10578  0024D8  0E80               	movlw	128
 10579  0024DA  122A               	iorwf	i2___fldiv@b+2,f,c
 10580  0024DC  0E7F               	movlw	127
 10581  0024DE  122B               	iorwf	i2___fldiv@b+3,f,c
 10582  0024E0  C028  F028         	movff	i2___fldiv@b,?i2___fldiv
 10583  0024E4  C029  F029         	movff	i2___fldiv@b+1,?i2___fldiv+1
 10584  0024E8  C02A  F02A         	movff	i2___fldiv@b+2,?i2___fldiv+2
 10585  0024EC  C02B  F02B         	movff	i2___fldiv@b+3,?i2___fldiv+3
 10586  0024F0  0012               	return	
 10587  0024F2                     i2l4427:
 10588  0024F2  503F               	movf	i2___fldiv@bexp,w,c
 10589  0024F4  A4D8               	btfss	status,2,c
 10590  0024F6  D011               	goto	i2l4435
 10591  0024F8  0E00               	movlw	0
 10592  0024FA  6E28               	movwf	i2___fldiv@b,c
 10593  0024FC  0E00               	movlw	0
 10594  0024FE  6E29               	movwf	i2___fldiv@b+1,c
 10595  002500  0E00               	movlw	0
 10596  002502  6E2A               	movwf	i2___fldiv@b+2,c
 10597  002504  0E00               	movlw	0
 10598  002506  6E2B               	movwf	i2___fldiv@b+3,c
 10599  002508  C028  F028         	movff	i2___fldiv@b,?i2___fldiv
 10600  00250C  C029  F029         	movff	i2___fldiv@b+1,?i2___fldiv+1
 10601  002510  C02A  F02A         	movff	i2___fldiv@b+2,?i2___fldiv+2
 10602  002514  C02B  F02B         	movff	i2___fldiv@b+3,?i2___fldiv+3
 10603  002518  0012               	return	
 10604  00251A                     i2l4435:
 10605  00251A  5040               	movf	i2___fldiv@aexp,w,c
 10606  00251C  6E30               	movwf	??i2___fldiv& (0+255),c
 10607  00251E  6A31               	clrf	(??i2___fldiv+1)& (0+255),c
 10608  002520  1E30               	comf	??i2___fldiv,f,c
 10609  002522  1E31               	comf	??i2___fldiv+1,f,c
 10610  002524  4A30               	infsnz	??i2___fldiv,f,c
 10611  002526  2A31               	incf	??i2___fldiv+1,f,c
 10612  002528  503F               	movf	i2___fldiv@bexp,w,c
 10613  00252A  6E32               	movwf	(??i2___fldiv+2)& (0+255),c
 10614  00252C  6A33               	clrf	(??i2___fldiv+3)& (0+255),c
 10615  00252E  5030               	movf	??i2___fldiv,w,c
 10616  002530  2632               	addwf	??i2___fldiv+2,f,c
 10617  002532  5031               	movf	??i2___fldiv+1,w,c
 10618  002534  2233               	addwfc	??i2___fldiv+3,f,c
 10619  002536  0E7F               	movlw	127
 10620  002538  2432               	addwf	??i2___fldiv+2,w,c
 10621  00253A  6E39               	movwf	i2___fldiv@new_exp,c
 10622  00253C  0E00               	movlw	0
 10623  00253E  2033               	addwfc	??i2___fldiv+3,w,c
 10624  002540  6E3A               	movwf	i2___fldiv@new_exp+1,c
 10625  002542  C028  F035         	movff	i2___fldiv@b,i2___fldiv@rem
 10626  002546  C029  F036         	movff	i2___fldiv@b+1,i2___fldiv@rem+1
 10627  00254A  C02A  F037         	movff	i2___fldiv@b+2,i2___fldiv@rem+2
 10628  00254E  C02B  F038         	movff	i2___fldiv@b+3,i2___fldiv@rem+3
 10629  002552  0E00               	movlw	0
 10630  002554  6E28               	movwf	i2___fldiv@b,c
 10631  002556  0E00               	movlw	0
 10632  002558  6E29               	movwf	i2___fldiv@b+1,c
 10633  00255A  0E00               	movlw	0
 10634  00255C  6E2A               	movwf	i2___fldiv@b+2,c
 10635  00255E  0E00               	movlw	0
 10636  002560  6E2B               	movwf	i2___fldiv@b+3,c
 10637  002562  0E00               	movlw	0
 10638  002564  6E3B               	movwf	i2___fldiv@grs,c
 10639  002566  0E00               	movlw	0
 10640  002568  6E3C               	movwf	i2___fldiv@grs+1,c
 10641  00256A  0E00               	movlw	0
 10642  00256C  6E3D               	movwf	i2___fldiv@grs+2,c
 10643  00256E  0E00               	movlw	0
 10644  002570  6E3E               	movwf	i2___fldiv@grs+3,c
 10645  002572  0E00               	movlw	0
 10646  002574  6E40               	movwf	i2___fldiv@aexp,c
 10647  002576  D028               	goto	i2l1283
 10648  002578                     i2l4445:
 10649  002578  5040               	movf	i2___fldiv@aexp,w,c
 10650  00257A  B4D8               	btfsc	status,2,c
 10651  00257C  D011               	goto	i2l4453
 10652  00257E  90D8               	bcf	status,0,c
 10653  002580  3635               	rlcf	i2___fldiv@rem,f,c
 10654  002582  3636               	rlcf	i2___fldiv@rem+1,f,c
 10655  002584  3637               	rlcf	i2___fldiv@rem+2,f,c
 10656  002586  3638               	rlcf	i2___fldiv@rem+3,f,c
 10657  002588  90D8               	bcf	status,0,c
 10658  00258A  3628               	rlcf	i2___fldiv@b,f,c
 10659  00258C  3629               	rlcf	i2___fldiv@b+1,f,c
 10660  00258E  362A               	rlcf	i2___fldiv@b+2,f,c
 10661  002590  362B               	rlcf	i2___fldiv@b+3,f,c
 10662  002592  BE3E               	btfsc	i2___fldiv@grs+3,7,c
 10663  002594  8028               	bsf	i2___fldiv@b,0,c
 10664  002596  90D8               	bcf	status,0,c
 10665  002598  363B               	rlcf	i2___fldiv@grs,f,c
 10666  00259A  363C               	rlcf	i2___fldiv@grs+1,f,c
 10667  00259C  363D               	rlcf	i2___fldiv@grs+2,f,c
 10668  00259E  363E               	rlcf	i2___fldiv@grs+3,f,c
 10669  0025A0                     i2l4453:
 10670  0025A0  502C               	movf	i2___fldiv@a,w,c
 10671  0025A2  5C35               	subwf	i2___fldiv@rem,w,c
 10672  0025A4  502D               	movf	i2___fldiv@a+1,w,c
 10673  0025A6  5836               	subwfb	i2___fldiv@rem+1,w,c
 10674  0025A8  502E               	movf	i2___fldiv@a+2,w,c
 10675  0025AA  5837               	subwfb	i2___fldiv@rem+2,w,c
 10676  0025AC  502F               	movf	i2___fldiv@a+3,w,c
 10677  0025AE  5838               	subwfb	i2___fldiv@rem+3,w,c
 10678  0025B0  A0D8               	btfss	status,0,c
 10679  0025B2  D009               	goto	i2l4459
 10680  0025B4  8C3E               	bsf	i2___fldiv@grs+3,6,c
 10681  0025B6  502C               	movf	i2___fldiv@a,w,c
 10682  0025B8  5E35               	subwf	i2___fldiv@rem,f,c
 10683  0025BA  502D               	movf	i2___fldiv@a+1,w,c
 10684  0025BC  5A36               	subwfb	i2___fldiv@rem+1,f,c
 10685  0025BE  502E               	movf	i2___fldiv@a+2,w,c
 10686  0025C0  5A37               	subwfb	i2___fldiv@rem+2,f,c
 10687  0025C2  502F               	movf	i2___fldiv@a+3,w,c
 10688  0025C4  5A38               	subwfb	i2___fldiv@rem+3,f,c
 10689  0025C6                     i2l4459:
 10690  0025C6  2A40               	incf	i2___fldiv@aexp,f,c
 10691  0025C8                     i2l1283:
 10692  0025C8  0E19               	movlw	25
 10693  0025CA  6440               	cpfsgt	i2___fldiv@aexp,c
 10694  0025CC  D7D5               	goto	i2l4445
 10695  0025CE  5035               	movf	i2___fldiv@rem,w,c
 10696  0025D0  1036               	iorwf	i2___fldiv@rem+1,w,c
 10697  0025D2  1037               	iorwf	i2___fldiv@rem+2,w,c
 10698  0025D4  1038               	iorwf	i2___fldiv@rem+3,w,c
 10699  0025D6  B4D8               	btfsc	status,2,c
 10700  0025D8  D011               	goto	i2l4471
 10701  0025DA  803B               	bsf	i2___fldiv@grs,0,c
 10702  0025DC  D00F               	goto	i2l4471
 10703  0025DE                     i2l4465:
 10704  0025DE  90D8               	bcf	status,0,c
 10705  0025E0  3628               	rlcf	i2___fldiv@b,f,c
 10706  0025E2  3629               	rlcf	i2___fldiv@b+1,f,c
 10707  0025E4  362A               	rlcf	i2___fldiv@b+2,f,c
 10708  0025E6  362B               	rlcf	i2___fldiv@b+3,f,c
 10709  0025E8  BE3E               	btfsc	i2___fldiv@grs+3,7,c
 10710  0025EA  8028               	bsf	i2___fldiv@b,0,c
 10711  0025EC  90D8               	bcf	status,0,c
 10712  0025EE  363B               	rlcf	i2___fldiv@grs,f,c
 10713  0025F0  363C               	rlcf	i2___fldiv@grs+1,f,c
 10714  0025F2  363D               	rlcf	i2___fldiv@grs+2,f,c
 10715  0025F4  363E               	rlcf	i2___fldiv@grs+3,f,c
 10716  0025F6  0639               	decf	i2___fldiv@new_exp,f,c
 10717  0025F8  A0D8               	btfss	status,0,c
 10718  0025FA  063A               	decf	i2___fldiv@new_exp+1,f,c
 10719  0025FC                     i2l4471:
 10720  0025FC  AE2A               	btfss	i2___fldiv@b+2,7,c
 10721  0025FE  D7EF               	goto	i2l4465
 10722  002600  0E00               	movlw	0
 10723  002602  6E40               	movwf	i2___fldiv@aexp,c
 10724  002604  AE3E               	btfss	i2___fldiv@grs+3,7,c
 10725  002606  D016               	goto	i2l1294
 10726  002608  0EFF               	movlw	255
 10727  00260A  143B               	andwf	i2___fldiv@grs,w,c
 10728  00260C  6E30               	movwf	??i2___fldiv& (0+255),c
 10729  00260E  0EFF               	movlw	255
 10730  002610  143C               	andwf	i2___fldiv@grs+1,w,c
 10731  002612  6E31               	movwf	(??i2___fldiv+1)& (0+255),c
 10732  002614  0EFF               	movlw	255
 10733  002616  143D               	andwf	i2___fldiv@grs+2,w,c
 10734  002618  6E32               	movwf	(??i2___fldiv+2)& (0+255),c
 10735  00261A  0E7F               	movlw	127
 10736  00261C  143E               	andwf	i2___fldiv@grs+3,w,c
 10737  00261E  6E33               	movwf	(??i2___fldiv+3)& (0+255),c
 10738  002620  5030               	movf	??i2___fldiv,w,c
 10739  002622  1031               	iorwf	??i2___fldiv+1,w,c
 10740  002624  1032               	iorwf	??i2___fldiv+2,w,c
 10741  002626  1033               	iorwf	??i2___fldiv+3,w,c
 10742  002628  A4D8               	btfss	status,2,c
 10743  00262A  D002               	goto	i2l4481
 10744  00262C  A028               	btfss	i2___fldiv@b,0,c
 10745  00262E  D002               	goto	i2l1294
 10746  002630                     i2l4481:
 10747  002630  0E01               	movlw	1
 10748  002632  6E40               	movwf	i2___fldiv@aexp,c
 10749  002634                     i2l1294:
 10750  002634  5040               	movf	i2___fldiv@aexp,w,c
 10751  002636  B4D8               	btfsc	status,2,c
 10752  002638  D01F               	goto	i2l4491
 10753  00263A  0E01               	movlw	1
 10754  00263C  2628               	addwf	i2___fldiv@b,f,c
 10755  00263E  0E00               	movlw	0
 10756  002640  2229               	addwfc	i2___fldiv@b+1,f,c
 10757  002642  222A               	addwfc	i2___fldiv@b+2,f,c
 10758  002644  222B               	addwfc	i2___fldiv@b+3,f,c
 10759  002646  A02B               	btfss	i2___fldiv@b+3,0,c
 10760  002648  D017               	goto	i2l4491
 10761  00264A  C028  F030         	movff	i2___fldiv@b,??i2___fldiv
 10762  00264E  C029  F031         	movff	i2___fldiv@b+1,??i2___fldiv+1
 10763  002652  C02A  F032         	movff	i2___fldiv@b+2,??i2___fldiv+2
 10764  002656  C02B  F033         	movff	i2___fldiv@b+3,??i2___fldiv+3
 10765  00265A  3433               	rlcf	??i2___fldiv+3,w,c
 10766  00265C  3233               	rrcf	??i2___fldiv+3,f,c
 10767  00265E  3232               	rrcf	??i2___fldiv+2,f,c
 10768  002660  3231               	rrcf	??i2___fldiv+1,f,c
 10769  002662  3230               	rrcf	??i2___fldiv,f,c
 10770  002664  C030  F028         	movff	??i2___fldiv,i2___fldiv@b
 10771  002668  C031  F029         	movff	??i2___fldiv+1,i2___fldiv@b+1
 10772  00266C  C032  F02A         	movff	??i2___fldiv+2,i2___fldiv@b+2
 10773  002670  C033  F02B         	movff	??i2___fldiv+3,i2___fldiv@b+3
 10774  002674  4A39               	infsnz	i2___fldiv@new_exp,f,c
 10775  002676  2A3A               	incf	i2___fldiv@new_exp+1,f,c
 10776  002678                     i2l4491:
 10777  002678  BE3A               	btfsc	i2___fldiv@new_exp+1,7,c
 10778  00267A  D010               	goto	i2l4495
 10779  00267C  503A               	movf	i2___fldiv@new_exp+1,w,c
 10780  00267E  E103               	bnz	i2u437_40
 10781  002680  2839               	incf	i2___fldiv@new_exp,w,c
 10782  002682  A0D8               	btfss	status,0,c
 10783  002684  D00B               	goto	i2l4495
 10784  002686                     i2u437_40:
 10785  002686  0E00               	movlw	0
 10786  002688  6E3A               	movwf	i2___fldiv@new_exp+1,c
 10787  00268A  6839               	setf	i2___fldiv@new_exp,c
 10788  00268C  0E00               	movlw	0
 10789  00268E  6E28               	movwf	i2___fldiv@b,c
 10790  002690  0E00               	movlw	0
 10791  002692  6E29               	movwf	i2___fldiv@b+1,c
 10792  002694  0E00               	movlw	0
 10793  002696  6E2A               	movwf	i2___fldiv@b+2,c
 10794  002698  0E00               	movlw	0
 10795  00269A  6E2B               	movwf	i2___fldiv@b+3,c
 10796  00269C                     i2l4495:
 10797  00269C  BE3A               	btfsc	i2___fldiv@new_exp+1,7,c
 10798  00269E  D005               	goto	i2l4497
 10799  0026A0  503A               	movf	i2___fldiv@new_exp+1,w,c
 10800  0026A2  E111               	bnz	i2l4499
 10801  0026A4  0439               	decf	i2___fldiv@new_exp,w,c
 10802  0026A6  B0D8               	btfsc	status,0,c
 10803  0026A8  D00E               	goto	i2l4499
 10804  0026AA                     i2l4497:
 10805  0026AA  0E00               	movlw	0
 10806  0026AC  6E3A               	movwf	i2___fldiv@new_exp+1,c
 10807  0026AE  0E00               	movlw	0
 10808  0026B0  6E39               	movwf	i2___fldiv@new_exp,c
 10809  0026B2  0E00               	movlw	0
 10810  0026B4  6E28               	movwf	i2___fldiv@b,c
 10811  0026B6  0E00               	movlw	0
 10812  0026B8  6E29               	movwf	i2___fldiv@b+1,c
 10813  0026BA  0E00               	movlw	0
 10814  0026BC  6E2A               	movwf	i2___fldiv@b+2,c
 10815  0026BE  0E00               	movlw	0
 10816  0026C0  6E2B               	movwf	i2___fldiv@b+3,c
 10817  0026C2  0E00               	movlw	0
 10818  0026C4  6E34               	movwf	i2___fldiv@sign,c
 10819  0026C6                     i2l4499:
 10820  0026C6  C039  F03F         	movff	i2___fldiv@new_exp,i2___fldiv@bexp
 10821  0026CA  A03F               	btfss	i2___fldiv@bexp,0,c
 10822  0026CC  D002               	goto	i2l4505
 10823  0026CE  8E2A               	bsf	i2___fldiv@b+2,7,c
 10824  0026D0  D001               	goto	i2l4507
 10825  0026D2                     i2l4505:
 10826  0026D2  9E2A               	bcf	i2___fldiv@b+2,7,c
 10827  0026D4                     i2l4507:
 10828  0026D4  90D8               	bcf	status,0,c
 10829  0026D6  303F               	rrcf	i2___fldiv@bexp,w,c
 10830  0026D8  6E2B               	movwf	i2___fldiv@b+3,c
 10831  0026DA  5034               	movf	i2___fldiv@sign,w,c
 10832  0026DC  122B               	iorwf	i2___fldiv@b+3,f,c
 10833  0026DE  C028  F028         	movff	i2___fldiv@b,?i2___fldiv
 10834  0026E2  C029  F029         	movff	i2___fldiv@b+1,?i2___fldiv+1
 10835  0026E6  C02A  F02A         	movff	i2___fldiv@b+2,?i2___fldiv+2
 10836  0026EA  C02B  F02B         	movff	i2___fldiv@b+3,?i2___fldiv+3
 10837  0026EE  0012               	return	
 10838  0026F0                     __end_ofi2___fldiv:
 10839                           	opt stack 0
 10840                           stkptr	equ	0xFFC
 10841                           pclatu	equ	0xFFB
 10842                           pclath	equ	0xFFA
 10843                           tblptru	equ	0xFF8
 10844                           tblptrh	equ	0xFF7
 10845                           tblptrl	equ	0xFF6
 10846                           tablat	equ	0xFF5
 10847                           prodh	equ	0xFF4
 10848                           prodl	equ	0xFF3
 10849                           intcon	equ	0xFF2
 10850                           intcon2	equ	0xFF1
 10851                           postinc0	equ	0xFEE
 10852                           fsr0h	equ	0xFEA
 10853                           fsr0l	equ	0xFE9
 10854                           wreg	equ	0xFE8
 10855                           postdec1	equ	0xFE5
 10856                           fsr1h	equ	0xFE2
 10857                           fsr1l	equ	0xFE1
 10858                           bsr	equ	0xFE0
 10859                           fsr2h	equ	0xFDA
 10860                           fsr2l	equ	0xFD9
 10861                           status	equ	0xFD8
 10862                           
 10863 ;; *************** function i2_Set_Timer1 *****************
 10864 ;; Defined at:
 10865 ;;		line 37 in file "TIMERS_XC8.c"
 10866 ;; Parameters:    Size  Location     Type
 10867 ;;  data_timer      2    0[COMRAM] unsigned int 
 10868 ;; Auto vars:     Size  Location     Type
 10869 ;;		None
 10870 ;; Return value:  Size  Location     Type
 10871 ;;                  1    wreg      void 
 10872 ;; Registers used:
 10873 ;;		wreg, status,2
 10874 ;; Tracked objects:
 10875 ;;		On entry : 0/0
 10876 ;;		On exit  : 0/0
 10877 ;;		Unchanged: 0/0
 10878 ;; Data sizes:     COMRAM   BANK0   BANK1   BANK2   BANK3   BANK4   BANK5   BANK6   BANK7   BANK8   BANK9  BANK10  BANK1
      +1  BANK12  BANK13  BANK14  BANK15
 10879 ;;      Params:         2       0       0       0       0       0       0       0       0       0       0       0       
      +0       0       0       0       0
 10880 ;;      Locals:         0       0       0       0       0       0       0       0       0       0       0       0       
      +0       0       0       0       0
 10881 ;;      Temps:          0       0       0       0       0       0       0       0       0       0       0       0       
      +0       0       0       0       0
 10882 ;;      Totals:         2       0       0       0       0       0       0       0       0       0       0       0       
      +0       0       0       0       0
 10883 ;;Total ram usage:        2 bytes
 10884 ;; Hardware stack levels used:    1
 10885 ;; This function calls:
 10886 ;;		Nothing
 10887 ;; This function is called by:
 10888 ;;		_conta_dente
 10889 ;; This function uses a non-reentrant model
 10890 ;;
 10891                           
 10892                           	psect	text29
 10893  003452                     __ptext29:
 10894                           	opt stack 0
 10895  003452                     i2_Set_Timer1:
 10896                           	opt stack 24
 10897                           
 10898                           ;TIMERS_XC8.c: 39: TMR1H = data_timer >> 8;
 10899                           
 10900                           ;incstack = 0
 10901  003452  5002               	movf	i2Set_Timer1@data_timer+1,w,c
 10902  003454  6ECF               	movwf	4047,c	;volatile
 10903                           
 10904                           ;TIMERS_XC8.c: 40: TMR1L = data_timer & 0x00FF;
 10905  003456  C001  FFCE         	movff	i2Set_Timer1@data_timer,4046	;volatile
 10906  00345A  0012               	return		;funcret
 10907  00345C                     __end_ofi2_Set_Timer1:
 10908                           	opt stack 0
 10909                           stkptr	equ	0xFFC
 10910                           pclatu	equ	0xFFB
 10911                           pclath	equ	0xFFA
 10912                           tblptru	equ	0xFF8
 10913                           tblptrh	equ	0xFF7
 10914                           tblptrl	equ	0xFF6
 10915                           tablat	equ	0xFF5
 10916                           prodh	equ	0xFF4
 10917                           prodl	equ	0xFF3
 10918                           intcon	equ	0xFF2
 10919                           intcon2	equ	0xFF1
 10920                           postinc0	equ	0xFEE
 10921                           fsr0h	equ	0xFEA
 10922                           fsr0l	equ	0xFE9
 10923                           wreg	equ	0xFE8
 10924                           postdec1	equ	0xFE5
 10925                           fsr1h	equ	0xFE2
 10926                           fsr1l	equ	0xFE1
 10927                           bsr	equ	0xFE0
 10928                           fsr2h	equ	0xFDA
 10929                           fsr2l	equ	0xFD9
 10930                           status	equ	0xFD8
 10931                           
 10932 ;; *************** function ___awdiv *****************
 10933 ;; Defined at:
 10934 ;;		line 8 in file "C:\Program Files (x86)\Microchip\xc8\v1.42\sources\common\awdiv.c"
 10935 ;; Parameters:    Size  Location     Type
 10936 ;;  dividend        2    0[COMRAM] int 
 10937 ;;  divisor         2    2[COMRAM] int 
 10938 ;; Auto vars:     Size  Location     Type
 10939 ;;  quotient        2    6[COMRAM] int 
 10940 ;;  sign            1    5[COMRAM] unsigned char 
 10941 ;;  counter         1    4[COMRAM] unsigned char 
 10942 ;; Return value:  Size  Location     Type
 10943 ;;                  2    0[COMRAM] int 
 10944 ;; Registers used:
 10945 ;;		wreg, status,2, status,0
 10946 ;; Tracked objects:
 10947 ;;		On entry : 0/0
 10948 ;;		On exit  : 0/0
 10949 ;;		Unchanged: 0/0
 10950 ;; Data sizes:     COMRAM   BANK0   BANK1   BANK2   BANK3   BANK4   BANK5   BANK6   BANK7   BANK8   BANK9  BANK10  BANK1
      +1  BANK12  BANK13  BANK14  BANK15
 10951 ;;      Params:         4       0       0       0       0       0       0       0       0       0       0       0       
      +0       0       0       0       0
 10952 ;;      Locals:         4       0       0       0       0       0       0       0       0       0       0       0       
      +0       0       0       0       0
 10953 ;;      Temps:          0       0       0       0       0       0       0       0       0       0       0       0       
      +0       0       0       0       0
 10954 ;;      Totals:         8       0       0       0       0       0       0       0       0       0       0       0       
      +0       0       0       0       0
 10955 ;;Total ram usage:        8 bytes
 10956 ;; Hardware stack levels used:    1
 10957 ;; This function calls:
 10958 ;;		Nothing
 10959 ;; This function is called by:
 10960 ;;		_conta_dente
 10961 ;; This function uses a non-reentrant model
 10962 ;;
 10963                           
 10964                           	psect	text30
 10965  0030F4                     __ptext30:
 10966                           	opt stack 0
 10967  0030F4                     ___awdiv:
 10968                           	opt stack 24
 10969                           
 10970                           ;incstack = 0
 10971  0030F4  0E00               	movlw	0
 10972  0030F6  6E06               	movwf	___awdiv@sign,c
 10973  0030F8  AE04               	btfss	___awdiv@divisor+1,7,c
 10974  0030FA  D006               	goto	i2l4223
 10975  0030FC  6C03               	negf	___awdiv@divisor,c
 10976  0030FE  1E04               	comf	___awdiv@divisor+1,f,c
 10977  003100  B0D8               	btfsc	status,0,c
 10978  003102  2A04               	incf	___awdiv@divisor+1,f,c
 10979  003104  0E01               	movlw	1
 10980  003106  6E06               	movwf	___awdiv@sign,c
 10981  003108                     i2l4223:
 10982  003108  AE02               	btfss	___awdiv@dividend+1,7,c
 10983  00310A  D006               	goto	i2l4229
 10984  00310C  6C01               	negf	___awdiv@dividend,c
 10985  00310E  1E02               	comf	___awdiv@dividend+1,f,c
 10986  003110  B0D8               	btfsc	status,0,c
 10987  003112  2A02               	incf	___awdiv@dividend+1,f,c
 10988  003114  0E01               	movlw	1
 10989  003116  1A06               	xorwf	___awdiv@sign,f,c
 10990  003118                     i2l4229:
 10991  003118  0E00               	movlw	0
 10992  00311A  6E08               	movwf	___awdiv@quotient+1,c
 10993  00311C  0E00               	movlw	0
 10994  00311E  6E07               	movwf	___awdiv@quotient,c
 10995  003120  5003               	movf	___awdiv@divisor,w,c
 10996  003122  1004               	iorwf	___awdiv@divisor+1,w,c
 10997  003124  B4D8               	btfsc	status,2,c
 10998  003126  D01C               	goto	i2l4251
 10999  003128  0E01               	movlw	1
 11000  00312A  6E05               	movwf	___awdiv@counter,c
 11001  00312C  D004               	goto	i2l4237
 11002  00312E                     i2l4235:
 11003  00312E  90D8               	bcf	status,0,c
 11004  003130  3603               	rlcf	___awdiv@divisor,f,c
 11005  003132  3604               	rlcf	___awdiv@divisor+1,f,c
 11006  003134  2A05               	incf	___awdiv@counter,f,c
 11007  003136                     i2l4237:
 11008  003136  AE04               	btfss	___awdiv@divisor+1,7,c
 11009  003138  D7FA               	goto	i2l4235
 11010  00313A                     i2l4239:
 11011  00313A  90D8               	bcf	status,0,c
 11012  00313C  3607               	rlcf	___awdiv@quotient,f,c
 11013  00313E  3608               	rlcf	___awdiv@quotient+1,f,c
 11014  003140  5003               	movf	___awdiv@divisor,w,c
 11015  003142  5C01               	subwf	___awdiv@dividend,w,c
 11016  003144  5004               	movf	___awdiv@divisor+1,w,c
 11017  003146  5802               	subwfb	___awdiv@dividend+1,w,c
 11018  003148  A0D8               	btfss	status,0,c
 11019  00314A  D005               	goto	i2l4247
 11020  00314C  5003               	movf	___awdiv@divisor,w,c
 11021  00314E  5E01               	subwf	___awdiv@dividend,f,c
 11022  003150  5004               	movf	___awdiv@divisor+1,w,c
 11023  003152  5A02               	subwfb	___awdiv@dividend+1,f,c
 11024  003154  8007               	bsf	___awdiv@quotient,0,c
 11025  003156                     i2l4247:
 11026  003156  90D8               	bcf	status,0,c
 11027  003158  3204               	rrcf	___awdiv@divisor+1,f,c
 11028  00315A  3203               	rrcf	___awdiv@divisor,f,c
 11029  00315C  2E05               	decfsz	___awdiv@counter,f,c
 11030  00315E  D7ED               	goto	i2l4239
 11031  003160                     i2l4251:
 11032  003160  5006               	movf	___awdiv@sign,w,c
 11033  003162  B4D8               	btfsc	status,2,c
 11034  003164  D004               	goto	i2l4255
 11035  003166  6C07               	negf	___awdiv@quotient,c
 11036  003168  1E08               	comf	___awdiv@quotient+1,f,c
 11037  00316A  B0D8               	btfsc	status,0,c
 11038  00316C  2A08               	incf	___awdiv@quotient+1,f,c
 11039  00316E                     i2l4255:
 11040  00316E  C007  F001         	movff	___awdiv@quotient,?___awdiv
 11041  003172  C008  F002         	movff	___awdiv@quotient+1,?___awdiv+1
 11042  003176  0012               	return	
 11043  003178                     __end_of___awdiv:
 11044                           	opt stack 0
 11045                           stkptr	equ	0xFFC
 11046                           pclatu	equ	0xFFB
 11047                           pclath	equ	0xFFA
 11048                           tblptru	equ	0xFF8
 11049                           tblptrh	equ	0xFF7
 11050                           tblptrl	equ	0xFF6
 11051                           tablat	equ	0xFF5
 11052                           prodh	equ	0xFF4
 11053                           prodl	equ	0xFF3
 11054                           intcon	equ	0xFF2
 11055                           intcon2	equ	0xFF1
 11056                           postinc0	equ	0xFEE
 11057                           fsr0h	equ	0xFEA
 11058                           fsr0l	equ	0xFE9
 11059                           wreg	equ	0xFE8
 11060                           postdec1	equ	0xFE5
 11061                           fsr1h	equ	0xFE2
 11062                           fsr1l	equ	0xFE1
 11063                           bsr	equ	0xFE0
 11064                           fsr2h	equ	0xFDA
 11065                           fsr2l	equ	0xFD9
 11066                           status	equ	0xFD8
 11067                           
 11068 ;; *************** function _Set_Timer3 *****************
 11069 ;; Defined at:
 11070 ;;		line 76 in file "TIMERS_XC8.c"
 11071 ;; Parameters:    Size  Location     Type
 11072 ;;  data_timer      2    0[COMRAM] unsigned int 
 11073 ;; Auto vars:     Size  Location     Type
 11074 ;;		None
 11075 ;; Return value:  Size  Location     Type
 11076 ;;                  1    wreg      void 
 11077 ;; Registers used:
 11078 ;;		wreg, status,2
 11079 ;; Tracked objects:
 11080 ;;		On entry : 0/0
 11081 ;;		On exit  : 0/0
 11082 ;;		Unchanged: 0/0
 11083 ;; Data sizes:     COMRAM   BANK0   BANK1   BANK2   BANK3   BANK4   BANK5   BANK6   BANK7   BANK8   BANK9  BANK10  BANK1
      +1  BANK12  BANK13  BANK14  BANK15
 11084 ;;      Params:         2       0       0       0       0       0       0       0       0       0       0       0       
      +0       0       0       0       0
 11085 ;;      Locals:         0       0       0       0       0       0       0       0       0       0       0       0       
      +0       0       0       0       0
 11086 ;;      Temps:          0       0       0       0       0       0       0       0       0       0       0       0       
      +0       0       0       0       0
 11087 ;;      Totals:         2       0       0       0       0       0       0       0       0       0       0       0       
      +0       0       0       0       0
 11088 ;;Total ram usage:        2 bytes
 11089 ;; Hardware stack levels used:    1
 11090 ;; This function calls:
 11091 ;;		Nothing
 11092 ;; This function is called by:
 11093 ;;		_isr2
 11094 ;;		_conta_dente
 11095 ;; This function uses a non-reentrant model
 11096 ;;
 11097                           
 11098                           	psect	text31
 11099  00345C                     __ptext31:
 11100                           	opt stack 0
 11101  00345C                     _Set_Timer3:
 11102                           	opt stack 24
 11103                           
 11104                           ;TIMERS_XC8.c: 78: TMR3H = data_timer >> 8;
 11105                           
 11106                           ;incstack = 0
 11107  00345C  5002               	movf	Set_Timer3@data_timer+1,w,c
 11108  00345E  6EB3               	movwf	4019,c	;volatile
 11109                           
 11110                           ;TIMERS_XC8.c: 79: TMR3L = data_timer & 0x00FF;
 11111  003460  C001  FFB2         	movff	Set_Timer3@data_timer,4018	;volatile
 11112  003464  0012               	return		;funcret
 11113  003466                     __end_of_Set_Timer3:
 11114                           	opt stack 0
 11115                           stkptr	equ	0xFFC
 11116                           pclatu	equ	0xFFB
 11117                           pclath	equ	0xFFA
 11118                           tblptru	equ	0xFF8
 11119                           tblptrh	equ	0xFF7
 11120                           tblptrl	equ	0xFF6
 11121                           tablat	equ	0xFF5
 11122                           prodh	equ	0xFF4
 11123                           prodl	equ	0xFF3
 11124                           intcon	equ	0xFF2
 11125                           intcon2	equ	0xFF1
 11126                           postinc0	equ	0xFEE
 11127                           fsr0h	equ	0xFEA
 11128                           fsr0l	equ	0xFE9
 11129                           wreg	equ	0xFE8
 11130                           postdec1	equ	0xFE5
 11131                           fsr1h	equ	0xFE2
 11132                           fsr1l	equ	0xFE1
 11133                           bsr	equ	0xFE0
 11134                           fsr2h	equ	0xFDA
 11135                           fsr2l	equ	0xFD9
 11136                           status	equ	0xFD8
 11137                           
 11138 ;; *************** function _Set_Timer2 *****************
 11139 ;; Defined at:
 11140 ;;		line 167 in file "TIMERS_XC8.c"
 11141 ;; Parameters:    Size  Location     Type
 11142 ;;  data_timer      2    0[COMRAM] unsigned int 
 11143 ;; Auto vars:     Size  Location     Type
 11144 ;;		None
 11145 ;; Return value:  Size  Location     Type
 11146 ;;                  1    wreg      void 
 11147 ;; Registers used:
 11148 ;;		None
 11149 ;; Tracked objects:
 11150 ;;		On entry : 0/0
 11151 ;;		On exit  : 0/0
 11152 ;;		Unchanged: 0/0
 11153 ;; Data sizes:     COMRAM   BANK0   BANK1   BANK2   BANK3   BANK4   BANK5   BANK6   BANK7   BANK8   BANK9  BANK10  BANK1
      +1  BANK12  BANK13  BANK14  BANK15
 11154 ;;      Params:         2       0       0       0       0       0       0       0       0       0       0       0       
      +0       0       0       0       0
 11155 ;;      Locals:         0       0       0       0       0       0       0       0       0       0       0       0       
      +0       0       0       0       0
 11156 ;;      Temps:          0       0       0       0       0       0       0       0       0       0       0       0       
      +0       0       0       0       0
 11157 ;;      Totals:         2       0       0       0       0       0       0       0       0       0       0       0       
      +0       0       0       0       0
 11158 ;;Total ram usage:        2 bytes
 11159 ;; Hardware stack levels used:    1
 11160 ;; This function calls:
 11161 ;;		Nothing
 11162 ;; This function is called by:
 11163 ;;		_isr2
 11164 ;;		_conta_dente
 11165 ;; This function uses a non-reentrant model
 11166 ;;
 11167                           
 11168                           	psect	text32
 11169  003490                     __ptext32:
 11170                           	opt stack 0
 11171  003490                     _Set_Timer2:
 11172                           	opt stack 24
 11173                           
 11174                           ;TIMERS_XC8.c: 169: TMR2 = data_timer;
 11175                           
 11176                           ;incstack = 0
 11177  003490  C001  FFBC         	movff	Set_Timer2@data_timer,4028	;volatile
 11178  003494  0012               	return		;funcret
 11179  003496                     __end_of_Set_Timer2:
 11180                           	opt stack 0
 11181                           stkptr	equ	0xFFC
 11182                           pclatu	equ	0xFFB
 11183                           pclath	equ	0xFFA
 11184                           tblptru	equ	0xFF8
 11185                           tblptrh	equ	0xFF7
 11186                           tblptrl	equ	0xFF6
 11187                           tablat	equ	0xFF5
 11188                           prodh	equ	0xFF4
 11189                           prodl	equ	0xFF3
 11190                           intcon	equ	0xFF2
 11191                           intcon2	equ	0xFF1
 11192                           postinc0	equ	0xFEE
 11193                           fsr0h	equ	0xFEA
 11194                           fsr0l	equ	0xFE9
 11195                           wreg	equ	0xFE8
 11196                           postdec1	equ	0xFE5
 11197                           fsr1h	equ	0xFE2
 11198                           fsr1l	equ	0xFE1
 11199                           bsr	equ	0xFE0
 11200                           fsr2h	equ	0xFDA
 11201                           fsr2l	equ	0xFD9
 11202                           status	equ	0xFD8
 11203                           
 11204 ;; *************** function _Set_Timer0 *****************
 11205 ;; Defined at:
 11206 ;;		line 306 in file "TIMERS_XC8.c"
 11207 ;; Parameters:    Size  Location     Type
 11208 ;;  data_timer      2    0[COMRAM] unsigned int 
 11209 ;; Auto vars:     Size  Location     Type
 11210 ;;		None
 11211 ;; Return value:  Size  Location     Type
 11212 ;;                  1    wreg      void 
 11213 ;; Registers used:
 11214 ;;		wreg, status,2
 11215 ;; Tracked objects:
 11216 ;;		On entry : 0/0
 11217 ;;		On exit  : 0/0
 11218 ;;		Unchanged: 0/0
 11219 ;; Data sizes:     COMRAM   BANK0   BANK1   BANK2   BANK3   BANK4   BANK5   BANK6   BANK7   BANK8   BANK9  BANK10  BANK1
      +1  BANK12  BANK13  BANK14  BANK15
 11220 ;;      Params:         2       0       0       0       0       0       0       0       0       0       0       0       
      +0       0       0       0       0
 11221 ;;      Locals:         0       0       0       0       0       0       0       0       0       0       0       0       
      +0       0       0       0       0
 11222 ;;      Temps:          0       0       0       0       0       0       0       0       0       0       0       0       
      +0       0       0       0       0
 11223 ;;      Totals:         2       0       0       0       0       0       0       0       0       0       0       0       
      +0       0       0       0       0
 11224 ;;Total ram usage:        2 bytes
 11225 ;; Hardware stack levels used:    1
 11226 ;; This function calls:
 11227 ;;		Nothing
 11228 ;; This function is called by:
 11229 ;;		_isr2
 11230 ;;		_conta_dente
 11231 ;; This function uses a non-reentrant model
 11232 ;;
 11233                           
 11234                           	psect	text33
 11235  003466                     __ptext33:
 11236                           	opt stack 0
 11237  003466                     _Set_Timer0:
 11238                           	opt stack 24
 11239                           
 11240                           ;TIMERS_XC8.c: 308: TMR0H = (unsigned char) (data_timer >> 8);
 11241                           
 11242                           ;incstack = 0
 11243  003466  5002               	movf	Set_Timer0@data_timer+1,w,c
 11244  003468  6ED7               	movwf	4055,c	;volatile
 11245                           
 11246                           ;TIMERS_XC8.c: 309: TMR0L = (unsigned char) (data_timer & 0x00FF);
 11247  00346A  C001  FFD6         	movff	Set_Timer0@data_timer,4054	;volatile
 11248  00346E  0012               	return		;funcret
 11249  003470                     __end_of_Set_Timer0:
 11250                           	opt stack 0
 11251                           stkptr	equ	0xFFC
 11252                           pclatu	equ	0xFFB
 11253                           pclath	equ	0xFFA
 11254                           tblptru	equ	0xFF8
 11255                           tblptrh	equ	0xFF7
 11256                           tblptrl	equ	0xFF6
 11257                           tablat	equ	0xFF5
 11258                           prodh	equ	0xFF4
 11259                           prodl	equ	0xFF3
 11260                           intcon	equ	0xFF2
 11261                           intcon2	equ	0xFF1
 11262                           postinc0	equ	0xFEE
 11263                           fsr0h	equ	0xFEA
 11264                           fsr0l	equ	0xFE9
 11265                           wreg	equ	0xFE8
 11266                           postdec1	equ	0xFE5
 11267                           fsr1h	equ	0xFE2
 11268                           fsr1l	equ	0xFE1
 11269                           bsr	equ	0xFE0
 11270                           fsr2h	equ	0xFDA
 11271                           fsr2l	equ	0xFD9
 11272                           status	equ	0xFD8
 11273                           
 11274 ;; *************** function _Make_16 *****************
 11275 ;; Defined at:
 11276 ;;		line 259 in file "main.c"
 11277 ;; Parameters:    Size  Location     Type
 11278 ;;  data1           1    wreg     unsigned char 
 11279 ;;  data2           1    0[COMRAM] unsigned char 
 11280 ;; Auto vars:     Size  Location     Type
 11281 ;;  data1           1    4[COMRAM] unsigned char 
 11282 ;; Return value:  Size  Location     Type
 11283 ;;                  2    0[COMRAM] unsigned int 
 11284 ;; Registers used:
 11285 ;;		wreg, status,2, status,0
 11286 ;; Tracked objects:
 11287 ;;		On entry : 0/0
 11288 ;;		On exit  : 0/0
 11289 ;;		Unchanged: 0/0
 11290 ;; Data sizes:     COMRAM   BANK0   BANK1   BANK2   BANK3   BANK4   BANK5   BANK6   BANK7   BANK8   BANK9  BANK10  BANK1
      +1  BANK12  BANK13  BANK14  BANK15
 11291 ;;      Params:         2       0       0       0       0       0       0       0       0       0       0       0       
      +0       0       0       0       0
 11292 ;;      Locals:         1       0       0       0       0       0       0       0       0       0       0       0       
      +0       0       0       0       0
 11293 ;;      Temps:          2       0       0       0       0       0       0       0       0       0       0       0       
      +0       0       0       0       0
 11294 ;;      Totals:         5       0       0       0       0       0       0       0       0       0       0       0       
      +0       0       0       0       0
 11295 ;;Total ram usage:        5 bytes
 11296 ;; Hardware stack levels used:    1
 11297 ;; This function calls:
 11298 ;;		Nothing
 11299 ;; This function is called by:
 11300 ;;		_conta_dente
 11301 ;; This function uses a non-reentrant model
 11302 ;;
 11303                           
 11304                           	psect	text34
 11305  003364                     __ptext34:
 11306                           	opt stack 0
 11307  003364                     _Make_16:
 11308                           	opt stack 24
 11309                           
 11310                           ;incstack = 0
 11311                           ;Make_16@data1 stored from wreg
 11312  003364  6E05               	movwf	Make_16@data1,c
 11313                           
 11314                           ;main.c: 261: return ((data1 << 8) | data2);
 11315  003366  5001               	movf	Make_16@data2,w,c
 11316  003368  C005  F003         	movff	Make_16@data1,??_Make_16
 11317  00336C  6A04               	clrf	(??_Make_16+1)& (0+255),c
 11318  00336E  C003  F004         	movff	??_Make_16,??_Make_16+1
 11319  003372  6A03               	clrf	??_Make_16,c
 11320  003374  1003               	iorwf	??_Make_16,w,c
 11321  003376  6E01               	movwf	?_Make_16,c
 11322  003378  5004               	movf	??_Make_16+1,w,c
 11323  00337A  6E02               	movwf	?_Make_16+1,c
 11324  00337C  0012               	return	
 11325  00337E                     __end_of_Make_16:
 11326                           	opt stack 0
 11327                           stkptr	equ	0xFFC
 11328                           pclatu	equ	0xFFB
 11329                           pclath	equ	0xFFA
 11330                           tblptru	equ	0xFF8
 11331                           tblptrh	equ	0xFF7
 11332                           tblptrl	equ	0xFF6
 11333                           tablat	equ	0xFF5
 11334                           prodh	equ	0xFF4
 11335                           prodl	equ	0xFF3
 11336                           intcon	equ	0xFF2
 11337                           intcon2	equ	0xFF1
 11338                           postinc0	equ	0xFEE
 11339                           fsr0h	equ	0xFEA
 11340                           fsr0l	equ	0xFE9
 11341                           wreg	equ	0xFE8
 11342                           postdec1	equ	0xFE5
 11343                           fsr1h	equ	0xFE2
 11344                           fsr1l	equ	0xFE1
 11345                           bsr	equ	0xFE0
 11346                           fsr2h	equ	0xFDA
 11347                           fsr2l	equ	0xFD9
 11348                           status	equ	0xFD8
 11349                           
 11350 ;; *************** function _I2C_Leitura_Multiplos_Endereco *****************
 11351 ;; Defined at:
 11352 ;;		line 191 in file "ConfigI2c.c"
 11353 ;; Parameters:    Size  Location     Type
 11354 ;;  end_i2c         1    wreg     unsigned char 
 11355 ;;  cont_b          1    2[COMRAM] unsigned char 
 11356 ;;  endereco        1    3[COMRAM] unsigned char 
 11357 ;; Auto vars:     Size  Location     Type
 11358 ;;  end_i2c         1   11[COMRAM] unsigned char 
 11359 ;;  cont            1   12[COMRAM] unsigned char 
 11360 ;; Return value:  Size  Location     Type
 11361 ;;                  1    wreg      void 
 11362 ;; Registers used:
 11363 ;;		wreg, fsr2l, fsr2h, status,2, status,0, prodl, prodh, cstack
 11364 ;; Tracked objects:
 11365 ;;		On entry : 0/0
 11366 ;;		On exit  : 0/0
 11367 ;;		Unchanged: 0/0
 11368 ;; Data sizes:     COMRAM   BANK0   BANK1   BANK2   BANK3   BANK4   BANK5   BANK6   BANK7   BANK8   BANK9  BANK10  BANK1
      +1  BANK12  BANK13  BANK14  BANK15
 11369 ;;      Params:         2       0       0       0       0       0       0       0       0       0       0       0       
      +0       0       0       0       0
 11370 ;;      Locals:         2       0       0       0       0       0       0       0       0       0       0       0       
      +0       0       0       0       0
 11371 ;;      Temps:          7       0       0       0       0       0       0       0       0       0       0       0       
      +0       0       0       0       0
 11372 ;;      Totals:        11       0       0       0       0       0       0       0       0       0       0       0       
      +0       0       0       0       0
 11373 ;;Total ram usage:       11 bytes
 11374 ;; Hardware stack levels used:    1
 11375 ;; Hardware stack levels required when called:    2
 11376 ;; This function calls:
 11377 ;;		_I2C_ACK
 11378 ;;		_I2C_Master_RepeatedStart
 11379 ;;		_I2C_Master_Start
 11380 ;;		_I2C_Master_Stop
 11381 ;;		_I2C_NACK
 11382 ;;		_I2C_Recebe
 11383 ;;		_I2C_Transmite
 11384 ;; This function is called by:
 11385 ;;		_conta_dente
 11386 ;; This function uses a non-reentrant model
 11387 ;;
 11388                           
 11389                           	psect	text35
 11390  003178                     __ptext35:
 11391                           	opt stack 0
 11392  003178                     _I2C_Leitura_Multiplos_Endereco:
 11393                           	opt stack 22
 11394                           
 11395                           ;incstack = 0
 11396                           ;I2C_Leitura_Multiplos_Endereco@end_i2c stored from wreg
 11397  003178  6E0C               	movwf	I2C_Leitura_Multiplos_Endereco@end_i2c,c
 11398                           
 11399                           ;ConfigI2c.c: 193: unsigned char cont = 0;
 11400  00317A  0E00               	movlw	0
 11401  00317C  6E0D               	movwf	I2C_Leitura_Multiplos_Endereco@cont,c
 11402                           
 11403                           ;ConfigI2c.c: 195: I2C_Master_Start();
 11404  00317E  EC40  F01A         	call	_I2C_Master_Start	;wreg free
 11405                           
 11406                           ;ConfigI2c.c: 197: I2C_Transmite(end_i2c|0x00);
 11407  003182  500C               	movf	I2C_Leitura_Multiplos_Endereco@end_i2c,w,c
 11408  003184  EC23  F01A         	call	_I2C_Transmite
 11409                           
 11410                           ;ConfigI2c.c: 199: I2C_Transmite(endereco);
 11411  003188  5004               	movf	I2C_Leitura_Multiplos_Endereco@endereco,w,c
 11412  00318A  EC23  F01A         	call	_I2C_Transmite
 11413                           
 11414                           ;ConfigI2c.c: 201: I2C_Master_RepeatedStart();
 11415  00318E  EC44  F01A         	call	_I2C_Master_RepeatedStart	;wreg free
 11416                           
 11417                           ;ConfigI2c.c: 203: I2C_Transmite(end_i2c|0x01);
 11418  003192  500C               	movf	I2C_Leitura_Multiplos_Endereco@end_i2c,w,c
 11419  003194  0901               	iorlw	1
 11420  003196  EC23  F01A         	call	_I2C_Transmite
 11421                           
 11422                           ;ConfigI2c.c: 205: for(; cont < cont_b ; cont++)
 11423  00319A  D029               	goto	i2l3843
 11424  00319C                     i2l3833:
 11425                           
 11426                           ;ConfigI2c.c: 206: {
 11427                           ;ConfigI2c.c: 207: buffer_read[cont] = I2C_Recebe();
 11428  00319C  500D               	movf	I2C_Leitura_Multiplos_Endereco@cont,w,c
 11429  00319E  0D01               	mullw	1
 11430  0031A0  0E18               	movlw	low _buffer_read
 11431  0031A2  24F3               	addwf	prodl,w,c
 11432  0031A4  6ED9               	movwf	fsr2l,c
 11433  0031A6  0E01               	movlw	high _buffer_read
 11434  0031A8  20F4               	addwfc	prodh,w,c
 11435  0031AA  6EDA               	movwf	fsr2h,c
 11436  0031AC  EC02  F01A         	call	_I2C_Recebe	;wreg free
 11437  0031B0  6EDF               	movwf	indf2,c
 11438                           
 11439                           ;ConfigI2c.c: 208: if(cont < (cont_b-1))
 11440  0031B2  0EFF               	movlw	255
 11441  0031B4  6E05               	movwf	??_I2C_Leitura_Multiplos_Endereco& (0+255),c
 11442  0031B6  0EFF               	movlw	255
 11443  0031B8  6E06               	movwf	(??_I2C_Leitura_Multiplos_Endereco+1)& (0+255),c
 11444  0031BA  5003               	movf	I2C_Leitura_Multiplos_Endereco@cont_b,w,c
 11445  0031BC  6E07               	movwf	(??_I2C_Leitura_Multiplos_Endereco+2)& (0+255),c
 11446  0031BE  6A08               	clrf	(??_I2C_Leitura_Multiplos_Endereco+3)& (0+255),c
 11447  0031C0  5005               	movf	??_I2C_Leitura_Multiplos_Endereco,w,c
 11448  0031C2  2607               	addwf	??_I2C_Leitura_Multiplos_Endereco+2,f,c
 11449  0031C4  5006               	movf	??_I2C_Leitura_Multiplos_Endereco+1,w,c
 11450  0031C6  2208               	addwfc	??_I2C_Leitura_Multiplos_Endereco+3,f,c
 11451  0031C8  500D               	movf	I2C_Leitura_Multiplos_Endereco@cont,w,c
 11452  0031CA  6E09               	movwf	(??_I2C_Leitura_Multiplos_Endereco+4)& (0+255),c
 11453  0031CC  6A0A               	clrf	(??_I2C_Leitura_Multiplos_Endereco+5)& (0+255),c
 11454  0031CE  5007               	movf	??_I2C_Leitura_Multiplos_Endereco+2,w,c
 11455  0031D0  5C09               	subwf	??_I2C_Leitura_Multiplos_Endereco+4,w,c
 11456  0031D2  500A               	movf	??_I2C_Leitura_Multiplos_Endereco+5,w,c
 11457  0031D4  0A80               	xorlw	128
 11458  0031D6  6E0B               	movwf	(??_I2C_Leitura_Multiplos_Endereco+6)& (0+255),c
 11459  0031D8  5008               	movf	??_I2C_Leitura_Multiplos_Endereco+3,w,c
 11460  0031DA  0A80               	xorlw	128
 11461  0031DC  580B               	subwfb	(??_I2C_Leitura_Multiplos_Endereco+6)& (0+255),w,c
 11462  0031DE  B0D8               	btfsc	status,0,c
 11463  0031E0  D003               	goto	i2l3839
 11464                           
 11465                           ;ConfigI2c.c: 209: I2C_ACK();
 11466  0031E2  EC10  F01A         	call	_I2C_ACK	;wreg free
 11467  0031E6  D002               	goto	i2l3841
 11468  0031E8                     i2l3839:
 11469                           
 11470                           ;ConfigI2c.c: 210: else
 11471                           ;ConfigI2c.c: 211: I2C_NACK();
 11472  0031E8  EC09  F01A         	call	_I2C_NACK	;wreg free
 11473  0031EC                     i2l3841:
 11474  0031EC  2A0D               	incf	I2C_Leitura_Multiplos_Endereco@cont,f,c
 11475  0031EE                     i2l3843:
 11476  0031EE  5003               	movf	I2C_Leitura_Multiplos_Endereco@cont_b,w,c
 11477  0031F0  5C0D               	subwf	I2C_Leitura_Multiplos_Endereco@cont,w,c
 11478  0031F2  A0D8               	btfss	status,0,c
 11479  0031F4  D7D3               	goto	i2l3833
 11480                           
 11481                           ;ConfigI2c.c: 212: }
 11482                           ;ConfigI2c.c: 214: I2C_Master_Stop();
 11483  0031F6  EC3C  F01A         	call	_I2C_Master_Stop	;wreg free
 11484  0031FA  0012               	return		;funcret
 11485  0031FC                     __end_of_I2C_Leitura_Multiplos_Endereco:
 11486                           	opt stack 0
 11487                           stkptr	equ	0xFFC
 11488                           pclatu	equ	0xFFB
 11489                           pclath	equ	0xFFA
 11490                           tblptru	equ	0xFF8
 11491                           tblptrh	equ	0xFF7
 11492                           tblptrl	equ	0xFF6
 11493                           tablat	equ	0xFF5
 11494                           prodh	equ	0xFF4
 11495                           prodl	equ	0xFF3
 11496                           intcon	equ	0xFF2
 11497                           intcon2	equ	0xFF1
 11498                           postinc0	equ	0xFEE
 11499                           fsr0h	equ	0xFEA
 11500                           fsr0l	equ	0xFE9
 11501                           wreg	equ	0xFE8
 11502                           postdec1	equ	0xFE5
 11503                           fsr1h	equ	0xFE2
 11504                           fsr1l	equ	0xFE1
 11505                           bsr	equ	0xFE0
 11506                           indf2	equ	0xFDF
 11507                           fsr2h	equ	0xFDA
 11508                           fsr2l	equ	0xFD9
 11509                           status	equ	0xFD8
 11510                           
 11511 ;; *************** function _I2C_Transmite *****************
 11512 ;; Defined at:
 11513 ;;		line 70 in file "ConfigI2c.c"
 11514 ;; Parameters:    Size  Location     Type
 11515 ;;  dado_I2c        1    wreg     unsigned char 
 11516 ;; Auto vars:     Size  Location     Type
 11517 ;;  dado_I2c        1    1[COMRAM] unsigned char 
 11518 ;; Return value:  Size  Location     Type
 11519 ;;                  1    wreg      void 
 11520 ;; Registers used:
 11521 ;;		wreg, status,2, status,0, cstack
 11522 ;; Tracked objects:
 11523 ;;		On entry : 0/0
 11524 ;;		On exit  : 0/0
 11525 ;;		Unchanged: 0/0
 11526 ;; Data sizes:     COMRAM   BANK0   BANK1   BANK2   BANK3   BANK4   BANK5   BANK6   BANK7   BANK8   BANK9  BANK10  BANK1
      +1  BANK12  BANK13  BANK14  BANK15
 11527 ;;      Params:         0       0       0       0       0       0       0       0       0       0       0       0       
      +0       0       0       0       0
 11528 ;;      Locals:         1       0       0       0       0       0       0       0       0       0       0       0       
      +0       0       0       0       0
 11529 ;;      Temps:          0       0       0       0       0       0       0       0       0       0       0       0       
      +0       0       0       0       0
 11530 ;;      Totals:         1       0       0       0       0       0       0       0       0       0       0       0       
      +0       0       0       0       0
 11531 ;;Total ram usage:        1 bytes
 11532 ;; Hardware stack levels used:    1
 11533 ;; Hardware stack levels required when called:    1
 11534 ;; This function calls:
 11535 ;;		_I2C_Master_Wait
 11536 ;; This function is called by:
 11537 ;;		_I2C_Leitura_Multiplos_Endereco
 11538 ;;		_I2C_Master_Escreve
 11539 ;;		_I2C_Master_Escreve_Multiplos
 11540 ;;		_I2C_Leitura
 11541 ;;		_I2C_Leitura_Multiplos
 11542 ;;		_I2C_Leitura_Endereco
 11543 ;;		_I2C_Master_Escreve_Endereco
 11544 ;;		_I2C_Master_Escreve_Multiplos_Endereco
 11545 ;; This function uses a non-reentrant model
 11546 ;;
 11547                           
 11548                           	psect	text36
 11549  003446                     __ptext36:
 11550                           	opt stack 0
 11551  003446                     _I2C_Transmite:
 11552                           	opt stack 22
 11553                           
 11554                           ;incstack = 0
 11555                           ;I2C_Transmite@dado_I2c stored from wreg
 11556  003446  6E02               	movwf	I2C_Transmite@dado_I2c,c
 11557                           
 11558                           ;ConfigI2c.c: 72: I2C_Master_Wait();
 11559  003448  ECF2  F019         	call	_I2C_Master_Wait	;wreg free
 11560                           
 11561                           ;ConfigI2c.c: 73: SSP2BUF = dado_I2c;
 11562  00344C  C002  FF6F         	movff	I2C_Transmite@dado_I2c,3951	;volatile
 11563  003450  0012               	return		;funcret
 11564  003452                     __end_of_I2C_Transmite:
 11565                           	opt stack 0
 11566                           stkptr	equ	0xFFC
 11567                           pclatu	equ	0xFFB
 11568                           pclath	equ	0xFFA
 11569                           tblptru	equ	0xFF8
 11570                           tblptrh	equ	0xFF7
 11571                           tblptrl	equ	0xFF6
 11572                           tablat	equ	0xFF5
 11573                           prodh	equ	0xFF4
 11574                           prodl	equ	0xFF3
 11575                           intcon	equ	0xFF2
 11576                           intcon2	equ	0xFF1
 11577                           postinc0	equ	0xFEE
 11578                           fsr0h	equ	0xFEA
 11579                           fsr0l	equ	0xFE9
 11580                           wreg	equ	0xFE8
 11581                           postdec1	equ	0xFE5
 11582                           fsr1h	equ	0xFE2
 11583                           fsr1l	equ	0xFE1
 11584                           bsr	equ	0xFE0
 11585                           indf2	equ	0xFDF
 11586                           fsr2h	equ	0xFDA
 11587                           fsr2l	equ	0xFD9
 11588                           status	equ	0xFD8
 11589                           
 11590 ;; *************** function _I2C_Recebe *****************
 11591 ;; Defined at:
 11592 ;;		line 84 in file "ConfigI2c.c"
 11593 ;; Parameters:    Size  Location     Type
 11594 ;;		None
 11595 ;; Auto vars:     Size  Location     Type
 11596 ;;		None
 11597 ;; Return value:  Size  Location     Type
 11598 ;;                  1    wreg      unsigned char 
 11599 ;; Registers used:
 11600 ;;		wreg, status,2, status,0, cstack
 11601 ;; Tracked objects:
 11602 ;;		On entry : 0/0
 11603 ;;		On exit  : 0/0
 11604 ;;		Unchanged: 0/0
 11605 ;; Data sizes:     COMRAM   BANK0   BANK1   BANK2   BANK3   BANK4   BANK5   BANK6   BANK7   BANK8   BANK9  BANK10  BANK1
      +1  BANK12  BANK13  BANK14  BANK15
 11606 ;;      Params:         0       0       0       0       0       0       0       0       0       0       0       0       
      +0       0       0       0       0
 11607 ;;      Locals:         0       0       0       0       0       0       0       0       0       0       0       0       
      +0       0       0       0       0
 11608 ;;      Temps:          0       0       0       0       0       0       0       0       0       0       0       0       
      +0       0       0       0       0
 11609 ;;      Totals:         0       0       0       0       0       0       0       0       0       0       0       0       
      +0       0       0       0       0
 11610 ;;Total ram usage:        0 bytes
 11611 ;; Hardware stack levels used:    1
 11612 ;; Hardware stack levels required when called:    1
 11613 ;; This function calls:
 11614 ;;		_I2C_Master_Wait
 11615 ;; This function is called by:
 11616 ;;		_I2C_Leitura_Multiplos_Endereco
 11617 ;;		_I2C_Leitura
 11618 ;;		_I2C_Leitura_Multiplos
 11619 ;;		_I2C_Leitura_Endereco
 11620 ;; This function uses a non-reentrant model
 11621 ;;
 11622                           
 11623                           	psect	text37
 11624  003404                     __ptext37:
 11625                           	opt stack 0
 11626  003404                     _I2C_Recebe:
 11627                           	opt stack 22
 11628                           
 11629                           ;ConfigI2c.c: 87: I2C_Master_Wait();
 11630                           
 11631                           ;incstack = 0
 11632  003404  ECF2  F019         	call	_I2C_Master_Wait	;wreg free
 11633                           
 11634                           ;ConfigI2c.c: 88: SSP2CON2bits.RCEN = 1;
 11635  003408  866B               	bsf	3947,3,c	;volatile
 11636  00340A                     i2l724:
 11637  00340A  A06D               	btfss	3949,0,c	;volatile
 11638  00340C  D7FE               	goto	i2l724
 11639                           
 11640                           ;ConfigI2c.c: 90: return SSP2BUF;
 11641  00340E  506F               	movf	3951,w,c	;volatile
 11642  003410  0012               	return	
 11643  003412                     __end_of_I2C_Recebe:
 11644                           	opt stack 0
 11645                           stkptr	equ	0xFFC
 11646                           pclatu	equ	0xFFB
 11647                           pclath	equ	0xFFA
 11648                           tblptru	equ	0xFF8
 11649                           tblptrh	equ	0xFF7
 11650                           tblptrl	equ	0xFF6
 11651                           tablat	equ	0xFF5
 11652                           prodh	equ	0xFF4
 11653                           prodl	equ	0xFF3
 11654                           intcon	equ	0xFF2
 11655                           intcon2	equ	0xFF1
 11656                           postinc0	equ	0xFEE
 11657                           fsr0h	equ	0xFEA
 11658                           fsr0l	equ	0xFE9
 11659                           wreg	equ	0xFE8
 11660                           postdec1	equ	0xFE5
 11661                           fsr1h	equ	0xFE2
 11662                           fsr1l	equ	0xFE1
 11663                           bsr	equ	0xFE0
 11664                           indf2	equ	0xFDF
 11665                           fsr2h	equ	0xFDA
 11666                           fsr2l	equ	0xFD9
 11667                           status	equ	0xFD8
 11668                           
 11669 ;; *************** function _I2C_NACK *****************
 11670 ;; Defined at:
 11671 ;;		line 101 in file "ConfigI2c.c"
 11672 ;; Parameters:    Size  Location     Type
 11673 ;;		None
 11674 ;; Auto vars:     Size  Location     Type
 11675 ;;		None
 11676 ;; Return value:  Size  Location     Type
 11677 ;;                  1    wreg      void 
 11678 ;; Registers used:
 11679 ;;		wreg, status,2, status,0, cstack
 11680 ;; Tracked objects:
 11681 ;;		On entry : 0/0
 11682 ;;		On exit  : 0/0
 11683 ;;		Unchanged: 0/0
 11684 ;; Data sizes:     COMRAM   BANK0   BANK1   BANK2   BANK3   BANK4   BANK5   BANK6   BANK7   BANK8   BANK9  BANK10  BANK1
      +1  BANK12  BANK13  BANK14  BANK15
 11685 ;;      Params:         0       0       0       0       0       0       0       0       0       0       0       0       
      +0       0       0       0       0
 11686 ;;      Locals:         0       0       0       0       0       0       0       0       0       0       0       0       
      +0       0       0       0       0
 11687 ;;      Temps:          0       0       0       0       0       0       0       0       0       0       0       0       
      +0       0       0       0       0
 11688 ;;      Totals:         0       0       0       0       0       0       0       0       0       0       0       0       
      +0       0       0       0       0
 11689 ;;Total ram usage:        0 bytes
 11690 ;; Hardware stack levels used:    1
 11691 ;; Hardware stack levels required when called:    1
 11692 ;; This function calls:
 11693 ;;		_I2C_Master_Wait
 11694 ;; This function is called by:
 11695 ;;		_I2C_Leitura_Multiplos_Endereco
 11696 ;;		_I2C_Leitura
 11697 ;;		_I2C_Leitura_Multiplos
 11698 ;;		_I2C_Leitura_Endereco
 11699 ;; This function uses a non-reentrant model
 11700 ;;
 11701                           
 11702                           	psect	text38
 11703  003412                     __ptext38:
 11704                           	opt stack 0
 11705  003412                     _I2C_NACK:
 11706                           	opt stack 22
 11707                           
 11708                           ;ConfigI2c.c: 103: I2C_Master_Wait();
 11709                           
 11710                           ;incstack = 0
 11711  003412  ECF2  F019         	call	_I2C_Master_Wait	;wreg free
 11712                           
 11713                           ;ConfigI2c.c: 104: SSP2CON2bits.ACKDT = 1;
 11714  003416  8A6B               	bsf	3947,5,c	;volatile
 11715                           
 11716                           ;ConfigI2c.c: 105: SSP2CON2bits.ACKEN = 1;
 11717  003418  886B               	bsf	3947,4,c	;volatile
 11718  00341A                     i2l736:
 11719  00341A  A86B               	btfss	3947,4,c	;volatile
 11720  00341C  0012               	return	
 11721  00341E  D7FD               	goto	i2l736
 11722  003420                     __end_of_I2C_NACK:
 11723                           	opt stack 0
 11724                           stkptr	equ	0xFFC
 11725                           pclatu	equ	0xFFB
 11726                           pclath	equ	0xFFA
 11727                           tblptru	equ	0xFF8
 11728                           tblptrh	equ	0xFF7
 11729                           tblptrl	equ	0xFF6
 11730                           tablat	equ	0xFF5
 11731                           prodh	equ	0xFF4
 11732                           prodl	equ	0xFF3
 11733                           intcon	equ	0xFF2
 11734                           intcon2	equ	0xFF1
 11735                           postinc0	equ	0xFEE
 11736                           fsr0h	equ	0xFEA
 11737                           fsr0l	equ	0xFE9
 11738                           wreg	equ	0xFE8
 11739                           postdec1	equ	0xFE5
 11740                           fsr1h	equ	0xFE2
 11741                           fsr1l	equ	0xFE1
 11742                           bsr	equ	0xFE0
 11743                           indf2	equ	0xFDF
 11744                           fsr2h	equ	0xFDA
 11745                           fsr2l	equ	0xFD9
 11746                           status	equ	0xFD8
 11747                           
 11748 ;; *************** function _I2C_Master_Stop *****************
 11749 ;; Defined at:
 11750 ;;		line 64 in file "ConfigI2c.c"
 11751 ;; Parameters:    Size  Location     Type
 11752 ;;		None
 11753 ;; Auto vars:     Size  Location     Type
 11754 ;;		None
 11755 ;; Return value:  Size  Location     Type
 11756 ;;                  1    wreg      void 
 11757 ;; Registers used:
 11758 ;;		wreg, status,2, status,0, cstack
 11759 ;; Tracked objects:
 11760 ;;		On entry : 0/0
 11761 ;;		On exit  : 0/0
 11762 ;;		Unchanged: 0/0
 11763 ;; Data sizes:     COMRAM   BANK0   BANK1   BANK2   BANK3   BANK4   BANK5   BANK6   BANK7   BANK8   BANK9  BANK10  BANK1
      +1  BANK12  BANK13  BANK14  BANK15
 11764 ;;      Params:         0       0       0       0       0       0       0       0       0       0       0       0       
      +0       0       0       0       0
 11765 ;;      Locals:         0       0       0       0       0       0       0       0       0       0       0       0       
      +0       0       0       0       0
 11766 ;;      Temps:          0       0       0       0       0       0       0       0       0       0       0       0       
      +0       0       0       0       0
 11767 ;;      Totals:         0       0       0       0       0       0       0       0       0       0       0       0       
      +0       0       0       0       0
 11768 ;;Total ram usage:        0 bytes
 11769 ;; Hardware stack levels used:    1
 11770 ;; Hardware stack levels required when called:    1
 11771 ;; This function calls:
 11772 ;;		_I2C_Master_Wait
 11773 ;; This function is called by:
 11774 ;;		_I2C_Leitura_Multiplos_Endereco
 11775 ;;		_I2C_Master_Escreve
 11776 ;;		_I2C_Master_Escreve_Multiplos
 11777 ;;		_I2C_Leitura
 11778 ;;		_I2C_Leitura_Multiplos
 11779 ;;		_I2C_Leitura_Endereco
 11780 ;;		_I2C_Master_Escreve_Endereco
 11781 ;;		_I2C_Master_Escreve_Multiplos_Endereco
 11782 ;; This function uses a non-reentrant model
 11783 ;;
 11784                           
 11785                           	psect	text39
 11786  003478                     __ptext39:
 11787                           	opt stack 0
 11788  003478                     _I2C_Master_Stop:
 11789                           	opt stack 22
 11790                           
 11791                           ;ConfigI2c.c: 66: I2C_Master_Wait();
 11792                           
 11793                           ;incstack = 0
 11794  003478  ECF2  F019         	call	_I2C_Master_Wait	;wreg free
 11795                           
 11796                           ;ConfigI2c.c: 67: SSP2CON2bits.PEN = 1;
 11797  00347C  846B               	bsf	3947,2,c	;volatile
 11798  00347E  0012               	return		;funcret
 11799  003480                     __end_of_I2C_Master_Stop:
 11800                           	opt stack 0
 11801                           stkptr	equ	0xFFC
 11802                           pclatu	equ	0xFFB
 11803                           pclath	equ	0xFFA
 11804                           tblptru	equ	0xFF8
 11805                           tblptrh	equ	0xFF7
 11806                           tblptrl	equ	0xFF6
 11807                           tablat	equ	0xFF5
 11808                           prodh	equ	0xFF4
 11809                           prodl	equ	0xFF3
 11810                           intcon	equ	0xFF2
 11811                           intcon2	equ	0xFF1
 11812                           postinc0	equ	0xFEE
 11813                           fsr0h	equ	0xFEA
 11814                           fsr0l	equ	0xFE9
 11815                           wreg	equ	0xFE8
 11816                           postdec1	equ	0xFE5
 11817                           fsr1h	equ	0xFE2
 11818                           fsr1l	equ	0xFE1
 11819                           bsr	equ	0xFE0
 11820                           indf2	equ	0xFDF
 11821                           fsr2h	equ	0xFDA
 11822                           fsr2l	equ	0xFD9
 11823                           status	equ	0xFD8
 11824                           
 11825 ;; *************** function _I2C_Master_Start *****************
 11826 ;; Defined at:
 11827 ;;		line 52 in file "ConfigI2c.c"
 11828 ;; Parameters:    Size  Location     Type
 11829 ;;		None
 11830 ;; Auto vars:     Size  Location     Type
 11831 ;;		None
 11832 ;; Return value:  Size  Location     Type
 11833 ;;                  1    wreg      void 
 11834 ;; Registers used:
 11835 ;;		wreg, status,2, status,0, cstack
 11836 ;; Tracked objects:
 11837 ;;		On entry : 0/0
 11838 ;;		On exit  : 0/0
 11839 ;;		Unchanged: 0/0
 11840 ;; Data sizes:     COMRAM   BANK0   BANK1   BANK2   BANK3   BANK4   BANK5   BANK6   BANK7   BANK8   BANK9  BANK10  BANK1
      +1  BANK12  BANK13  BANK14  BANK15
 11841 ;;      Params:         0       0       0       0       0       0       0       0       0       0       0       0       
      +0       0       0       0       0
 11842 ;;      Locals:         0       0       0       0       0       0       0       0       0       0       0       0       
      +0       0       0       0       0
 11843 ;;      Temps:          0       0       0       0       0       0       0       0       0       0       0       0       
      +0       0       0       0       0
 11844 ;;      Totals:         0       0       0       0       0       0       0       0       0       0       0       0       
      +0       0       0       0       0
 11845 ;;Total ram usage:        0 bytes
 11846 ;; Hardware stack levels used:    1
 11847 ;; Hardware stack levels required when called:    1
 11848 ;; This function calls:
 11849 ;;		_I2C_Master_Wait
 11850 ;; This function is called by:
 11851 ;;		_I2C_Leitura_Multiplos_Endereco
 11852 ;;		_I2C_Master_Escreve
 11853 ;;		_I2C_Master_Escreve_Multiplos
 11854 ;;		_I2C_Leitura
 11855 ;;		_I2C_Leitura_Multiplos
 11856 ;;		_I2C_Leitura_Endereco
 11857 ;;		_I2C_Master_Escreve_Endereco
 11858 ;;		_I2C_Master_Escreve_Multiplos_Endereco
 11859 ;; This function uses a non-reentrant model
 11860 ;;
 11861                           
 11862                           	psect	text40
 11863  003480                     __ptext40:
 11864                           	opt stack 0
 11865  003480                     _I2C_Master_Start:
 11866                           	opt stack 22
 11867                           
 11868                           ;ConfigI2c.c: 54: I2C_Master_Wait();
 11869                           
 11870                           ;incstack = 0
 11871  003480  ECF2  F019         	call	_I2C_Master_Wait	;wreg free
 11872                           
 11873                           ;ConfigI2c.c: 55: SSP2CON2bits.SEN = 1;
 11874  003484  806B               	bsf	3947,0,c	;volatile
 11875  003486  0012               	return		;funcret
 11876  003488                     __end_of_I2C_Master_Start:
 11877                           	opt stack 0
 11878                           stkptr	equ	0xFFC
 11879                           pclatu	equ	0xFFB
 11880                           pclath	equ	0xFFA
 11881                           tblptru	equ	0xFF8
 11882                           tblptrh	equ	0xFF7
 11883                           tblptrl	equ	0xFF6
 11884                           tablat	equ	0xFF5
 11885                           prodh	equ	0xFF4
 11886                           prodl	equ	0xFF3
 11887                           intcon	equ	0xFF2
 11888                           intcon2	equ	0xFF1
 11889                           postinc0	equ	0xFEE
 11890                           fsr0h	equ	0xFEA
 11891                           fsr0l	equ	0xFE9
 11892                           wreg	equ	0xFE8
 11893                           postdec1	equ	0xFE5
 11894                           fsr1h	equ	0xFE2
 11895                           fsr1l	equ	0xFE1
 11896                           bsr	equ	0xFE0
 11897                           indf2	equ	0xFDF
 11898                           fsr2h	equ	0xFDA
 11899                           fsr2l	equ	0xFD9
 11900                           status	equ	0xFD8
 11901                           
 11902 ;; *************** function _I2C_Master_RepeatedStart *****************
 11903 ;; Defined at:
 11904 ;;		line 58 in file "ConfigI2c.c"
 11905 ;; Parameters:    Size  Location     Type
 11906 ;;		None
 11907 ;; Auto vars:     Size  Location     Type
 11908 ;;		None
 11909 ;; Return value:  Size  Location     Type
 11910 ;;                  1    wreg      void 
 11911 ;; Registers used:
 11912 ;;		wreg, status,2, status,0, cstack
 11913 ;; Tracked objects:
 11914 ;;		On entry : 0/0
 11915 ;;		On exit  : 0/0
 11916 ;;		Unchanged: 0/0
 11917 ;; Data sizes:     COMRAM   BANK0   BANK1   BANK2   BANK3   BANK4   BANK5   BANK6   BANK7   BANK8   BANK9  BANK10  BANK1
      +1  BANK12  BANK13  BANK14  BANK15
 11918 ;;      Params:         0       0       0       0       0       0       0       0       0       0       0       0       
      +0       0       0       0       0
 11919 ;;      Locals:         0       0       0       0       0       0       0       0       0       0       0       0       
      +0       0       0       0       0
 11920 ;;      Temps:          0       0       0       0       0       0       0       0       0       0       0       0       
      +0       0       0       0       0
 11921 ;;      Totals:         0       0       0       0       0       0       0       0       0       0       0       0       
      +0       0       0       0       0
 11922 ;;Total ram usage:        0 bytes
 11923 ;; Hardware stack levels used:    1
 11924 ;; Hardware stack levels required when called:    1
 11925 ;; This function calls:
 11926 ;;		_I2C_Master_Wait
 11927 ;; This function is called by:
 11928 ;;		_I2C_Leitura_Multiplos_Endereco
 11929 ;;		_I2C_Leitura_Endereco
 11930 ;; This function uses a non-reentrant model
 11931 ;;
 11932                           
 11933                           	psect	text41
 11934  003488                     __ptext41:
 11935                           	opt stack 0
 11936  003488                     _I2C_Master_RepeatedStart:
 11937                           	opt stack 22
 11938                           
 11939                           ;ConfigI2c.c: 60: I2C_Master_Wait();
 11940                           
 11941                           ;incstack = 0
 11942  003488  ECF2  F019         	call	_I2C_Master_Wait	;wreg free
 11943                           
 11944                           ;ConfigI2c.c: 61: SSP2CON2bits.RSEN = 1;
 11945  00348C  826B               	bsf	3947,1,c	;volatile
 11946  00348E  0012               	return		;funcret
 11947  003490                     __end_of_I2C_Master_RepeatedStart:
 11948                           	opt stack 0
 11949                           stkptr	equ	0xFFC
 11950                           pclatu	equ	0xFFB
 11951                           pclath	equ	0xFFA
 11952                           tblptru	equ	0xFF8
 11953                           tblptrh	equ	0xFF7
 11954                           tblptrl	equ	0xFF6
 11955                           tablat	equ	0xFF5
 11956                           prodh	equ	0xFF4
 11957                           prodl	equ	0xFF3
 11958                           intcon	equ	0xFF2
 11959                           intcon2	equ	0xFF1
 11960                           postinc0	equ	0xFEE
 11961                           fsr0h	equ	0xFEA
 11962                           fsr0l	equ	0xFE9
 11963                           wreg	equ	0xFE8
 11964                           postdec1	equ	0xFE5
 11965                           fsr1h	equ	0xFE2
 11966                           fsr1l	equ	0xFE1
 11967                           bsr	equ	0xFE0
 11968                           indf2	equ	0xFDF
 11969                           fsr2h	equ	0xFDA
 11970                           fsr2l	equ	0xFD9
 11971                           status	equ	0xFD8
 11972                           
 11973 ;; *************** function _I2C_ACK *****************
 11974 ;; Defined at:
 11975 ;;		line 93 in file "ConfigI2c.c"
 11976 ;; Parameters:    Size  Location     Type
 11977 ;;		None
 11978 ;; Auto vars:     Size  Location     Type
 11979 ;;		None
 11980 ;; Return value:  Size  Location     Type
 11981 ;;                  1    wreg      void 
 11982 ;; Registers used:
 11983 ;;		wreg, status,2, status,0, cstack
 11984 ;; Tracked objects:
 11985 ;;		On entry : 0/0
 11986 ;;		On exit  : 0/0
 11987 ;;		Unchanged: 0/0
 11988 ;; Data sizes:     COMRAM   BANK0   BANK1   BANK2   BANK3   BANK4   BANK5   BANK6   BANK7   BANK8   BANK9  BANK10  BANK1
      +1  BANK12  BANK13  BANK14  BANK15
 11989 ;;      Params:         0       0       0       0       0       0       0       0       0       0       0       0       
      +0       0       0       0       0
 11990 ;;      Locals:         0       0       0       0       0       0       0       0       0       0       0       0       
      +0       0       0       0       0
 11991 ;;      Temps:          0       0       0       0       0       0       0       0       0       0       0       0       
      +0       0       0       0       0
 11992 ;;      Totals:         0       0       0       0       0       0       0       0       0       0       0       0       
      +0       0       0       0       0
 11993 ;;Total ram usage:        0 bytes
 11994 ;; Hardware stack levels used:    1
 11995 ;; Hardware stack levels required when called:    1
 11996 ;; This function calls:
 11997 ;;		_I2C_Master_Wait
 11998 ;; This function is called by:
 11999 ;;		_I2C_Leitura_Multiplos_Endereco
 12000 ;;		_I2C_Leitura_Multiplos
 12001 ;; This function uses a non-reentrant model
 12002 ;;
 12003                           
 12004                           	psect	text42
 12005  003420                     __ptext42:
 12006                           	opt stack 0
 12007  003420                     _I2C_ACK:
 12008                           	opt stack 22
 12009                           
 12010                           ;ConfigI2c.c: 95: I2C_Master_Wait();
 12011                           
 12012                           ;incstack = 0
 12013  003420  ECF2  F019         	call	_I2C_Master_Wait	;wreg free
 12014                           
 12015                           ;ConfigI2c.c: 96: SSP2CON2bits.ACKDT = 0;
 12016  003424  9A6B               	bcf	3947,5,c	;volatile
 12017                           
 12018                           ;ConfigI2c.c: 97: SSP2CON2bits.ACKEN = 1;
 12019  003426  886B               	bsf	3947,4,c	;volatile
 12020  003428                     i2l730:
 12021  003428  A86B               	btfss	3947,4,c	;volatile
 12022  00342A  0012               	return	
 12023  00342C  D7FD               	goto	i2l730
 12024  00342E                     __end_of_I2C_ACK:
 12025                           	opt stack 0
 12026                           stkptr	equ	0xFFC
 12027                           pclatu	equ	0xFFB
 12028                           pclath	equ	0xFFA
 12029                           tblptru	equ	0xFF8
 12030                           tblptrh	equ	0xFF7
 12031                           tblptrl	equ	0xFF6
 12032                           tablat	equ	0xFF5
 12033                           prodh	equ	0xFF4
 12034                           prodl	equ	0xFF3
 12035                           intcon	equ	0xFF2
 12036                           intcon2	equ	0xFF1
 12037                           postinc0	equ	0xFEE
 12038                           fsr0h	equ	0xFEA
 12039                           fsr0l	equ	0xFE9
 12040                           wreg	equ	0xFE8
 12041                           postdec1	equ	0xFE5
 12042                           fsr1h	equ	0xFE2
 12043                           fsr1l	equ	0xFE1
 12044                           bsr	equ	0xFE0
 12045                           indf2	equ	0xFDF
 12046                           fsr2h	equ	0xFDA
 12047                           fsr2l	equ	0xFD9
 12048                           status	equ	0xFD8
 12049                           
 12050 ;; *************** function _I2C_Master_Wait *****************
 12051 ;; Defined at:
 12052 ;;		line 37 in file "ConfigI2c.c"
 12053 ;; Parameters:    Size  Location     Type
 12054 ;;		None
 12055 ;; Auto vars:     Size  Location     Type
 12056 ;;		None
 12057 ;; Return value:  Size  Location     Type
 12058 ;;                  1    wreg      void 
 12059 ;; Registers used:
 12060 ;;		wreg, status,2, status,0
 12061 ;; Tracked objects:
 12062 ;;		On entry : 0/0
 12063 ;;		On exit  : 0/0
 12064 ;;		Unchanged: 0/0
 12065 ;; Data sizes:     COMRAM   BANK0   BANK1   BANK2   BANK3   BANK4   BANK5   BANK6   BANK7   BANK8   BANK9  BANK10  BANK1
      +1  BANK12  BANK13  BANK14  BANK15
 12066 ;;      Params:         0       0       0       0       0       0       0       0       0       0       0       0       
      +0       0       0       0       0
 12067 ;;      Locals:         0       0       0       0       0       0       0       0       0       0       0       0       
      +0       0       0       0       0
 12068 ;;      Temps:          1       0       0       0       0       0       0       0       0       0       0       0       
      +0       0       0       0       0
 12069 ;;      Totals:         1       0       0       0       0       0       0       0       0       0       0       0       
      +0       0       0       0       0
 12070 ;;Total ram usage:        1 bytes
 12071 ;; Hardware stack levels used:    1
 12072 ;; This function calls:
 12073 ;;		Nothing
 12074 ;; This function is called by:
 12075 ;;		_I2C_Master_Start
 12076 ;;		_I2C_Master_RepeatedStart
 12077 ;;		_I2C_Master_Stop
 12078 ;;		_I2C_Transmite
 12079 ;;		_I2C_Recebe
 12080 ;;		_I2C_ACK
 12081 ;;		_I2C_NACK
 12082 ;;		_I2C_Master_Escreve_Multiplos
 12083 ;;		_I2C_Master_Escreve_Multiplos_Endereco
 12084 ;; This function uses a non-reentrant model
 12085 ;;
 12086                           
 12087                           	psect	text43
 12088  0033E4                     __ptext43:
 12089                           	opt stack 0
 12090  0033E4                     _I2C_Master_Wait:
 12091                           	opt stack 22
 12092  0033E4                     i2l695:
 12093  0033E4  B46D               	btfsc	3949,2,c	;volatile
 12094  0033E6  D7FE               	goto	i2l695
 12095  0033E8  CF6B F001          	movff	3947,??_I2C_Master_Wait	;volatile
 12096  0033EC  0E1F               	movlw	31
 12097  0033EE  1601               	andwf	??_I2C_Master_Wait,f,c
 12098  0033F0  B4D8               	btfsc	status,2,c
 12099  0033F2  0012               	return	
 12100  0033F4  D7F7               	goto	i2l695
 12101  0033F6                     __end_of_I2C_Master_Wait:
 12102                           	opt stack 0
 12103                           stkptr	equ	0xFFC
 12104                           pclatu	equ	0xFFB
 12105                           pclath	equ	0xFFA
 12106                           tblptru	equ	0xFF8
 12107                           tblptrh	equ	0xFF7
 12108                           tblptrl	equ	0xFF6
 12109                           tablat	equ	0xFF5
 12110                           prodh	equ	0xFF4
 12111                           prodl	equ	0xFF3
 12112                           intcon	equ	0xFF2
 12113                           intcon2	equ	0xFF1
 12114                           postinc0	equ	0xFEE
 12115                           fsr0h	equ	0xFEA
 12116                           fsr0l	equ	0xFE9
 12117                           wreg	equ	0xFE8
 12118                           postdec1	equ	0xFE5
 12119                           fsr1h	equ	0xFE2
 12120                           fsr1l	equ	0xFE1
 12121                           bsr	equ	0xFE0
 12122                           indf2	equ	0xFDF
 12123                           fsr2h	equ	0xFDA
 12124                           fsr2l	equ	0xFD9
 12125                           status	equ	0xFD8
 12126                           
 12127 ;; *************** function _Get_Timer1 *****************
 12128 ;; Defined at:
 12129 ;;		line 43 in file "TIMERS_XC8.c"
 12130 ;; Parameters:    Size  Location     Type
 12131 ;;		None
 12132 ;; Auto vars:     Size  Location     Type
 12133 ;;  Data            2    4[COMRAM] unsigned int 
 12134 ;; Return value:  Size  Location     Type
 12135 ;;                  2    0[COMRAM] unsigned int 
 12136 ;; Registers used:
 12137 ;;		wreg, status,2, status,0
 12138 ;; Tracked objects:
 12139 ;;		On entry : 0/0
 12140 ;;		On exit  : 0/0
 12141 ;;		Unchanged: 0/0
 12142 ;; Data sizes:     COMRAM   BANK0   BANK1   BANK2   BANK3   BANK4   BANK5   BANK6   BANK7   BANK8   BANK9  BANK10  BANK1
      +1  BANK12  BANK13  BANK14  BANK15
 12143 ;;      Params:         2       0       0       0       0       0       0       0       0       0       0       0       
      +0       0       0       0       0
 12144 ;;      Locals:         2       0       0       0       0       0       0       0       0       0       0       0       
      +0       0       0       0       0
 12145 ;;      Temps:          2       0       0       0       0       0       0       0       0       0       0       0       
      +0       0       0       0       0
 12146 ;;      Totals:         6       0       0       0       0       0       0       0       0       0       0       0       
      +0       0       0       0       0
 12147 ;;Total ram usage:        6 bytes
 12148 ;; Hardware stack levels used:    1
 12149 ;; This function calls:
 12150 ;;		Nothing
 12151 ;; This function is called by:
 12152 ;;		_isr2
 12153 ;;		_conta_dente
 12154 ;; This function uses a non-reentrant model
 12155 ;;
 12156                           
 12157                           	psect	text44
 12158  003328                     __ptext44:
 12159                           	opt stack 0
 12160  003328                     _Get_Timer1:
 12161                           	opt stack 24
 12162                           
 12163                           ;TIMERS_XC8.c: 45: unsigned int Data;
 12164                           ;TIMERS_XC8.c: 46: Data = (TMR1H << 8) | TMR1L;
 12165                           
 12166                           ;incstack = 0
 12167  003328  50CE               	movf	4046,w,c	;volatile
 12168  00332A  CFCF F003          	movff	4047,??_Get_Timer1	;volatile
 12169  00332E  6A04               	clrf	(??_Get_Timer1+1)& (0+255),c
 12170  003330  C003  F004         	movff	??_Get_Timer1,??_Get_Timer1+1
 12171  003334  6A03               	clrf	??_Get_Timer1,c
 12172  003336  1003               	iorwf	??_Get_Timer1,w,c
 12173  003338  6E05               	movwf	Get_Timer1@Data,c
 12174  00333A  5004               	movf	??_Get_Timer1+1,w,c
 12175  00333C  6E06               	movwf	Get_Timer1@Data+1,c
 12176                           
 12177                           ;TIMERS_XC8.c: 47: return Data;
 12178  00333E  C005  F001         	movff	Get_Timer1@Data,?_Get_Timer1
 12179  003342  C006  F002         	movff	Get_Timer1@Data+1,?_Get_Timer1+1
 12180  003346  0012               	return	
 12181  003348                     __end_of_Get_Timer1:
 12182                           	opt stack 0
 12183  0000                     stkptr	equ	0xFFC
 12184                           pclatu	equ	0xFFB
 12185                           pclath	equ	0xFFA
 12186                           tblptru	equ	0xFF8
 12187                           tblptrh	equ	0xFF7
 12188                           tblptrl	equ	0xFF6
 12189                           tablat	equ	0xFF5
 12190                           prodh	equ	0xFF4
 12191                           prodl	equ	0xFF3
 12192                           intcon	equ	0xFF2
 12193                           intcon2	equ	0xFF1
 12194                           postinc0	equ	0xFEE
 12195                           fsr0h	equ	0xFEA
 12196                           fsr0l	equ	0xFE9
 12197                           wreg	equ	0xFE8
 12198                           postdec1	equ	0xFE5
 12199                           fsr1h	equ	0xFE2
 12200                           fsr1l	equ	0xFE1
 12201                           bsr	equ	0xFE0
 12202                           indf2	equ	0xFDF
 12203                           fsr2h	equ	0xFDA
 12204                           fsr2l	equ	0xFD9
 12205                           status	equ	0xFD8
 12206                           stkptr	equ	0xFFC
 12207                           pclatu	equ	0xFFB
 12208                           pclath	equ	0xFFA
 12209                           tblptru	equ	0xFF8
 12210                           tblptrh	equ	0xFF7
 12211                           tblptrl	equ	0xFF6
 12212                           tablat	equ	0xFF5
 12213                           prodh	equ	0xFF4
 12214                           prodl	equ	0xFF3
 12215                           intcon	equ	0xFF2
 12216                           intcon2	equ	0xFF1
 12217                           postinc0	equ	0xFEE
 12218                           fsr0h	equ	0xFEA
 12219                           fsr0l	equ	0xFE9
 12220                           wreg	equ	0xFE8
 12221                           postdec1	equ	0xFE5
 12222                           fsr1h	equ	0xFE2
 12223                           fsr1l	equ	0xFE1
 12224                           bsr	equ	0xFE0
 12225                           indf2	equ	0xFDF
 12226                           fsr2h	equ	0xFDA
 12227                           fsr2l	equ	0xFD9
 12228                           status	equ	0xFD8
 12229                           
 12230                           	psect	rparam
 12231  0000                     stkptr	equ	0xFFC
 12232                           pclatu	equ	0xFFB
 12233                           pclath	equ	0xFFA
 12234                           tblptru	equ	0xFF8
 12235                           tblptrh	equ	0xFF7
 12236                           tblptrl	equ	0xFF6
 12237                           tablat	equ	0xFF5
 12238                           prodh	equ	0xFF4
 12239                           prodl	equ	0xFF3
 12240                           intcon	equ	0xFF2
 12241                           intcon2	equ	0xFF1
 12242                           postinc0	equ	0xFEE
 12243                           fsr0h	equ	0xFEA
 12244                           fsr0l	equ	0xFE9
 12245                           wreg	equ	0xFE8
 12246                           postdec1	equ	0xFE5
 12247                           fsr1h	equ	0xFE2
 12248                           fsr1l	equ	0xFE1
 12249                           bsr	equ	0xFE0
 12250                           indf2	equ	0xFDF
 12251                           fsr2h	equ	0xFDA
 12252                           fsr2l	equ	0xFD9
 12253                           status	equ	0xFD8
 12254                           
 12255                           	psect	temp
 12256  00005F                     btemp:
 12257                           	opt stack 0
 12258  00005F                     	ds	1
 12259  0000                     int$flags	set	btemp
 12260                           stkptr	equ	0xFFC
 12261                           pclatu	equ	0xFFB
 12262                           pclath	equ	0xFFA
 12263                           tblptru	equ	0xFF8
 12264                           tblptrh	equ	0xFF7
 12265                           tblptrl	equ	0xFF6
 12266                           tablat	equ	0xFF5
 12267                           prodh	equ	0xFF4
 12268                           prodl	equ	0xFF3
 12269                           intcon	equ	0xFF2
 12270                           intcon2	equ	0xFF1
 12271                           postinc0	equ	0xFEE
 12272                           fsr0h	equ	0xFEA
 12273                           fsr0l	equ	0xFE9
 12274                           wreg	equ	0xFE8
 12275                           postdec1	equ	0xFE5
 12276                           fsr1h	equ	0xFE2
 12277                           fsr1l	equ	0xFE1
 12278                           bsr	equ	0xFE0
 12279                           indf2	equ	0xFDF
 12280                           fsr2h	equ	0xFDA
 12281                           fsr2l	equ	0xFD9
 12282                           status	equ	0xFD8


Data Sizes:
    Strings     0
    Constant    0
    Data        21
    BSS         175
    Persistent  0
    Stack       0

Auto Spaces:
    Space          Size  Autos    Used
    COMRAM           94     94      94
    BANK0           160     71     138
    BANK1           256     21     151
    BANK2           256      0       0
    BANK3           256      0       0
    BANK4           256      0       0
    BANK5           256      0       0
    BANK6           256      0       0
    BANK7           256      0       0
    BANK8           256      0       0
    BANK9           256      0       0
    BANK10          256      0       0
    BANK11          256      0       0
    BANK12          256      0       0
    BANK13          256      0       0
    BANK14          256      0       0
    BANK15           56      0       0

Pointer List with Targets:

    None.

Critical Paths under _main in COMRAM

    None.

Critical Paths under _isr in COMRAM

    None.

Critical Paths under _isr2 in COMRAM

    _isr2->_conta_dente
    _conta_dente->i2___fltol
    i2___fltol->i2___fldiv
    i2___flmul->i2___xxtofl
    i2___fldiv->i2___flmul
    _I2C_Leitura_Multiplos_Endereco->_I2C_Transmite
    _I2C_Transmite->_I2C_Master_Wait
    _I2C_Recebe->_I2C_Master_Wait
    _I2C_NACK->_I2C_Master_Wait
    _I2C_Master_Stop->_I2C_Master_Wait
    _I2C_Master_Start->_I2C_Master_Wait
    _I2C_Master_RepeatedStart->_I2C_Master_Wait
    _I2C_ACK->_I2C_Master_Wait

Critical Paths under _main in BANK0

    _main->___flmul
    _Control_ml_ign->___flmul
    ___flneg->___xxtofl
    ___flmul->___fladd
    ___fladd->___flneg

Critical Paths under _isr in BANK0

    _isr->_Set_Timer1

Critical Paths under _isr2 in BANK0

    None.

Critical Paths under _main in BANK1

    _main->_Control_ml_ign
    _Control_ml_ign->___flmul

Critical Paths under _isr in BANK1

    None.

Critical Paths under _isr2 in BANK1

    None.

Critical Paths under _main in BANK2

    None.

Critical Paths under _isr in BANK2

    None.

Critical Paths under _isr2 in BANK2

    None.

Critical Paths under _main in BANK3

    None.

Critical Paths under _isr in BANK3

    None.

Critical Paths under _isr2 in BANK3

    None.

Critical Paths under _main in BANK4

    None.

Critical Paths under _isr in BANK4

    None.

Critical Paths under _isr2 in BANK4

    None.

Critical Paths under _main in BANK5

    None.

Critical Paths under _isr in BANK5

    None.

Critical Paths under _isr2 in BANK5

    None.

Critical Paths under _main in BANK6

    None.

Critical Paths under _isr in BANK6

    None.

Critical Paths under _isr2 in BANK6

    None.

Critical Paths under _main in BANK7

    None.

Critical Paths under _isr in BANK7

    None.

Critical Paths under _isr2 in BANK7

    None.

Critical Paths under _main in BANK8

    None.

Critical Paths under _isr in BANK8

    None.

Critical Paths under _isr2 in BANK8

    None.

Critical Paths under _main in BANK9

    None.

Critical Paths under _isr in BANK9

    None.

Critical Paths under _isr2 in BANK9

    None.

Critical Paths under _main in BANK10

    None.

Critical Paths under _isr in BANK10

    None.

Critical Paths under _isr2 in BANK10

    None.

Critical Paths under _main in BANK11

    None.

Critical Paths under _isr in BANK11

    None.

Critical Paths under _isr2 in BANK11

    None.

Critical Paths under _main in BANK12

    None.

Critical Paths under _isr in BANK12

    None.

Critical Paths under _isr2 in BANK12

    None.

Critical Paths under _main in BANK13

    None.

Critical Paths under _isr in BANK13

    None.

Critical Paths under _isr2 in BANK13

    None.

Critical Paths under _main in BANK14

    None.

Critical Paths under _isr in BANK14

    None.

Critical Paths under _isr2 in BANK14

    None.

Critical Paths under _main in BANK15

    None.

Critical Paths under _isr in BANK15

    None.

Critical Paths under _isr2 in BANK15

    None.

Call Graph Tables:

 ---------------------------------------------------------------------------------
 (Depth) Function   	        Calls       Base Space   Used Autos Params    Refs
 ---------------------------------------------------------------------------------
 (0) _main                                                 2     2      0   22802
                                             69 BANK0      2     2      0
                       _Configure_HW
                     _Control_ml_ign
                    _I2C_Master_Init
                         _Set_Timer5
                            ___aldiv
                            ___fladd
                            ___fldiv
                             ___flge
                            ___flmul
                            ___flneg
                            ___fltol
                           ___xxtofl
 ---------------------------------------------------------------------------------
 (1) ___fltol                                             10     6      4     431
                                             19 BANK0     10     6      4
 ---------------------------------------------------------------------------------
 (1) ___fldiv                                             25    17      8    1625
                                             19 BANK0     25    17      8
 ---------------------------------------------------------------------------------
 (1) ___aldiv                                             14     6      8     452
                                             19 BANK0     14     6      8
 ---------------------------------------------------------------------------------
 (1) _Set_Timer5                                           2     0      2     170
                                             19 BANK0      2     0      2
 ---------------------------------------------------------------------------------
 (1) _I2C_Master_Init                                      0     0      0       0
 ---------------------------------------------------------------------------------
 (1) _Control_ml_ign                                       8     8      0   10096
                                             13 BANK1      8     8      0
                            ___fladd
                             ___flge
                            ___flmul
                            ___flneg
                           ___xxtofl
 ---------------------------------------------------------------------------------
 (1) ___xxtofl                                            14    10      4     981
                                             19 BANK0     14    10      4
 ---------------------------------------------------------------------------------
 (1) ___flneg                                              4     0      4     515
                                             33 BANK0      4     0      4
                           ___xxtofl (ARG)
 ---------------------------------------------------------------------------------
 (1) ___flmul                                             25    17      8    3244
                                             57 BANK0     12     4      8
                                              0 BANK1     13    13      0
                            ___fladd (ARG)
                            ___flneg (ARG)
                           ___xxtofl (ARG)
 ---------------------------------------------------------------------------------
 (1) ___flge                                              12     4      8     986
                                             19 BANK0     12     4      8
 ---------------------------------------------------------------------------------
 (1) ___fladd                                             20    12      8    4302
                                             37 BANK0     20    12      8
                            ___flneg (ARG)
                           ___xxtofl (ARG)
 ---------------------------------------------------------------------------------
 (1) _Configure_HW                                         0     0      0       0
                     _Confi_Int_Ext0
                      _Config_Timer0
                      _Config_Timer1
                      _Config_Timer2
                      _Config_Timer3
                      _Config_Timer5
                         _No_Analogs
 ---------------------------------------------------------------------------------
 (2) _No_Analogs                                           0     0      0       0
 ---------------------------------------------------------------------------------
 (2) _Config_Timer5                                        0     0      0       0
 ---------------------------------------------------------------------------------
 (2) _Config_Timer3                                        0     0      0       0
 ---------------------------------------------------------------------------------
 (2) _Config_Timer2                                        0     0      0       0
 ---------------------------------------------------------------------------------
 (2) _Config_Timer1                                        0     0      0       0
 ---------------------------------------------------------------------------------
 (2) _Config_Timer0                                        0     0      0       0
 ---------------------------------------------------------------------------------
 (2) _Confi_Int_Ext0                                       0     0      0       0
 ---------------------------------------------------------------------------------
 Estimated maximum stack depth 2
 ---------------------------------------------------------------------------------
 (Depth) Function   	        Calls       Base Space   Used Autos Params    Refs
 ---------------------------------------------------------------------------------
 (3) _isr                                                 17    17      0     170
                                              2 BANK0     17    17      0
                         _Set_Timer1
 ---------------------------------------------------------------------------------
 (4) _Set_Timer1                                           2     0      2     170
                                              0 BANK0      2     0      2
 ---------------------------------------------------------------------------------
 Estimated maximum stack depth 4
 ---------------------------------------------------------------------------------
 (Depth) Function   	        Calls       Base Space   Used Autos Params    Refs
 ---------------------------------------------------------------------------------
 (5) _isr2                                                16    16      0    7578
                                             78 COMRAM    16    16      0
                         _Get_Timer1
                         _Set_Timer0
                         _Set_Timer2
                         _Set_Timer3
                        _conta_dente
                       i2_Set_Timer5
 ---------------------------------------------------------------------------------
 (6) i2_Set_Timer5                                         2     0      2      70
                                              0 COMRAM     2     0      2
 ---------------------------------------------------------------------------------
 (6) _conta_dente                                          4     4      0    6235
                                             74 COMRAM     4     4      0
                         _Get_Timer1
     _I2C_Leitura_Multiplos_Endereco
                            _Make_16
                         _Set_Timer0
                         _Set_Timer2
                         _Set_Timer3
                            ___awdiv
                       i2_Set_Timer1
                          i2___fldiv
                          i2___flmul
                          i2___fltol
                         i2___xxtofl
 ---------------------------------------------------------------------------------
 (7) i2___xxtofl                                          14    10      4     348
                                              0 COMRAM    14    10      4
 ---------------------------------------------------------------------------------
 (7) i2___fltol                                           10     6      4     255
                                             64 COMRAM    10     6      4
                          i2___fldiv (ARG)
                          i2___flmul (ARG)
                         i2___xxtofl (ARG)
 ---------------------------------------------------------------------------------
 (7) i2___flmul                                           25    17      8    2182
                                             14 COMRAM    25    17      8
                         i2___xxtofl (ARG)
 ---------------------------------------------------------------------------------
 (7) i2___fldiv                                           25    17      8    1107
                                             39 COMRAM    25    17      8
                          i2___flmul (ARG)
                         i2___xxtofl (ARG)
 ---------------------------------------------------------------------------------
 (7) i2_Set_Timer1                                         2     0      2      70
                                              0 COMRAM     2     0      2
 ---------------------------------------------------------------------------------
 (7) ___awdiv                                              8     4      4     452
                                              0 COMRAM     8     4      4
 ---------------------------------------------------------------------------------
 (7) _Set_Timer3                                           2     0      2     348
                                              0 COMRAM     2     0      2
 ---------------------------------------------------------------------------------
 (7) _Set_Timer2                                           2     0      2     554
                                              0 COMRAM     2     0      2
 ---------------------------------------------------------------------------------
 (7) _Set_Timer0                                           2     0      2     348
                                              0 COMRAM     2     0      2
 ---------------------------------------------------------------------------------
 (7) _Make_16                                              5     3      2     196
                                              0 COMRAM     5     3      2
 ---------------------------------------------------------------------------------
 (7) _I2C_Leitura_Multiplos_Endereco                      11     9      2     352
                                              2 COMRAM    11     9      2
                            _I2C_ACK
           _I2C_Master_RepeatedStart
                   _I2C_Master_Start
                    _I2C_Master_Stop
                           _I2C_NACK
                         _I2C_Recebe
                      _I2C_Transmite
 ---------------------------------------------------------------------------------
 (8) _I2C_Transmite                                        1     1      0      22
                                              1 COMRAM     1     1      0
                    _I2C_Master_Wait
 ---------------------------------------------------------------------------------
 (8) _I2C_Recebe                                           0     0      0       0
                    _I2C_Master_Wait
 ---------------------------------------------------------------------------------
 (8) _I2C_NACK                                             0     0      0       0
                    _I2C_Master_Wait
 ---------------------------------------------------------------------------------
 (8) _I2C_Master_Stop                                      0     0      0       0
                    _I2C_Master_Wait
 ---------------------------------------------------------------------------------
 (8) _I2C_Master_Start                                     0     0      0       0
                    _I2C_Master_Wait
 ---------------------------------------------------------------------------------
 (8) _I2C_Master_RepeatedStart                             0     0      0       0
                    _I2C_Master_Wait
 ---------------------------------------------------------------------------------
 (8) _I2C_ACK                                              0     0      0       0
                    _I2C_Master_Wait
 ---------------------------------------------------------------------------------
 (9) _I2C_Master_Wait                                      1     1      0       0
                                              0 COMRAM     1     1      0
 ---------------------------------------------------------------------------------
 (7) _Get_Timer1                                           6     4      2      23
                                              0 COMRAM     6     4      2
 ---------------------------------------------------------------------------------
 Estimated maximum stack depth 9
 ---------------------------------------------------------------------------------

 Call Graph Graphs:

 _main (ROOT)
   _Configure_HW
     _Confi_Int_Ext0
     _Config_Timer0
     _Config_Timer1
     _Config_Timer2
     _Config_Timer3
     _Config_Timer5
     _No_Analogs
   _Control_ml_ign
     ___fladd
       ___flneg (ARG)
         ___xxtofl (ARG)
       ___xxtofl (ARG)
     ___flge
     ___flmul
       ___fladd (ARG)
         ___flneg (ARG)
           ___xxtofl (ARG)
         ___xxtofl (ARG)
       ___flneg (ARG)
         ___xxtofl (ARG)
       ___xxtofl (ARG)
     ___flneg
       ___xxtofl (ARG)
     ___xxtofl
   _I2C_Master_Init
   _Set_Timer5
   ___aldiv
   ___fladd
     ___flneg (ARG)
       ___xxtofl (ARG)
     ___xxtofl (ARG)
   ___fldiv
   ___flge
   ___flmul
     ___fladd (ARG)
       ___flneg (ARG)
         ___xxtofl (ARG)
       ___xxtofl (ARG)
     ___flneg (ARG)
       ___xxtofl (ARG)
     ___xxtofl (ARG)
   ___flneg
     ___xxtofl (ARG)
   ___fltol
   ___xxtofl

 _isr (ROOT)
   _Set_Timer1

 _isr2 (ROOT)
   _Get_Timer1
   _Set_Timer0
   _Set_Timer2
   _Set_Timer3
   _conta_dente
     _Get_Timer1
     _I2C_Leitura_Multiplos_Endereco
       _I2C_ACK
         _I2C_Master_Wait
       _I2C_Master_RepeatedStart
         _I2C_Master_Wait
       _I2C_Master_Start
         _I2C_Master_Wait
       _I2C_Master_Stop
         _I2C_Master_Wait
       _I2C_NACK
         _I2C_Master_Wait
       _I2C_Recebe
         _I2C_Master_Wait
       _I2C_Transmite
         _I2C_Master_Wait
     _Make_16
     _Set_Timer0
     _Set_Timer2
     _Set_Timer3
     ___awdiv
     i2_Set_Timer1
     i2___fldiv
       i2___flmul (ARG)
         i2___xxtofl (ARG)
       i2___xxtofl (ARG)
     i2___flmul
       i2___xxtofl (ARG)
     i2___fltol
       i2___fldiv (ARG)
         i2___flmul (ARG)
           i2___xxtofl (ARG)
         i2___xxtofl (ARG)
       i2___flmul (ARG)
         i2___xxtofl (ARG)
       i2___xxtofl (ARG)
     i2___xxtofl
   i2_Set_Timer5

 Address spaces:
Name               Size   Autos  Total    Cost      Usage
BIGRAM             F37      0       0      37        0.0%
EEDATA             400      0       0       0        0.0%
BITBANK14          100      0       0      33        0.0%
BANK14             100      0       0      34        0.0%
BITBANK13          100      0       0      31        0.0%
BANK13             100      0       0      32        0.0%
BITBANK12          100      0       0      29        0.0%
BANK12             100      0       0      30        0.0%
BITBANK11          100      0       0      27        0.0%
BANK11             100      0       0      28        0.0%
BITBANK10          100      0       0      25        0.0%
BANK10             100      0       0      26        0.0%
BITBANK9           100      0       0      23        0.0%
BANK9              100      0       0      24        0.0%
BITBANK8           100      0       0      21        0.0%
BANK8              100      0       0      22        0.0%
BITBANK7           100      0       0      19        0.0%
BANK7              100      0       0      20        0.0%
BITBANK6           100      0       0      17        0.0%
BANK6              100      0       0      18        0.0%
BITBANK5           100      0       0      15        0.0%
BANK5              100      0       0      16        0.0%
BITBANK4           100      0       0      13        0.0%
BANK4              100      0       0      14        0.0%
BITBANK3           100      0       0      10        0.0%
BANK3              100      0       0      11        0.0%
BITBANK2           100      0       0       8        0.0%
BANK2              100      0       0       9        0.0%
BITBANK1           100      0       0       6        0.0%
BANK1              100     15      97       7       59.0%
BITBANK0            A0      0       1       4        0.6%
BANK0               A0     47      8A       5       86.3%
BITCOMRAM           5E      0       0       0        0.0%
COMRAM              5E     5E      5E       1      100.0%
BITBANK15           38      0       0      35        0.0%
BANK15              38      0       0      36        0.0%
BITSFR_1             0      0       0     200        0.0%
SFR_1                0      0       0     200        0.0%
BITSFR               0      0       0     200        0.0%
SFR                  0      0       0     200        0.0%
STACK                0      0       0       2        0.0%
NULL                 0      0       0       0        0.0%
ABS                  0      0     17F      12        0.0%
DATA                 0      0     17F       3        0.0%
CODE                 0      0       0       0        0.0%


Microchip Technology PIC18 Macro Assembler V1.42 build -159332390 
Symbol Table                                                                                   Mon Aug 12 15:58:44 2019

                                      _K 018B                             ___fldiv@aexp 008B  
                           ___fldiv@bexp 008A                                        _a 0168  
                                      _b 0166                                        _c 0164  
                                      _d 0162                                        _e 0160  
                                      _u 00AF                                        _z 0187  
                           ___fldiv@sign 007F                          ?_Control_ml_ign 0001  
                           ___awdiv@sign 0006                                       _dm 015E  
                   _Chave_controle_geral 0740                                       bsr 000FE0  
                    __size_of_I2C_Recebe 000E                             ?_conta_dente 0001  
                           __CFG_CP0$OFF 000000                             __CFG_CP1$OFF 000000  
                                    l395 13CE                                      l396 107E  
                                    l399 10C0                                      l990 2C52  
                           __CFG_CPB$OFF 000000                                      _PR2 000FBB  
                           __CFG_CPD$OFF 000000                          __end_of_I2C_ACK 342E  
                            i2___fldiv@a 002C                              i2___fldiv@b 0028  
                                    _isr 0018                               i2___xxtofl 2CA2  
                                    prod 000FF3                                      wreg 000FE8  
                            i2___flmul@a 0013                              i2___flmul@b 000F  
                           ___flmul@aexp 016F                             ___flmul@bexp 0174  
                           ___flmul@sign 016E                             ___flmul@temp 0179  
                           ___flmul@prod 0175                             __CFG_LVP$OFF 000000  
                           ___fltol@exp1 007C                                     l1320 1BD6  
                                   l1313 193A                                     l1330 1CE8  
                                   l1322 1C44                                     l1227 15BE  
                                   l1244 1732                                     l1228 15B2  
                                   l1253 17C6                                     l1229 157E  
                                   l1350 2AAE                                     l1342 2A3A  
                                   l1335 298E                                     l1283 1F5A  
                                   l1292 1F92                                     l1349 2A96  
                                   l1294 2000                                     l1286 1F02  
                                   l5031 2E16                                     l5103 1DD6  
                                   l6001 146A                                     l6011 1498  
                                   l5043 2E62                                     l5123 1E58  
                                   l5115 1E2A                                     l5045 2E72  
                                   l5037 2E34                                     l5141 1F0E  
                                   l5133 1ED6                                     l6007 148E  
                                   l5063 2EFA                                     l5055 2ECC  
                                   l5047 2E78                                     l6113 1764  
                                   l6105 1712                                     l5153 1F7C  
                                   l5073 1D4A                                     l5225 2FA0  
                                   l5209 2F32                                     l6123 1786  
                                   l6131 17A0                                     l6019 14C2  
                                   l6203 1922                                     l5059 2EDE  
                                   l5147 1F56                                     l5083 1D78  
                                   l5243 3006                                     l5235 2FD0  
                                   l6061 1592                                     l6213 1962  
                                   l6205 1928                                     l5093 1DA8  
                                   l5237 2FE0                                     l5229 2FB4  
                                   l6119 177A                                     l6063 1598  
                                   l6311 2BAE                                     l5183 207E  
                                   l5159 1FA6                                     l5079 1D6E  
                                   l5239 2FEA                                     l6161 185C  
                                   l6153 182E                                     l6129 179A  
                                   l6049 14FE                                     l6321 2C9E  
                                   l6209 194E                                     l5193 20C4  
                                   l5185 2092                                     l5169 1FFA  
                                   l6163 1860                                     l6139 17C0  
                                   l6091 1630                                     l6067 15A2  
                                   l6315 2C00                                     l6307 2B60  
                                   l5195 20C8                                     l5187 20B4  
                                   l5179 2050                                     l5099 1DCC  
                                   l7211 1332                                     l6157 1850  
                                   l6149 181C                                     l6085 1620  
                                   l6077 15E2                                     l6261 1BEA  
                                   l6087 1626                                     l6095 1642  
                                   l6271 1C3E                                     l6255 1BC0  
                                   l6351 2A1C                                     l6169 1874  
                                   l6281 1C94                                     l6185 18C8  
                                   l6329 32CC                                     l6345 29C6  
                                   l7217 13A6                                     l6187 18CE  
                                   l6179 18A4                                     l6371 2B00  
                                   l6347 29CE                                     l6339 299E  
                                   l6285 1CBA                                     l6197 18FE  
                                   l6189 18E0                                     l6357 2A78  
                                   l6349 29DE                                     l6295 1D08  
                                   l6287 1CCE                                     l6359 2A88  
                                   l6297 1D12                                     l7169 1062  
                                   ?_isr 0001                                     l7189 10DE  
                                   l5983 1420                                     l6791 290A  
                                   l6783 289A                                     l5977 13FC  
                                   l5995 1456                                     l5987 142A  
                                   l6795 2922                                     u6420 1548  
                                   u5620 2F52                                     u6430 1560  
                                   u6440 1562                                     u5625 2F46  
                                   u5580 2064                                     u6800 1B62  
                                   u8340 10AE                                     u6805 1B56  
                                   u8407 326E                                     u6880 1CA8  
                                   _TMR2 000FBC                                     _TMR4 000F53  
                                   _TMR6 000F4C                       _estado_controle_ml 015C  
                       __end_of_I2C_NACK 3420         __end_of_I2C_Master_RepeatedStart 3490  
                                   _isr2 0008                                     _main 0F04  
                                   fsr0h 000FEA                                     fsr1h 000FE2  
                                   fsr2h 000FDA                                     fsr0l 000FE9  
                                   indf2 000FDF                                     fsr1l 000FE1  
                                   fsr2l 000FD9                                     btemp 005F  
                                   prodh 000FF4                                     prodl 000FF3  
                                   start 0112                            __CFG_IESO$OFF 000000  
                           i2___fltol@f1 0041                          ___fldiv@new_exp 0084  
                        __end_of_Make_16 337E                             ___param_bank 000000  
                                  ??_isr 0062                         ?_I2C_Master_Init 0001  
                       ?_I2C_Master_Wait 0001                         ?_I2C_Master_Stop 0001  
                             _Get_Timer1 3328                            ___fltol@sign1 007B  
                        __end_of___aldiv 2F0C                                    ?_isr2 0001  
                        __end_of___fladd 1886                                    ?_main 0001  
                        __end_of___fldiv 20EC                          __end_of___awdiv 3178  
                        __end_of___flneg 32DE                          __end_of___flmul 1D2C  
                        __end_of___fltol 3018                          ___awdiv@divisor 0003  
                                  i1l311 00CA                                    i2l300 0DE0  
                                  i2l302 0E1E                                    i2l305 0EC8  
                                  i2l316 0934                                    i2l333 02FE  
                                  i2l261 09F0                                    i2l335 031C  
                                  i2l352 0574                                    i2l328 0280  
                                  i2l264 0A52                                    i2l345 03FC  
                                  i2l282 0C72                                    i2l275 0BD0  
                                  i2l730 3428                                    i2l724 340A  
                                  i2l736 341A                                    i2l695 33E4  
                        ___awdiv@counter 0005                                    _TMR0H 000FD7  
                                  _TMR1H 000FCF                                    _TMR0L 000FD6  
                                  _TMR1L 000FCE                                    _TMR3H 000FB3  
                                  _TMR3L 000FB2                                    _TMR5H 000F50  
                                  _TMR5L 000F4F                                    _TRISA 000F92  
                                  _TRISB 000F93                                    _TRISC 000F94  
                                  _TRISD 000F95                                    _TRISE 000F96  
                          __CFG_WRT0$OFF 000000                            __CFG_WRT1$OFF 000000  
                         __CFG_EBTR0$OFF 000000                           __CFG_FCMEN$OFF 000000  
                         __CFG_EBTR1$OFF 000000                            __CFG_WRTB$OFF 000000  
                          __CFG_WRTC$OFF 000000                            __CFG_WRTD$OFF 000000  
                         __CFG_EBTRB$OFF 000000                                    _dente 00E5  
                                  _u_ant 0134                            i2___fldiv@grs 003B  
                          i2___fldiv@rem 0035                                    _valor 0100  
                         __CFG_BOREN$OFF 000000                                    pclath 000FFA  
                                  tablat 000FF5                                    status 000FD8  
                             _No_Analogs 3308                            i2___flmul@grs 001D  
                         __CFG_FOSC$HSHP 000000                       __size_ofi2___fldiv 02B4  
                     __size_ofi2___flmul 0350                       __size_ofi2___fltol 00DC  
                         _ij_tmr_disparo 00B3                          __initialization 31FC  
                           __end_of_isr2 0F04                             __end_of_main 13DE  
                              ??_I2C_ACK 0002                           Get_Timer1@Data 0005  
                                 ??_isr2 004F                                   ??_main 00A5  
                   __end_of_Configure_HW 32A6                            __activetblptr 000002  
                 __size_of_I2C_Transmite 000C                           __CFG_PLLCFG$ON 000000  
                            ?i2___xxtofl 0001                        ?_I2C_Master_Start 0001  
                     ??_I2C_Master_Start 0002                                   _ADCON0 000FC2  
                                 _ADCON1 000FC1                                   _ADCON2 000FC0  
                                 _ADRESH 000FC4                                   _ADRESL 000FC3  
                           ??_I2C_Recebe 0002                         ___awdiv@dividend 0001  
                        _ig_dente_14_ant 00CF                                   _ANSELA 000F38  
                                 _ANSELB 000F39                                   _ANSELC 000F3A  
                                 _ANSELD 000F3B                                   _ANSELE 000F3C  
                        _ig_dente_23_ant 00D3                                   i2l1313 216C  
                                 i2l1330 2408                                   i2l1322 2382  
                                 i2l1350 2DAE                                   i2l1342 2D5E  
                                 i2l1335 2CE0                                   i2l1283 25C8  
                                 i2l1349 2D9A                                   i2l1294 2634  
                         __CFG_WDTEN$OFF 000000                                   i2l4223 3108  
                                 i2l4235 312E                                   i2l4251 3160  
                                 i2l4411 24A8                                   i2l4237 3136  
                                 i2l4229 3118                                   i2l4341 3036  
                                 i2l4255 316E                                   i2l4247 3156  
                                 i2l4239 313A                                   i2l4415 24AC  
                                 i2l4505 26D2                                   i2l4361 30A2  
                                 i2l4507 26D4                                   i2l4435 251A  
                                 i2l4427 24F2                                   i2l4371 30CC  
                                 i2l4453 25A0                                   i2l4445 2578  
                                 i2l4357 3092                                   i2l4471 25FC  
                                 i2l4391 2468                                   i2l4375 30E2  
                                 i2l4367 30BA                                   i2l7031 0EBE  
                                 i2l3841 31EC                                   i2l3833 319C  
                                 i2l4481 2630                                   i2l4465 25DE  
                                 i2l4369 30C6                                   i2l7025 0E84  
                                 i2l3843 31EE                                   i2l4491 2678  
                                 i2l4459 25C6                                   i2l4395 246C  
                                 i2l6411 2178                                   i2l4651 2CF0  
                                 i2l6405 2158                                   i2l4661 2D20  
                                 i2l7029 0E8E                                   i2l3839 31E8  
                                 i2l4495 269C                                   i2l6415 218A  
                                 i2l6407 215C                                   i2l4671 2D90  
                                 i2l4663 2D46                                   i2l4497 26AA  
                                 i2l4657 2D0E                                   i2l6513 01B6  
                                 i2l4499 26C6                                   i2l4683 2DE0  
                                 i2l4659 2D14                                   i2l6611 04F2  
                                 i2l4669 2D84                                   i2l6621 052C  
                                 i2l6533 0206                                   i2l6525 01E8  
                                 i2l6463 234A                                   i2l6391 212C  
                                 i2l6703 07B4                                   i2l6631 0594  
                                 i2l6623 0542                                   i2l6615 0506  
                                 i2l6543 0226                                   i2l6473 237E  
                                 i2l6457 232C                                   i2l6721 0812  
                                 i2l6561 02CA                                   i2l6705 07BE  
                                 i2l6529 01F4                                   i2l6545 0230  
                                 i2l6483 23C6                                   i2l6387 2118  
                                 i2l6651 062C                                   i2l6635 05D6  
                                 i2l6627 0562                                   i2l6619 0516  
                                 i2l6571 0350                                   i2l6555 0288  
                                 i2l6539 0218                                   i2l6389 211C  
                                 i2l6629 057E                                   i2l6581 03B2  
                                 i2l6805 097A                                   i2l6487 23E4  
                                 i2l6671 06C4                                   i2l6655 066E  
                                 i2l6591 03E0                                   i2l6583 03BC  
                                 i2l6575 0372                                   i2l6567 0324  
                                 i2l6559 02B4                                   i2l6489 23F2  
                                 i2l6737 0866                                   i2l6649 0616  
                                 i2l6499 2426                                   i2l6739 087C  
                                 i2l6675 0706                                   i2l6915 0C5A  
                                 i2l6819 09B4                                   i2l6773 0928  
                                 i2l6757 08D4                                   i2l6693 078E  
                                 i2l6685 072C                                   i2l6669 06AE  
                                 i2l6597 0404                                   i2l6853 0A9E  
                                 i2l6759 08DE                                   i2l6687 0736  
                                 i2l6943 0CCA                                   i2l6927 0C8A  
                                 i2l6855 0ACE                                   i2l6689 074C  
                                 i2l6937 0CB4                                   i2l6961 0D04  
                                 i2l6865 0AF0                                   i2l6849 0A94  
                                 i2l6857 0AD8                                   i2l6963 0D2E  
                                 i2l6981 0D6A                                   i2l6949 0CF2  
                                 i2l6957 0CF8                                   i2l6965 0D3A  
                                 i2l6885 0BAA                                   i2l6893 0BDE  
                                 i2l6877 0B1C                                   i2l6975 0D5E  
                                 i2l6895 0C04                                   i2l6889 0BBE  
                                 i2l6995 0DA4                               _Set_Timer0 3466  
                             _Set_Timer1 342E                               _Set_Timer2 3490  
                             _Set_Timer3 345C                               _Set_Timer5 33F6  
                                 _TMR0IP 007F8A                                   _TMR1IP 007CF8  
                                 _TMR2IP 007CF9                                   _TMR5IE 007BE9  
                                 _TMR3IP 007D11                                   _SSP1IP 007CFB  
                                 _SSP2IP 007D2F                                ??_Make_16 0003  
                                 _TRISB0 007C98                                   _TRISB1 007C99  
                                 _TRISB2 007C9A                                   _TRISA5 007C95  
                                 _TRISD0 007CA8                                   _TRISC3 007CA3  
                                 _TRISD1 007CA9                                   _TRISC4 007CA4  
                                 _TRISC5 007CA5                                   _TRISD3 007CAB  
                                 _TRISD4 007CAC                                   _STKFUL 007FE7  
                       __end_of___xxtofl 2B12                                   _SP_rpm 018F  
   I2C_Leitura_Multiplos_Endereco@cont_b 0003                           __CFG_XINST$OFF 000000  
               _I2C_Master_RepeatedStart 3488                                   ___flge 2B12  
                              ??___aldiv 007B                                ??___fladd 008D  
                              ??___fldiv 007B                                ??___awdiv 0005  
                              ??___flneg 0085                                ??___flmul 00A1  
                              ??___fltol 0077                                   _ig_pos 00E3  
                                 _cutoff 00B9                                   _kp_inj 0183  
                                 clear_0 3234                                   clear_1 3244  
                            ?_Get_Timer1 0001                         ___awdiv@quotient 0007  
                         i2___fldiv@aexp 0040                           i2___fldiv@bexp 003F  
                     __end_of_I2C_Recebe 3412                           i2___fldiv@sign 0034  
                    _Control_ml_ign$3227 017B                      _Control_ml_ign$3228 017F  
                              ?_I2C_NACK 0001                     __size_of_conta_dente 0820  
                      __end_ofi2___fldiv 26F0                        __end_ofi2___flmul 243C  
                      __end_ofi2___fltol 30F4                                   tblptrh 000FF7  
                                 tblptrl 000FF6                                   tblptru 000FF8  
                         i2___flmul@aexp 001C                           i2___flmul@bexp 0021  
                __size_of_Confi_Int_Ext0 0008                           i2___flmul@sign 001B  
                         i2___flmul@temp 0026                           i2___flmul@prod 0022  
                             ___flge@ff1 0073                               ___flge@ff2 0077  
                           ___xxtofl@arg 007D                             ___xxtofl@exp 007C  
                           ___xxtofl@val 0073                               __accesstop 0060  
                __end_of__initialization 324A                           i2___fltol@exp1 004A  
                             ___flneg@f1 0081                              ?_No_Analogs 0001  
                          _I2C_Transmite 3446                            ___rparam_used 000001  
                             ___fltol@f1 0073                         ??_Control_ml_ign 00A5  
           _ig_tmr_disparo_controle_temp 00AB                      __size_ofi2___xxtofl 0150  
                         __pcstackCOMRAM 0001                             __pidataBANK0 3496  
                           __pidataBANK1 3394         ??_I2C_Leitura_Multiplos_Endereco 0005  
        ?_I2C_Leitura_Multiplos_Endereco 0003                    __end_of_Config_Timer0 3394  
                  __end_of_Config_Timer1 33E4                    __end_of_Config_Timer2 33D0  
                  __end_of_Config_Timer3 33BC                    __end_of_Config_Timer5 3308  
                             ??_I2C_NACK 0002                               __pbssBANK0 00A7  
                             __pbssBANK1 0100                              ?_Set_Timer0 0001  
                            ?_Set_Timer1 0060                              ?_Set_Timer2 0001  
                            ?_Set_Timer3 0001                              ?_Set_Timer5 0073  
                         ?_I2C_Transmite 0001                      __size_of_Get_Timer1 0020  
                      _ij_dente_14_extra 0152                        _ij_dente_23_extra 0150  
                                ?___flge 0073                    __size_of_Configure_HW 004E  
                                _I2C_ACK 3420                      __size_of_No_Analogs 0020  
                              ?___xxtofl 0073                                  _SSP2ADD 000F6E  
                                _SSP1BUF 000FC9                                  _SSP2BUF 000F6F  
                        _periodo_peralta 016A                             _dente_subida 012C  
  I2C_Leitura_Multiplos_Endereco@end_i2c 000C                                  _Make_16 3364  
                             _n_controle 015A                             _Configure_HW 3258  
                        __CFG_PWRTEN$OFF 000000                                  __Hparam 0000  
                                __Lparam 0000                             _flag_peralta 00E9  
                                ___aldiv 2DF2                          __size_of___flge 0190  
                                ___fladd 13DE                                  ___fldiv 1D2C  
                                ___awdiv 30F4                                  ___flneg 32A6  
                                ___flmul 1886                                  ___fltol 2F0C  
                        __CFG_STVREN$OFF 000000                                  __pcinit 31FC  
                                __ramtop 1000                                  _fase_ok 0156  
                                __ptext0 0F04                                  __ptext1 2F0C  
                                __ptext2 1D2C                                  __ptext3 2DF2  
                                __ptext4 33F6                                  __ptext5 3348  
                                __ptext6 26F0                                  __ptext7 2944  
                                __ptext8 32A6                                  __ptext9 1886  
                    __size_of_Set_Timer0 000A                      __size_of_Set_Timer1 000C  
                    __size_of_Set_Timer2 0006                      __size_of_Set_Timer3 000A  
                    __size_of_Set_Timer5 000E                                _T0CONbits 000FD5  
                              _T1CONbits 000FCD                                _T2CONbits 000FBA  
                           __size_of_isr 00FA                             ??i2___xxtofl 0005  
                             ??___xxtofl 0077                                _T3CONbits 000FB1  
                       ___aldiv@dividend 0073                                _T4CONbits 000F51  
                              _T5CONbits 000F4E                 __size_of_I2C_Master_Init 001C  
               __size_of_I2C_Master_Wait 0012                                _T6CONbits 000F4A  
               __size_of_I2C_Master_Stop 0008                                  _spi_ctr 0158  
                                _rotacao 00BF                   i2Set_Timer1@data_timer 0001  
                                _volta14 00DD                                  _volta23 00DB  
                         _Confi_Int_Ext0 3470                           __pintcode_body 0936  
                   end_of_initialization 324A                          ??_I2C_Transmite 0002  
             ??_I2C_Master_RepeatedStart 0002                            __Lmediumconst 0000  
                                int_func 0936                           i2___xxtofl@arg 000B  
                         i2___xxtofl@exp 000A                           i2___xxtofl@val 0001  
              __size_of_I2C_Master_Start 0008                       __end_ofi2___xxtofl 2DF2  
                             _sinal_fase 00BB                         ___aldiv@quotient 007D  
                                postdec1 000FE5                                  postinc0 000FEE  
                           ??_Get_Timer1 0003                                _PORTBbits 000F81  
                              _PORTEbits 000F84                              ___fladd@grs 0098  
                          ___xxtofl@sign 007B                        __size_of_I2C_NACK 000E  
                              _TRISDbits 000F95                   __end_of_Confi_Int_Ext0 3478  
                         _dente_controle 0130                              ___fldiv@grs 0086  
                            ___fldiv@rem 0080                          i2___fltol@sign1 0049  
                              i2___fldiv 243C                                i2___flmul 20EC  
                              i2___fltol 3018                             _Erro_RPM_ant 0138  
                            ___flmul@grs 0170                            ?i2_Set_Timer1 0001  
                          ?i2_Set_Timer5 0001                             ??_No_Analogs 0073  
                     __end_of_Get_Timer1 3348                           __end_of___flge 2CA2  
                          ??_conta_dente 004B                            __pbitbssBANK0 0740  
                     __end_of_No_Analogs 3328                      start_initialization 31FC  
                        ?_Confi_Int_Ext0 0001                              __end_of_isr 0112  
                             ?i2___fldiv 0028                               ?i2___flmul 000F  
                 i2Set_Timer5@data_timer 0001                               ?i2___fltol 0041  
                         ??i2_Set_Timer1 0003                           ??i2_Set_Timer5 0003  
                           ??_Set_Timer0 0003                             ??_Set_Timer1 0062  
                           ??_Set_Timer2 0003                             ??_Set_Timer3 0003  
                           ??_Set_Timer5 0075                          _ij_dente_14_ant 00C7  
                        _ij_dente_23_ant 00C3                        ??_I2C_Master_Init 0073  
                      ??_I2C_Master_Wait 0001                        ??_I2C_Master_Stop 0002  
                               ??___flge 007B       I2C_Leitura_Multiplos_Endereco@cont 000D  
                            __pdataBANK0 00E9                              __pdataBANK1 0183  
                               ?_I2C_ACK 0001                            _t_periodo_ref 0140  
                              ___fladd@a 0089                                ___fladd@b 0085  
                     __end_of_Set_Timer0 3470                       __end_of_Set_Timer1 343A  
                     __end_of_Set_Timer2 3496                       __end_of_Set_Timer3 3466  
                     __end_of_Set_Timer5 3404                                ___fldiv@a 0077  
                              ___fldiv@b 0073                                ___flmul@a 009D  
                              ___flmul@b 0099                      __end_of_conta_dente 0936  
                          __pcstackBANK0 0060                            __pcstackBANK1 016E  
                      __size_of___xxtofl 01CE                   __size_of_Config_Timer0 0016  
                 __size_of_Config_Timer1 0014                   __size_of_Config_Timer2 0014  
                 __size_of_Config_Timer3 0014                   __size_of_Config_Timer5 002A  
                               ?_Make_16 0001                    I2C_Transmite@dado_I2c 0002  
                       _I2C_Master_Start 3480                                __pintcode 0008  
                               ?___aldiv 0073                                 ?___fladd 0085  
                               ?___fldiv 0073                                 ?___awdiv 0001  
                               ?___flneg 0081                                 ?___flmul 0099  
                               ?___fltol 0073                       _Enable_control_ign 0741  
                            __pintcodelo 0018                  __size_of_Control_ml_ign 0254  
                               _I2C_NACK 3412                              _flag_marcus 014A  
                            _ig_dente_14 00D1                              _ig_dente_23 00D5  
                            ??i2___fldiv 0030                              ??i2___flmul 0017  
                            ??i2___fltol 0045                          ___aldiv@divisor 0077  
                        ___aldiv@counter 007B                                 _LATAbits 000F89  
                               _LATBbits 000F8A                                 _LATCbits 000F8B  
                               _LATDbits 000F8C                                 _LATEbits 000F8D  
                            _ij_dente_14 00C9                              _ij_dente_23 00C5  
                               _PIE1bits 000F9D                                 _PIE2bits 000FA0  
                               _IPR5bits 000F7F                                _t_periodo 0144  
                               _PIE5bits 000F7D                                 i2u411_40 3054  
                               i2u411_45 304A                                 _PIR1bits 000F9E  
                               _PIR2bits 000FA1                                 i2u437_40 2686  
                               i2u800_40 0A6A                                 i2u801_40 0A80  
                               _PIR5bits 000F7E                                 i2u810_40 0B5E  
                               i2u802_41 0A8C                                 i2u723_40 23D4  
                               i2u715_40 22EE                                 i2u803_40 0A8E  
                            _buffer_read 0118                                 i2u715_45 22E4  
                               i2u740_40 033A                                 i2u820_40 0DC2  
                               i2u821_40 0DF8                                 i2u822_40 0E0E  
                               i2u830_41 0E7C                                 i2u831_40 0E7E  
                               i2u823_40 0E1A                                 i2u815_40 0CA0  
                               i2u744_40 03A8                                 i2u736_40 029E  
                               i2u816_40 0CE0                                 i2u761_40 0684  
                               i2u825_40 0E36                                 i2u754_40 05AA  
                               i2u738_40 02F4                                 i2u826_40 0E4C  
                               i2u827_40 0E5C                                 i2u819_40 0D88  
                               i2u764_40 06DA                                 i2u756_40 05EC  
                               i2u748_40 0502                                 i2u828_40 0E5E  
                               i2u773_40 07F4                                 i2u759_40 0642  
                               i2u791_40 0998                                 i2u776_40 0848  
                               i2u768_40 0762                                 i2u792_40 09D2  
                               i2u793_40 0A08                                 i2u794_40 0A1E  
                               i2u795_40 0A2E                                 i2u796_40 0A30  
                               i2u798_40 0A4E                                 _RCONbits 000FD0  
                      i2___fldiv@new_exp 0039                         __CFG_WDTPS$32768 000000  
                              _tempo_bob 00C1                                _tempo_inj 00A7  
                               _SSP1CON1 000FC6                                 _SSP2CON1 000F6C  
                               _SSP2CON2 000F6B                                 _SSP1STAT 000FC7  
                               _SSP2STAT 000F6D                            _Config_Timer0 337E  
                          _Config_Timer1 33D0                            _Config_Timer2 33BC  
                          _Config_Timer3 33A8                            _Config_Timer5 32DE  
                       __size_of_I2C_ACK 000E                              _conta_dente 0116  
                   __end_ofi2_Set_Timer1 345C                     __end_ofi2_Set_Timer5 3446  
                             _ADCON0bits 000FC2                               _ADCON1bits 000FC1  
                             _ADCON2bits 000FC0                                 _Flag_I2c 014C  
 I2C_Leitura_Multiplos_Endereco@endereco 0004                              _INTCON2bits 000FF1  
                              copy_data0 3210                               _I2C_Recebe 3404  
                               _Erro_RPM 013C                    __end_of_I2C_Transmite 3452  
                       __size_of_Make_16 001A                                 __Hrparam 0000  
                               _Set_Vent 00B7                                 __Lrparam 0000  
                               _ij14_pos 00E1                                 _ij23_pos 00DF  
                   Set_Timer0@data_timer 0001                         __size_of___aldiv 011A  
                         ?_Config_Timer0 0001                           ?_Config_Timer1 0001  
                         ?_Config_Timer2 0001                           ?_Config_Timer3 0001  
                         ?_Config_Timer5 0001        __size_of_I2C_Master_RepeatedStart 0008  
                       __size_of___fladd 04A8                         __size_of___fldiv 03C0  
                       __size_of___awdiv 0084                         __size_of___flneg 0038  
                       __size_of___flmul 04A6                ?_I2C_Master_RepeatedStart 0001  
                       __size_of___fltol 010C                     _dente_subida_inteiro 00CD  
                           Make_16@data1 0005                             Make_16@data2 0001  
                _ig_tmr_disparo_controle 00D7                         ??_Confi_Int_Ext0 0073  
                        _I2C_Master_Init 3348                                 ___xxtofl 2944  
                        _I2C_Master_Wait 33E4                          _I2C_Master_Stop 3478  
                               _falha_ok 0154                                 __ptext10 2B12  
                               __ptext11 13DE                                 __ptext12 3258  
                               __ptext21 342E                                 __ptext13 3308  
                               __ptext30 30F4                                 __ptext14 32DE  
                               __ptext31 345C                                 __ptext23 343A  
                               __ptext15 33A8                                 __ptext40 3480  
                               __ptext32 3490                                 __ptext24 0116  
                               __ptext16 33BC                                 __ptext41 3488  
                               __ptext33 3466                                 __ptext25 2CA2  
                               __ptext17 33D0                                 __ptext42 3420  
                               __ptext34 3364                                 __ptext26 3018  
                               __ptext18 337E                                 __ptext43 33E4  
                               __ptext35 3178                                 __ptext27 20EC  
                               __ptext19 3470                                 __ptext44 3328  
                               __ptext36 3446                                 __ptext28 243C  
                               __ptext37 3404                                 __ptext29 3452  
                               __ptext38 3412                                 __ptext39 3478  
                   Set_Timer1@data_timer 0060                             _SSP2CON2bits 000F6B  
                               _pedal_ad 014E                            __size_of_isr2 0EFC  
                          __size_of_main 04DA                                 int$flags 005F  
                   Set_Timer2@data_timer 0001                             _SSP1STATbits 000FC7  
                               _voltai2c 00E7                           _Control_ml_ign 26F0  
                           _SSP2STATbits 000F6D                            _UnionAllReles 0148  
               __end_of_I2C_Master_Start 3488                               _INTCONbits 000FF2  
                        _rotacao_peralta 00CB                              ?_I2C_Recebe 0001  
                   Set_Timer3@data_timer 0001                                 intlevel1 0000  
                               intlevel2 0000                          i2___xxtofl@sign 0009  
                          ?_Configure_HW 0001                           _ig_tmr_disparo 00D9  
                        ??_Config_Timer0 0073                          ??_Config_Timer1 0073  
                        ??_Config_Timer2 0073                          ??_Config_Timer3 0073  
                        ??_Config_Timer5 0073                    __size_ofi2_Set_Timer1 000A  
                  __size_ofi2_Set_Timer5 000C                   __end_of_Control_ml_ign 2944  
                __end_of_I2C_Master_Init 3364                  __end_of_I2C_Master_Wait 33F6  
                __end_of_I2C_Master_Stop 3480                             ___aldiv@sign 007C  
                            _teto_avanco 0193                            ___fladd@signs 0095  
                   Set_Timer5@data_timer 0073   __end_of_I2C_Leitura_Multiplos_Endereco 31FC  
__size_of_I2C_Leitura_Multiplos_Endereco 0084           _I2C_Leitura_Multiplos_Endereco 3178  
                           ___fladd@aexp 0096                             ___fladd@bexp 0097  
                         ??_Configure_HW 0073                             i2_Set_Timer1 3452  
                           i2_Set_Timer5 343A                              _rotacao_ant 00BD  
